(dp1
S'output'
p2
S"<type 'exceptions.IOError'> [Errno 2] No such file or directory: '/Users/victorgirotto/Desktop/web2py-master/applications/CartesianPlane/static/geoapp.html'"
p3
sS'layer'
p4
S'/Users/victorgirotto/Desktop/web2py-master/applications/CartesianPlane/controllers/default.py'
p5
sS'code'
p6
S'import os\nimport socket\nfrom xmlrpclib import ServerProxy\nfrom gluon.shell import exec_environment\nfrom gluon.contrib.websocket_messaging import websocket_send\n\nfilename = os.path.join(request.folder, \'static\', \'geoapp.html\')\nserver = ServerProxy(\'http://127.0.0.1:8000/GeogebraInterface/default/call/xmlrpc\')\n\n__current_ip = \'127.0.0.1\'\n# __current_ip = \'169.254.67.33\'\n__socket_group_name = \'applet\'\n__socket_port = \'8888\'\n\n# -*- coding: utf-8 -*-\n### required - do no delete\ndef user(): return dict(form=auth())\ndef download(): return response.download(request,db)\ndef call(): \n    session.forget()\n    return service()\n### end requires\ndef index():\n    return dict()\n    \ndef applet():\n    return dict(applet=XML(open(filename).read()), ip=__current_ip, port=__socket_port, group_name=__socket_group_name)\n\n    \ndef loadOptions():\n    return server.loadOptions(response.json(request.vars))\n    ##return(response.json(request.vars))\n    \n    ##\n    ##return server.loadOptions(request.vars)\n    ##s.update(value="3")\n    ##return server.loadOptions()\n\n    \ndef echo():\n    return "Hello World"\n   \ndef program():\n    return dict()\n\ndef error():\n    return dict()\n\n## the server polls for an update to the current step\ndef pollForEvent():\n    return db(db.menuOptions2.name == \'test\').select()[0].value\n\n## executes the current step on the server\n@service.xmlrpc\ndef executeEvent(data):\n    db.menuOptions2.update_or_insert(db.menuOptions2.name==\'test\', name=\'test\', value=data)\n    websocket_send(\'http://\' + __current_ip + \':\' + __socket_port, data, \'mykey\', __socket_group_name)\n    return data\n\n@service.xmlrpc\ndef executeSteps(data):\n    websocket_send(\'http://\' + __current_ip + \':\' + __socket_port, data, \'mykey\', __socket_group_name)\n    return data\nresponse._vars=response._caller(applet)\n'
p7
sS'snapshot'
p8
(dp9
S'exception'
p10
(dp11
S'__getslice__'
p12
S"<method-wrapper '__getslice__' of exceptions.IOError object>"
p13
sS'__str__'
p14
S"<method-wrapper '__str__' of exceptions.IOError object>"
p15
sS'__reduce__'
p16
S'<built-in method __reduce__ of exceptions.IOError object>'
p17
sS'__dict__'
p18
S'{}'
p19
sS'__sizeof__'
p20
S'<built-in method __sizeof__ of exceptions.IOError object>'
p21
sS'__init__'
p22
S"<method-wrapper '__init__' of exceptions.IOError object>"
p23
sS'__setattr__'
p24
S"<method-wrapper '__setattr__' of exceptions.IOError object>"
p25
sS'__reduce_ex__'
p26
S'<built-in method __reduce_ex__ of exceptions.IOError object>'
p27
sS'__new__'
p28
S'<built-in method __new__ of type object>'
p29
sS'errno'
p30
S'2'
sS'__format__'
p31
S'<built-in method __format__ of exceptions.IOError object>'
p32
sS'__class__'
p33
S"<type 'exceptions.IOError'>"
p34
sS'filename'
p35
S"'/Users/victorgirotto/Desktop/web2py-master/applications/CartesianPlane/static/geoapp.html'"
p36
sS'__doc__'
p37
S"'I/O operation failed.'"
p38
sS'__getitem__'
p39
S"<method-wrapper '__getitem__' of exceptions.IOError object>"
p40
sS'__setstate__'
p41
S'<built-in method __setstate__ of exceptions.IOError object>'
p42
sS'__getattribute__'
p43
S"<method-wrapper '__getattribute__' of exceptions.IOError object>"
p44
sS'args'
p45
S"(2, 'No such file or directory')"
p46
sS'__subclasshook__'
p47
S'<built-in method __subclasshook__ of type object>'
p48
sS'__unicode__'
p49
S'<built-in method __unicode__ of exceptions.IOError object>'
p50
sS'strerror'
p51
S"'No such file or directory'"
p52
sS'__delattr__'
p53
S"<method-wrapper '__delattr__' of exceptions.IOError object>"
p54
sS'__repr__'
p55
S"<method-wrapper '__repr__' of exceptions.IOError object>"
p56
sS'__hash__'
p57
S"<method-wrapper '__hash__' of exceptions.IOError object>"
p58
ssS'evalue'
p59
S"[Errno 2] No such file or directory: '/Users/victorgirotto/Desktop/web2py-master/applications/CartesianPlane/static/geoapp.html'"
p60
sS'request'
p61
ccopy_reg
_reconstructor
p62
(cgluon.html
BEAUTIFY
p63
c__builtin__
object
p64
NtRp65
(dp66
S'attributes'
p67
(dp68
sS'components'
p69
(lp70
g62
(cgluon.html
TABLE
p71
g64
NtRp72
(dp73
g67
(dp74
S'level'
p75
I5
ssS'parent'
p76
Nsg69
(lp77
g62
(cgluon.html
TR
p78
g64
NtRp79
(dp80
g67
(dp81
sg76
g72
sg69
(lp82
g62
(cgluon.html
TD
p83
g64
NtRp84
(dp85
g67
(dp86
S'_style'
p87
S'font-weight:bold;vertical-align:top'
p88
ssg76
g79
sg69
(lp89
S'ajax'
p90
asbag62
(g83
g64
NtRp91
(dp92
g67
(dp93
S'_valign'
p94
S'top'
p95
ssg76
g79
sg69
(lp96
S':'
asbag62
(g83
g64
NtRp97
(dp98
g67
(dp99
sg76
g79
sg69
(lp100
g62
(g63
g64
NtRp101
(dp102
g67
(dp103
g75
I5
ssg76
g97
sg69
(lp104
S'False'
p105
asbasbasbag62
(g78
g64
NtRp106
(dp107
g67
(dp108
sg76
g72
sg69
(lp109
g62
(g83
g64
NtRp110
(dp111
g67
(dp112
g87
g88
ssg76
g106
sg69
(lp113
S'application'
p114
asbag62
(g83
g64
NtRp115
(dp116
g67
(dp117
g94
g95
ssg76
g106
sg69
(lp118
S':'
asbag62
(g83
g64
NtRp119
(dp120
g67
(dp121
sg76
g106
sg69
(lp122
g62
(g63
g64
NtRp123
(dp124
g67
(dp125
g75
I5
ssg76
g119
sg69
(lp126
S'CartesianPlane'
p127
asbasbasbag62
(g78
g64
NtRp128
(dp129
g67
(dp130
sg76
g72
sg69
(lp131
g62
(g83
g64
NtRp132
(dp133
g67
(dp134
g87
g88
ssg76
g128
sg69
(lp135
g45
asbag62
(g83
g64
NtRp136
(dp137
g67
(dp138
g94
g95
ssg76
g128
sg69
(lp139
S':'
asbag62
(g83
g64
NtRp140
(dp141
g67
(dp142
sg76
g128
sg69
(lp143
g62
(g63
g64
NtRp144
(dp145
g67
(dp146
g75
I5
ssg76
g140
sg69
(lp147
g62
(g71
g64
NtRp148
(dp149
g67
(dp150
g75
I4
ssg76
Nsg69
(lp151
sbasbasbasbag62
(g78
g64
NtRp152
(dp153
g67
(dp154
sg76
g72
sg69
(lp155
g62
(g83
g64
NtRp156
(dp157
g67
(dp158
g87
g88
ssg76
g152
sg69
(lp159
S'body'
p160
asbag62
(g83
g64
NtRp161
(dp162
g67
(dp163
g94
g95
ssg76
g152
sg69
(lp164
S':'
asbag62
(g83
g64
NtRp165
(dp166
g67
(dp167
sg76
g152
sg69
(lp168
g62
(g63
g64
NtRp169
(dp170
g67
(dp171
g75
I5
ssg76
g165
sg69
(lp172
S'<cStringIO.StringO object at 0x112311ea0>'
p173
asbasbasbag62
(g78
g64
NtRp174
(dp175
g67
(dp176
sg76
g72
sg69
(lp177
g62
(g83
g64
NtRp178
(dp179
g67
(dp180
g87
g88
ssg76
g174
sg69
(lp181
S'cid'
p182
asbag62
(g83
g64
NtRp183
(dp184
g67
(dp185
g94
g95
ssg76
g174
sg69
(lp186
S':'
asbag62
(g83
g64
NtRp187
(dp188
g67
(dp189
sg76
g174
sg69
(lp190
g62
(g63
g64
NtRp191
(dp192
g67
(dp193
g75
I5
ssg76
g187
sg69
(lp194
S'None'
p195
asbasbasbag62
(g78
g64
NtRp196
(dp197
g67
(dp198
sg76
g72
sg69
(lp199
g62
(g83
g64
NtRp200
(dp201
g67
(dp202
g87
g88
ssg76
g196
sg69
(lp203
S'client'
p204
asbag62
(g83
g64
NtRp205
(dp206
g67
(dp207
g94
g95
ssg76
g196
sg69
(lp208
S':'
asbag62
(g83
g64
NtRp209
(dp210
g67
(dp211
sg76
g196
sg69
(lp212
g62
(g63
g64
NtRp213
(dp214
g67
(dp215
g75
I5
ssg76
g209
sg69
(lp216
S'127.0.0.1'
p217
asbasbasbag62
(g78
g64
NtRp218
(dp219
g67
(dp220
sg76
g72
sg69
(lp221
g62
(g83
g64
NtRp222
(dp223
g67
(dp224
g87
g88
ssg76
g218
sg69
(lp225
S'controller'
p226
asbag62
(g83
g64
NtRp227
(dp228
g67
(dp229
g94
g95
ssg76
g218
sg69
(lp230
S':'
asbag62
(g83
g64
NtRp231
(dp232
g67
(dp233
sg76
g218
sg69
(lp234
g62
(g63
g64
NtRp235
(dp236
g67
(dp237
g75
I5
ssg76
g231
sg69
(lp238
S'default'
p239
asbasbasbag62
(g78
g64
NtRp240
(dp241
g67
(dp242
sg76
g72
sg69
(lp243
g62
(g83
g64
NtRp244
(dp245
g67
(dp246
g87
g88
ssg76
g240
sg69
(lp247
S'cookies'
p248
asbag62
(g83
g64
NtRp249
(dp250
g67
(dp251
g94
g95
ssg76
g240
sg69
(lp252
S':'
asbag62
(g83
g64
NtRp253
(dp254
g67
(dp255
sg76
g240
sg69
(lp256
g62
(g63
g64
NtRp257
(dp258
g67
(dp259
g75
I5
ssg76
g253
sg69
(lp260
g62
(g71
g64
NtRp261
(dp262
g67
(dp263
g75
I4
ssg76
Nsg69
(lp264
g62
(g78
g64
NtRp265
(dp266
g67
(dp267
sg76
g261
sg69
(lp268
g62
(g83
g64
NtRp269
(dp270
g67
(dp271
g87
g88
ssg76
g265
sg69
(lp272
S'session_id_admin'
p273
asbag62
(g83
g64
NtRp274
(dp275
g67
(dp276
g94
g95
ssg76
g265
sg69
(lp277
S':'
asbag62
(g83
g64
NtRp278
(dp279
g67
(dp280
sg76
g265
sg69
(lp281
g62
(g63
g64
NtRp282
(dp283
g67
(dp284
g75
I4
ssg76
g278
sg69
(lp285
S'127.0.0.1-a7fdf2f3-ac80-4d35-8b63-06907936ff34'
p286
ag62
(g71
g64
NtRp287
(dp288
g67
(dp289
g75
I3
ssg76
Nsg69
(lp290
g62
(g78
g64
NtRp291
(dp292
g67
(dp293
sg76
g287
sg69
(lp294
g62
(g83
g64
NtRp295
(dp296
g67
(dp297
g87
g88
ssg76
g291
sg69
(lp298
S'comment'
p299
asbag62
(g83
g64
NtRp300
(dp301
g67
(dp302
g94
g95
ssg76
g291
sg69
(lp303
S':'
asbag62
(g83
g64
NtRp304
(dp305
g67
(dp306
sg76
g291
sg69
(lp307
g62
(g63
g64
NtRp308
(dp309
g67
(dp310
g75
I3
ssg76
g304
sg69
(lp311
S''
asbasbasbag62
(g78
g64
NtRp312
(dp313
g67
(dp314
sg76
g287
sg69
(lp315
g62
(g83
g64
NtRp316
(dp317
g67
(dp318
g87
g88
ssg76
g312
sg69
(lp319
S'domain'
p320
asbag62
(g83
g64
NtRp321
(dp322
g67
(dp323
g94
g95
ssg76
g312
sg69
(lp324
S':'
asbag62
(g83
g64
NtRp325
(dp326
g67
(dp327
sg76
g312
sg69
(lp328
g62
(g63
g64
NtRp329
(dp330
g67
(dp331
g75
I3
ssg76
g325
sg69
(lp332
S''
asbasbasbag62
(g78
g64
NtRp333
(dp334
g67
(dp335
sg76
g287
sg69
(lp336
g62
(g83
g64
NtRp337
(dp338
g67
(dp339
g87
g88
ssg76
g333
sg69
(lp340
S'expires'
p341
asbag62
(g83
g64
NtRp342
(dp343
g67
(dp344
g94
g95
ssg76
g333
sg69
(lp345
S':'
asbag62
(g83
g64
NtRp346
(dp347
g67
(dp348
sg76
g333
sg69
(lp349
g62
(g63
g64
NtRp350
(dp351
g67
(dp352
g75
I3
ssg76
g346
sg69
(lp353
S''
asbasbasbag62
(g78
g64
NtRp354
(dp355
g67
(dp356
sg76
g287
sg69
(lp357
g62
(g83
g64
NtRp358
(dp359
g67
(dp360
g87
g88
ssg76
g354
sg69
(lp361
S'httponly'
p362
asbag62
(g83
g64
NtRp363
(dp364
g67
(dp365
g94
g95
ssg76
g354
sg69
(lp366
S':'
asbag62
(g83
g64
NtRp367
(dp368
g67
(dp369
sg76
g354
sg69
(lp370
g62
(g63
g64
NtRp371
(dp372
g67
(dp373
g75
I3
ssg76
g367
sg69
(lp374
S''
asbasbasbag62
(g78
g64
NtRp375
(dp376
g67
(dp377
sg76
g287
sg69
(lp378
g62
(g83
g64
NtRp379
(dp380
g67
(dp381
g87
g88
ssg76
g375
sg69
(lp382
S'max-age'
p383
asbag62
(g83
g64
NtRp384
(dp385
g67
(dp386
g94
g95
ssg76
g375
sg69
(lp387
S':'
asbag62
(g83
g64
NtRp388
(dp389
g67
(dp390
sg76
g375
sg69
(lp391
g62
(g63
g64
NtRp392
(dp393
g67
(dp394
g75
I3
ssg76
g388
sg69
(lp395
S''
asbasbasbag62
(g78
g64
NtRp396
(dp397
g67
(dp398
sg76
g287
sg69
(lp399
g62
(g83
g64
NtRp400
(dp401
g67
(dp402
g87
g88
ssg76
g396
sg69
(lp403
S'path'
p404
asbag62
(g83
g64
NtRp405
(dp406
g67
(dp407
g94
g95
ssg76
g396
sg69
(lp408
S':'
asbag62
(g83
g64
NtRp409
(dp410
g67
(dp411
sg76
g396
sg69
(lp412
g62
(g63
g64
NtRp413
(dp414
g67
(dp415
g75
I3
ssg76
g409
sg69
(lp416
S''
asbasbasbag62
(g78
g64
NtRp417
(dp418
g67
(dp419
sg76
g287
sg69
(lp420
g62
(g83
g64
NtRp421
(dp422
g67
(dp423
g87
g88
ssg76
g417
sg69
(lp424
S'secure'
p425
asbag62
(g83
g64
NtRp426
(dp427
g67
(dp428
g94
g95
ssg76
g417
sg69
(lp429
S':'
asbag62
(g83
g64
NtRp430
(dp431
g67
(dp432
sg76
g417
sg69
(lp433
g62
(g63
g64
NtRp434
(dp435
g67
(dp436
g75
I3
ssg76
g430
sg69
(lp437
S''
asbasbasbag62
(g78
g64
NtRp438
(dp439
g67
(dp440
sg76
g287
sg69
(lp441
g62
(g83
g64
NtRp442
(dp443
g67
(dp444
g87
g88
ssg76
g438
sg69
(lp445
S'version'
p446
asbag62
(g83
g64
NtRp447
(dp448
g67
(dp449
g94
g95
ssg76
g438
sg69
(lp450
S':'
asbag62
(g83
g64
NtRp451
(dp452
g67
(dp453
sg76
g438
sg69
(lp454
g62
(g63
g64
NtRp455
(dp456
g67
(dp457
g75
I3
ssg76
g451
sg69
(lp458
S''
asbasbasbasbasbasbasbag62
(g78
g64
NtRp459
(dp460
g67
(dp461
sg76
g261
sg69
(lp462
g62
(g83
g64
NtRp463
(dp464
g67
(dp465
g87
g88
ssg76
g459
sg69
(lp466
S'session_id_cartesianplane'
p467
asbag62
(g83
g64
NtRp468
(dp469
g67
(dp470
g94
g95
ssg76
g459
sg69
(lp471
S':'
asbag62
(g83
g64
NtRp472
(dp473
g67
(dp474
sg76
g459
sg69
(lp475
g62
(g63
g64
NtRp476
(dp477
g67
(dp478
g75
I4
ssg76
g472
sg69
(lp479
S'127.0.0.1-992cdbcb-1606-456a-9718-5f1d21463d11'
p480
ag62
(g71
g64
NtRp481
(dp482
g67
(dp483
g75
I3
ssg76
Nsg69
(lp484
g62
(g78
g64
NtRp485
(dp486
g67
(dp487
sg76
g481
sg69
(lp488
g62
(g83
g64
NtRp489
(dp490
g67
(dp491
g87
g88
ssg76
g485
sg69
(lp492
g299
asbag62
(g83
g64
NtRp493
(dp494
g67
(dp495
g94
g95
ssg76
g485
sg69
(lp496
S':'
asbag62
(g83
g64
NtRp497
(dp498
g67
(dp499
sg76
g485
sg69
(lp500
g62
(g63
g64
NtRp501
(dp502
g67
(dp503
g75
I3
ssg76
g497
sg69
(lp504
S''
asbasbasbag62
(g78
g64
NtRp505
(dp506
g67
(dp507
sg76
g481
sg69
(lp508
g62
(g83
g64
NtRp509
(dp510
g67
(dp511
g87
g88
ssg76
g505
sg69
(lp512
g320
asbag62
(g83
g64
NtRp513
(dp514
g67
(dp515
g94
g95
ssg76
g505
sg69
(lp516
S':'
asbag62
(g83
g64
NtRp517
(dp518
g67
(dp519
sg76
g505
sg69
(lp520
g62
(g63
g64
NtRp521
(dp522
g67
(dp523
g75
I3
ssg76
g517
sg69
(lp524
S''
asbasbasbag62
(g78
g64
NtRp525
(dp526
g67
(dp527
sg76
g481
sg69
(lp528
g62
(g83
g64
NtRp529
(dp530
g67
(dp531
g87
g88
ssg76
g525
sg69
(lp532
g341
asbag62
(g83
g64
NtRp533
(dp534
g67
(dp535
g94
g95
ssg76
g525
sg69
(lp536
S':'
asbag62
(g83
g64
NtRp537
(dp538
g67
(dp539
sg76
g525
sg69
(lp540
g62
(g63
g64
NtRp541
(dp542
g67
(dp543
g75
I3
ssg76
g537
sg69
(lp544
S''
asbasbasbag62
(g78
g64
NtRp545
(dp546
g67
(dp547
sg76
g481
sg69
(lp548
g62
(g83
g64
NtRp549
(dp550
g67
(dp551
g87
g88
ssg76
g545
sg69
(lp552
g362
asbag62
(g83
g64
NtRp553
(dp554
g67
(dp555
g94
g95
ssg76
g545
sg69
(lp556
S':'
asbag62
(g83
g64
NtRp557
(dp558
g67
(dp559
sg76
g545
sg69
(lp560
g62
(g63
g64
NtRp561
(dp562
g67
(dp563
g75
I3
ssg76
g557
sg69
(lp564
S''
asbasbasbag62
(g78
g64
NtRp565
(dp566
g67
(dp567
sg76
g481
sg69
(lp568
g62
(g83
g64
NtRp569
(dp570
g67
(dp571
g87
g88
ssg76
g565
sg69
(lp572
g383
asbag62
(g83
g64
NtRp573
(dp574
g67
(dp575
g94
g95
ssg76
g565
sg69
(lp576
S':'
asbag62
(g83
g64
NtRp577
(dp578
g67
(dp579
sg76
g565
sg69
(lp580
g62
(g63
g64
NtRp581
(dp582
g67
(dp583
g75
I3
ssg76
g577
sg69
(lp584
S''
asbasbasbag62
(g78
g64
NtRp585
(dp586
g67
(dp587
sg76
g481
sg69
(lp588
g62
(g83
g64
NtRp589
(dp590
g67
(dp591
g87
g88
ssg76
g585
sg69
(lp592
g404
asbag62
(g83
g64
NtRp593
(dp594
g67
(dp595
g94
g95
ssg76
g585
sg69
(lp596
S':'
asbag62
(g83
g64
NtRp597
(dp598
g67
(dp599
sg76
g585
sg69
(lp600
g62
(g63
g64
NtRp601
(dp602
g67
(dp603
g75
I3
ssg76
g597
sg69
(lp604
S''
asbasbasbag62
(g78
g64
NtRp605
(dp606
g67
(dp607
sg76
g481
sg69
(lp608
g62
(g83
g64
NtRp609
(dp610
g67
(dp611
g87
g88
ssg76
g605
sg69
(lp612
g425
asbag62
(g83
g64
NtRp613
(dp614
g67
(dp615
g94
g95
ssg76
g605
sg69
(lp616
S':'
asbag62
(g83
g64
NtRp617
(dp618
g67
(dp619
sg76
g605
sg69
(lp620
g62
(g63
g64
NtRp621
(dp622
g67
(dp623
g75
I3
ssg76
g617
sg69
(lp624
S''
asbasbasbag62
(g78
g64
NtRp625
(dp626
g67
(dp627
sg76
g481
sg69
(lp628
g62
(g83
g64
NtRp629
(dp630
g67
(dp631
g87
g88
ssg76
g625
sg69
(lp632
g446
asbag62
(g83
g64
NtRp633
(dp634
g67
(dp635
g94
g95
ssg76
g625
sg69
(lp636
S':'
asbag62
(g83
g64
NtRp637
(dp638
g67
(dp639
sg76
g625
sg69
(lp640
g62
(g63
g64
NtRp641
(dp642
g67
(dp643
g75
I3
ssg76
g637
sg69
(lp644
S''
asbasbasbasbasbasbasbag62
(g78
g64
NtRp645
(dp646
g67
(dp647
sg76
g261
sg69
(lp648
g62
(g83
g64
NtRp649
(dp650
g67
(dp651
g87
g88
ssg76
g645
sg69
(lp652
S'session_id_geogebrainterface'
p653
asbag62
(g83
g64
NtRp654
(dp655
g67
(dp656
g94
g95
ssg76
g645
sg69
(lp657
S':'
asbag62
(g83
g64
NtRp658
(dp659
g67
(dp660
sg76
g645
sg69
(lp661
g62
(g63
g64
NtRp662
(dp663
g67
(dp664
g75
I4
ssg76
g658
sg69
(lp665
S'127.0.0.1-46d10ee9-e5d6-460d-b9ce-d929c702141a'
p666
ag62
(g71
g64
NtRp667
(dp668
g67
(dp669
g75
I3
ssg76
Nsg69
(lp670
g62
(g78
g64
NtRp671
(dp672
g67
(dp673
sg76
g667
sg69
(lp674
g62
(g83
g64
NtRp675
(dp676
g67
(dp677
g87
g88
ssg76
g671
sg69
(lp678
g299
asbag62
(g83
g64
NtRp679
(dp680
g67
(dp681
g94
g95
ssg76
g671
sg69
(lp682
S':'
asbag62
(g83
g64
NtRp683
(dp684
g67
(dp685
sg76
g671
sg69
(lp686
g62
(g63
g64
NtRp687
(dp688
g67
(dp689
g75
I3
ssg76
g683
sg69
(lp690
S''
asbasbasbag62
(g78
g64
NtRp691
(dp692
g67
(dp693
sg76
g667
sg69
(lp694
g62
(g83
g64
NtRp695
(dp696
g67
(dp697
g87
g88
ssg76
g691
sg69
(lp698
g320
asbag62
(g83
g64
NtRp699
(dp700
g67
(dp701
g94
g95
ssg76
g691
sg69
(lp702
S':'
asbag62
(g83
g64
NtRp703
(dp704
g67
(dp705
sg76
g691
sg69
(lp706
g62
(g63
g64
NtRp707
(dp708
g67
(dp709
g75
I3
ssg76
g703
sg69
(lp710
S''
asbasbasbag62
(g78
g64
NtRp711
(dp712
g67
(dp713
sg76
g667
sg69
(lp714
g62
(g83
g64
NtRp715
(dp716
g67
(dp717
g87
g88
ssg76
g711
sg69
(lp718
g341
asbag62
(g83
g64
NtRp719
(dp720
g67
(dp721
g94
g95
ssg76
g711
sg69
(lp722
S':'
asbag62
(g83
g64
NtRp723
(dp724
g67
(dp725
sg76
g711
sg69
(lp726
g62
(g63
g64
NtRp727
(dp728
g67
(dp729
g75
I3
ssg76
g723
sg69
(lp730
S''
asbasbasbag62
(g78
g64
NtRp731
(dp732
g67
(dp733
sg76
g667
sg69
(lp734
g62
(g83
g64
NtRp735
(dp736
g67
(dp737
g87
g88
ssg76
g731
sg69
(lp738
g362
asbag62
(g83
g64
NtRp739
(dp740
g67
(dp741
g94
g95
ssg76
g731
sg69
(lp742
S':'
asbag62
(g83
g64
NtRp743
(dp744
g67
(dp745
sg76
g731
sg69
(lp746
g62
(g63
g64
NtRp747
(dp748
g67
(dp749
g75
I3
ssg76
g743
sg69
(lp750
S''
asbasbasbag62
(g78
g64
NtRp751
(dp752
g67
(dp753
sg76
g667
sg69
(lp754
g62
(g83
g64
NtRp755
(dp756
g67
(dp757
g87
g88
ssg76
g751
sg69
(lp758
g383
asbag62
(g83
g64
NtRp759
(dp760
g67
(dp761
g94
g95
ssg76
g751
sg69
(lp762
S':'
asbag62
(g83
g64
NtRp763
(dp764
g67
(dp765
sg76
g751
sg69
(lp766
g62
(g63
g64
NtRp767
(dp768
g67
(dp769
g75
I3
ssg76
g763
sg69
(lp770
S''
asbasbasbag62
(g78
g64
NtRp771
(dp772
g67
(dp773
sg76
g667
sg69
(lp774
g62
(g83
g64
NtRp775
(dp776
g67
(dp777
g87
g88
ssg76
g771
sg69
(lp778
g404
asbag62
(g83
g64
NtRp779
(dp780
g67
(dp781
g94
g95
ssg76
g771
sg69
(lp782
S':'
asbag62
(g83
g64
NtRp783
(dp784
g67
(dp785
sg76
g771
sg69
(lp786
g62
(g63
g64
NtRp787
(dp788
g67
(dp789
g75
I3
ssg76
g783
sg69
(lp790
S''
asbasbasbag62
(g78
g64
NtRp791
(dp792
g67
(dp793
sg76
g667
sg69
(lp794
g62
(g83
g64
NtRp795
(dp796
g67
(dp797
g87
g88
ssg76
g791
sg69
(lp798
g425
asbag62
(g83
g64
NtRp799
(dp800
g67
(dp801
g94
g95
ssg76
g791
sg69
(lp802
S':'
asbag62
(g83
g64
NtRp803
(dp804
g67
(dp805
sg76
g791
sg69
(lp806
g62
(g63
g64
NtRp807
(dp808
g67
(dp809
g75
I3
ssg76
g803
sg69
(lp810
S''
asbasbasbag62
(g78
g64
NtRp811
(dp812
g67
(dp813
sg76
g667
sg69
(lp814
g62
(g83
g64
NtRp815
(dp816
g67
(dp817
g87
g88
ssg76
g811
sg69
(lp818
g446
asbag62
(g83
g64
NtRp819
(dp820
g67
(dp821
g94
g95
ssg76
g811
sg69
(lp822
S':'
asbag62
(g83
g64
NtRp823
(dp824
g67
(dp825
sg76
g811
sg69
(lp826
g62
(g63
g64
NtRp827
(dp828
g67
(dp829
g75
I3
ssg76
g823
sg69
(lp830
S''
asbasbasbasbasbasbasbag62
(g78
g64
NtRp831
(dp832
g67
(dp833
sg76
g261
sg69
(lp834
g62
(g83
g64
NtRp835
(dp836
g67
(dp837
g87
g88
ssg76
g831
sg69
(lp838
S'session_id_mobileinterface'
p839
asbag62
(g83
g64
NtRp840
(dp841
g67
(dp842
g94
g95
ssg76
g831
sg69
(lp843
S':'
asbag62
(g83
g64
NtRp844
(dp845
g67
(dp846
sg76
g831
sg69
(lp847
g62
(g63
g64
NtRp848
(dp849
g67
(dp850
g75
I4
ssg76
g844
sg69
(lp851
S'127.0.0.1-429e0887-8cde-4c72-a39b-ab60f8ccb9f8'
p852
ag62
(g71
g64
NtRp853
(dp854
g67
(dp855
g75
I3
ssg76
Nsg69
(lp856
g62
(g78
g64
NtRp857
(dp858
g67
(dp859
sg76
g853
sg69
(lp860
g62
(g83
g64
NtRp861
(dp862
g67
(dp863
g87
g88
ssg76
g857
sg69
(lp864
g299
asbag62
(g83
g64
NtRp865
(dp866
g67
(dp867
g94
g95
ssg76
g857
sg69
(lp868
S':'
asbag62
(g83
g64
NtRp869
(dp870
g67
(dp871
sg76
g857
sg69
(lp872
g62
(g63
g64
NtRp873
(dp874
g67
(dp875
g75
I3
ssg76
g869
sg69
(lp876
S''
asbasbasbag62
(g78
g64
NtRp877
(dp878
g67
(dp879
sg76
g853
sg69
(lp880
g62
(g83
g64
NtRp881
(dp882
g67
(dp883
g87
g88
ssg76
g877
sg69
(lp884
g320
asbag62
(g83
g64
NtRp885
(dp886
g67
(dp887
g94
g95
ssg76
g877
sg69
(lp888
S':'
asbag62
(g83
g64
NtRp889
(dp890
g67
(dp891
sg76
g877
sg69
(lp892
g62
(g63
g64
NtRp893
(dp894
g67
(dp895
g75
I3
ssg76
g889
sg69
(lp896
S''
asbasbasbag62
(g78
g64
NtRp897
(dp898
g67
(dp899
sg76
g853
sg69
(lp900
g62
(g83
g64
NtRp901
(dp902
g67
(dp903
g87
g88
ssg76
g897
sg69
(lp904
g341
asbag62
(g83
g64
NtRp905
(dp906
g67
(dp907
g94
g95
ssg76
g897
sg69
(lp908
S':'
asbag62
(g83
g64
NtRp909
(dp910
g67
(dp911
sg76
g897
sg69
(lp912
g62
(g63
g64
NtRp913
(dp914
g67
(dp915
g75
I3
ssg76
g909
sg69
(lp916
S''
asbasbasbag62
(g78
g64
NtRp917
(dp918
g67
(dp919
sg76
g853
sg69
(lp920
g62
(g83
g64
NtRp921
(dp922
g67
(dp923
g87
g88
ssg76
g917
sg69
(lp924
g362
asbag62
(g83
g64
NtRp925
(dp926
g67
(dp927
g94
g95
ssg76
g917
sg69
(lp928
S':'
asbag62
(g83
g64
NtRp929
(dp930
g67
(dp931
sg76
g917
sg69
(lp932
g62
(g63
g64
NtRp933
(dp934
g67
(dp935
g75
I3
ssg76
g929
sg69
(lp936
S''
asbasbasbag62
(g78
g64
NtRp937
(dp938
g67
(dp939
sg76
g853
sg69
(lp940
g62
(g83
g64
NtRp941
(dp942
g67
(dp943
g87
g88
ssg76
g937
sg69
(lp944
g383
asbag62
(g83
g64
NtRp945
(dp946
g67
(dp947
g94
g95
ssg76
g937
sg69
(lp948
S':'
asbag62
(g83
g64
NtRp949
(dp950
g67
(dp951
sg76
g937
sg69
(lp952
g62
(g63
g64
NtRp953
(dp954
g67
(dp955
g75
I3
ssg76
g949
sg69
(lp956
S''
asbasbasbag62
(g78
g64
NtRp957
(dp958
g67
(dp959
sg76
g853
sg69
(lp960
g62
(g83
g64
NtRp961
(dp962
g67
(dp963
g87
g88
ssg76
g957
sg69
(lp964
g404
asbag62
(g83
g64
NtRp965
(dp966
g67
(dp967
g94
g95
ssg76
g957
sg69
(lp968
S':'
asbag62
(g83
g64
NtRp969
(dp970
g67
(dp971
sg76
g957
sg69
(lp972
g62
(g63
g64
NtRp973
(dp974
g67
(dp975
g75
I3
ssg76
g969
sg69
(lp976
S''
asbasbasbag62
(g78
g64
NtRp977
(dp978
g67
(dp979
sg76
g853
sg69
(lp980
g62
(g83
g64
NtRp981
(dp982
g67
(dp983
g87
g88
ssg76
g977
sg69
(lp984
g425
asbag62
(g83
g64
NtRp985
(dp986
g67
(dp987
g94
g95
ssg76
g977
sg69
(lp988
S':'
asbag62
(g83
g64
NtRp989
(dp990
g67
(dp991
sg76
g977
sg69
(lp992
g62
(g63
g64
NtRp993
(dp994
g67
(dp995
g75
I3
ssg76
g989
sg69
(lp996
S''
asbasbasbag62
(g78
g64
NtRp997
(dp998
g67
(dp999
sg76
g853
sg69
(lp1000
g62
(g83
g64
NtRp1001
(dp1002
g67
(dp1003
g87
g88
ssg76
g997
sg69
(lp1004
g446
asbag62
(g83
g64
NtRp1005
(dp1006
g67
(dp1007
g94
g95
ssg76
g997
sg69
(lp1008
S':'
asbag62
(g83
g64
NtRp1009
(dp1010
g67
(dp1011
sg76
g997
sg69
(lp1012
g62
(g63
g64
NtRp1013
(dp1014
g67
(dp1015
g75
I3
ssg76
g1009
sg69
(lp1016
S''
asbasbasbasbasbasbasbag62
(g78
g64
NtRp1017
(dp1018
g67
(dp1019
sg76
g261
sg69
(lp1020
g62
(g83
g64
NtRp1021
(dp1022
g67
(dp1023
g87
g88
ssg76
g1017
sg69
(lp1024
S'session_id_welcome'
p1025
asbag62
(g83
g64
NtRp1026
(dp1027
g67
(dp1028
g94
g95
ssg76
g1017
sg69
(lp1029
S':'
asbag62
(g83
g64
NtRp1030
(dp1031
g67
(dp1032
sg76
g1017
sg69
(lp1033
g62
(g63
g64
NtRp1034
(dp1035
g67
(dp1036
g75
I4
ssg76
g1030
sg69
(lp1037
S'127.0.0.1-406c2727-b8ee-4551-a6bf-871ff0a38423'
p1038
ag62
(g71
g64
NtRp1039
(dp1040
g67
(dp1041
g75
I3
ssg76
Nsg69
(lp1042
g62
(g78
g64
NtRp1043
(dp1044
g67
(dp1045
sg76
g1039
sg69
(lp1046
g62
(g83
g64
NtRp1047
(dp1048
g67
(dp1049
g87
g88
ssg76
g1043
sg69
(lp1050
g299
asbag62
(g83
g64
NtRp1051
(dp1052
g67
(dp1053
g94
g95
ssg76
g1043
sg69
(lp1054
S':'
asbag62
(g83
g64
NtRp1055
(dp1056
g67
(dp1057
sg76
g1043
sg69
(lp1058
g62
(g63
g64
NtRp1059
(dp1060
g67
(dp1061
g75
I3
ssg76
g1055
sg69
(lp1062
S''
asbasbasbag62
(g78
g64
NtRp1063
(dp1064
g67
(dp1065
sg76
g1039
sg69
(lp1066
g62
(g83
g64
NtRp1067
(dp1068
g67
(dp1069
g87
g88
ssg76
g1063
sg69
(lp1070
g320
asbag62
(g83
g64
NtRp1071
(dp1072
g67
(dp1073
g94
g95
ssg76
g1063
sg69
(lp1074
S':'
asbag62
(g83
g64
NtRp1075
(dp1076
g67
(dp1077
sg76
g1063
sg69
(lp1078
g62
(g63
g64
NtRp1079
(dp1080
g67
(dp1081
g75
I3
ssg76
g1075
sg69
(lp1082
S''
asbasbasbag62
(g78
g64
NtRp1083
(dp1084
g67
(dp1085
sg76
g1039
sg69
(lp1086
g62
(g83
g64
NtRp1087
(dp1088
g67
(dp1089
g87
g88
ssg76
g1083
sg69
(lp1090
g341
asbag62
(g83
g64
NtRp1091
(dp1092
g67
(dp1093
g94
g95
ssg76
g1083
sg69
(lp1094
S':'
asbag62
(g83
g64
NtRp1095
(dp1096
g67
(dp1097
sg76
g1083
sg69
(lp1098
g62
(g63
g64
NtRp1099
(dp1100
g67
(dp1101
g75
I3
ssg76
g1095
sg69
(lp1102
S''
asbasbasbag62
(g78
g64
NtRp1103
(dp1104
g67
(dp1105
sg76
g1039
sg69
(lp1106
g62
(g83
g64
NtRp1107
(dp1108
g67
(dp1109
g87
g88
ssg76
g1103
sg69
(lp1110
g362
asbag62
(g83
g64
NtRp1111
(dp1112
g67
(dp1113
g94
g95
ssg76
g1103
sg69
(lp1114
S':'
asbag62
(g83
g64
NtRp1115
(dp1116
g67
(dp1117
sg76
g1103
sg69
(lp1118
g62
(g63
g64
NtRp1119
(dp1120
g67
(dp1121
g75
I3
ssg76
g1115
sg69
(lp1122
S''
asbasbasbag62
(g78
g64
NtRp1123
(dp1124
g67
(dp1125
sg76
g1039
sg69
(lp1126
g62
(g83
g64
NtRp1127
(dp1128
g67
(dp1129
g87
g88
ssg76
g1123
sg69
(lp1130
g383
asbag62
(g83
g64
NtRp1131
(dp1132
g67
(dp1133
g94
g95
ssg76
g1123
sg69
(lp1134
S':'
asbag62
(g83
g64
NtRp1135
(dp1136
g67
(dp1137
sg76
g1123
sg69
(lp1138
g62
(g63
g64
NtRp1139
(dp1140
g67
(dp1141
g75
I3
ssg76
g1135
sg69
(lp1142
S''
asbasbasbag62
(g78
g64
NtRp1143
(dp1144
g67
(dp1145
sg76
g1039
sg69
(lp1146
g62
(g83
g64
NtRp1147
(dp1148
g67
(dp1149
g87
g88
ssg76
g1143
sg69
(lp1150
g404
asbag62
(g83
g64
NtRp1151
(dp1152
g67
(dp1153
g94
g95
ssg76
g1143
sg69
(lp1154
S':'
asbag62
(g83
g64
NtRp1155
(dp1156
g67
(dp1157
sg76
g1143
sg69
(lp1158
g62
(g63
g64
NtRp1159
(dp1160
g67
(dp1161
g75
I3
ssg76
g1155
sg69
(lp1162
S''
asbasbasbag62
(g78
g64
NtRp1163
(dp1164
g67
(dp1165
sg76
g1039
sg69
(lp1166
g62
(g83
g64
NtRp1167
(dp1168
g67
(dp1169
g87
g88
ssg76
g1163
sg69
(lp1170
g425
asbag62
(g83
g64
NtRp1171
(dp1172
g67
(dp1173
g94
g95
ssg76
g1163
sg69
(lp1174
S':'
asbag62
(g83
g64
NtRp1175
(dp1176
g67
(dp1177
sg76
g1163
sg69
(lp1178
g62
(g63
g64
NtRp1179
(dp1180
g67
(dp1181
g75
I3
ssg76
g1175
sg69
(lp1182
S''
asbasbasbag62
(g78
g64
NtRp1183
(dp1184
g67
(dp1185
sg76
g1039
sg69
(lp1186
g62
(g83
g64
NtRp1187
(dp1188
g67
(dp1189
g87
g88
ssg76
g1183
sg69
(lp1190
g446
asbag62
(g83
g64
NtRp1191
(dp1192
g67
(dp1193
g94
g95
ssg76
g1183
sg69
(lp1194
S':'
asbag62
(g83
g64
NtRp1195
(dp1196
g67
(dp1197
sg76
g1183
sg69
(lp1198
g62
(g63
g64
NtRp1199
(dp1200
g67
(dp1201
g75
I3
ssg76
g1195
sg69
(lp1202
S''
asbasbasbasbasbasbasbasbasbasbasbag62
(g78
g64
NtRp1203
(dp1204
g67
(dp1205
sg76
g72
sg69
(lp1206
g62
(g83
g64
NtRp1207
(dp1208
g67
(dp1209
g87
g88
ssg76
g1203
sg69
(lp1210
S'env'
p1211
asbag62
(g83
g64
NtRp1212
(dp1213
g67
(dp1214
g94
g95
ssg76
g1203
sg69
(lp1215
S':'
asbag62
(g83
g64
NtRp1216
(dp1217
g67
(dp1218
sg76
g1203
sg69
(lp1219
g62
(g63
g64
NtRp1220
(dp1221
g67
(dp1222
g75
I5
ssg76
g1216
sg69
(lp1223
g62
(g71
g64
NtRp1224
(dp1225
g67
(dp1226
g75
I4
ssg76
Nsg69
(lp1227
g62
(g78
g64
NtRp1228
(dp1229
g67
(dp1230
sg76
g1224
sg69
(lp1231
g62
(g83
g64
NtRp1232
(dp1233
g67
(dp1234
g87
g88
ssg76
g1228
sg69
(lp1235
S'app_folders'
p1236
asbag62
(g83
g64
NtRp1237
(dp1238
g67
(dp1239
g94
g95
ssg76
g1228
sg69
(lp1240
S':'
asbag62
(g83
g64
NtRp1241
(dp1242
g67
(dp1243
sg76
g1228
sg69
(lp1244
g62
(g63
g64
NtRp1245
(dp1246
g67
(dp1247
g75
I4
ssg76
g1241
sg69
(lp1248
S"set(['/Users/victorgirotto/Desktop/web2py-master/applications/MobileInterface/', '/Users/victorgirotto/Desktop/web2py-master/applications/welcome/', '/Users/victorgirotto/Desktop/web2py-master/applications/CartesianPlane/', '/Users/victorgirotto/Desktop/web2py-master/applications/GeogebraInterface/', '/Users/victorgirotto/Desktop/web2py-master/applications/admin/'])"
p1249
asbasbasbag62
(g78
g64
NtRp1250
(dp1251
g67
(dp1252
sg76
g1224
sg69
(lp1253
g62
(g83
g64
NtRp1254
(dp1255
g67
(dp1256
g87
g88
ssg76
g1250
sg69
(lp1257
S'applications_parent'
p1258
asbag62
(g83
g64
NtRp1259
(dp1260
g67
(dp1261
g94
g95
ssg76
g1250
sg69
(lp1262
S':'
asbag62
(g83
g64
NtRp1263
(dp1264
g67
(dp1265
sg76
g1250
sg69
(lp1266
g62
(g63
g64
NtRp1267
(dp1268
g67
(dp1269
g75
I4
ssg76
g1263
sg69
(lp1270
S'/Users/victorgirotto/Desktop/web2py-master'
p1271
asbasbasbag62
(g78
g64
NtRp1272
(dp1273
g67
(dp1274
sg76
g1224
sg69
(lp1275
g62
(g83
g64
NtRp1276
(dp1277
g67
(dp1278
g87
g88
ssg76
g1272
sg69
(lp1279
S'cmd_args'
p1280
asbag62
(g83
g64
NtRp1281
(dp1282
g67
(dp1283
g94
g95
ssg76
g1272
sg69
(lp1284
S':'
asbag62
(g83
g64
NtRp1285
(dp1286
g67
(dp1287
sg76
g1272
sg69
(lp1288
g62
(g63
g64
NtRp1289
(dp1290
g67
(dp1291
g75
I4
ssg76
g1285
sg69
(lp1292
g62
(g71
g64
NtRp1293
(dp1294
g67
(dp1295
g75
I3
ssg76
Nsg69
(lp1296
sbasbasbasbag62
(g78
g64
NtRp1297
(dp1298
g67
(dp1299
sg76
g1224
sg69
(lp1300
g62
(g83
g64
NtRp1301
(dp1302
g67
(dp1303
g87
g88
ssg76
g1297
sg69
(lp1304
S'cmd_options'
p1305
asbag62
(g83
g64
NtRp1306
(dp1307
g67
(dp1308
g94
g95
ssg76
g1297
sg69
(lp1309
S':'
asbag62
(g83
g64
NtRp1310
(dp1311
g67
(dp1312
sg76
g1297
sg69
(lp1313
g62
(g63
g64
NtRp1314
(dp1315
g67
(dp1316
g75
I4
ssg76
g1310
sg69
(lp1317
S"<Values at 0x10705ccb0: {'verbose': False, 'ip': '127.0.0.1', 'with_scheduler': False, 'ips': ['10.211.55.2', '10.37.129.2', '10.142.224.219'], 'shutdown_timeout': 5, 'taskbar': False, 'port': 8000, 'maxthreads': None, 'softcron': False, 'server_name': 'MacBook-Pro-de-Victor.local', 'bpython': False, 'nogui': False, 'pid_filename': 'httpserver.pid', 'extcron': False, 'runcron': False, 'run_system_tests': False, 'test': None, 'folder': '/Users/victorgirotto/Desktop/web2py-master', 'config': '', 'minthreads': None, 'winservice': '', 'shell': None, 'run': '', 'log_filename': 'httpserver.log', 'debuglevel': 30, 'args': [''], 'socket_timeout': 5, 'ssl_ca_certificate': None, 'scheduler': None, 'profiler_filename': None, 'ssl_private_key': '', 'scheduler_groups': None, 'password': '<ask>', 'request_queue_size': 5, 'ssl_certificate': '', 'cronjob': False, 'numthreads': None, 'quiet': False, 'interfaces': None, 'import_models': False, 'timeout': 10, 'plain': False, 'nobanner': False}>"
p1318
asbasbasbag62
(g78
g64
NtRp1319
(dp1320
g67
(dp1321
sg76
g1224
sg69
(lp1322
g62
(g83
g64
NtRp1323
(dp1324
g67
(dp1325
g87
g88
ssg76
g1319
sg69
(lp1326
S'db_sessions'
p1327
asbag62
(g83
g64
NtRp1328
(dp1329
g67
(dp1330
g94
g95
ssg76
g1319
sg69
(lp1331
S':'
asbag62
(g83
g64
NtRp1332
(dp1333
g67
(dp1334
sg76
g1319
sg69
(lp1335
g62
(g63
g64
NtRp1336
(dp1337
g67
(dp1338
g75
I4
ssg76
g1332
sg69
(lp1339
S'set([])'
p1340
asbasbasbag62
(g78
g64
NtRp1341
(dp1342
g67
(dp1343
sg76
g1224
sg69
(lp1344
g62
(g83
g64
NtRp1345
(dp1346
g67
(dp1347
g87
g88
ssg76
g1341
sg69
(lp1348
S'debugging'
p1349
asbag62
(g83
g64
NtRp1350
(dp1351
g67
(dp1352
g94
g95
ssg76
g1341
sg69
(lp1353
S':'
asbag62
(g83
g64
NtRp1354
(dp1355
g67
(dp1356
sg76
g1341
sg69
(lp1357
g62
(g63
g64
NtRp1358
(dp1359
g67
(dp1360
g75
I4
ssg76
g1354
sg69
(lp1361
g105
asbasbasbag62
(g78
g64
NtRp1362
(dp1363
g67
(dp1364
sg76
g1224
sg69
(lp1365
g62
(g83
g64
NtRp1366
(dp1367
g67
(dp1368
g87
g88
ssg76
g1362
sg69
(lp1369
S'gluon_parent'
p1370
asbag62
(g83
g64
NtRp1371
(dp1372
g67
(dp1373
g94
g95
ssg76
g1362
sg69
(lp1374
S':'
asbag62
(g83
g64
NtRp1375
(dp1376
g67
(dp1377
sg76
g1362
sg69
(lp1378
g62
(g63
g64
NtRp1379
(dp1380
g67
(dp1381
g75
I4
ssg76
g1375
sg69
(lp1382
S'/Users/victorgirotto/Desktop/web2py-master'
p1383
asbasbasbag62
(g78
g64
NtRp1384
(dp1385
g67
(dp1386
sg76
g1224
sg69
(lp1387
g62
(g83
g64
NtRp1388
(dp1389
g67
(dp1390
g87
g88
ssg76
g1384
sg69
(lp1391
S'http_accept'
p1392
asbag62
(g83
g64
NtRp1393
(dp1394
g67
(dp1395
g94
g95
ssg76
g1384
sg69
(lp1396
S':'
asbag62
(g83
g64
NtRp1397
(dp1398
g67
(dp1399
sg76
g1384
sg69
(lp1400
g62
(g63
g64
NtRp1401
(dp1402
g67
(dp1403
g75
I4
ssg76
g1397
sg69
(lp1404
S'text/html,application/xhtml+xml,application/xml;q=0.9,*/*;q=0.8'
p1405
asbasbasbag62
(g78
g64
NtRp1406
(dp1407
g67
(dp1408
sg76
g1224
sg69
(lp1409
g62
(g83
g64
NtRp1410
(dp1411
g67
(dp1412
g87
g88
ssg76
g1406
sg69
(lp1413
S'http_accept_encoding'
p1414
asbag62
(g83
g64
NtRp1415
(dp1416
g67
(dp1417
g94
g95
ssg76
g1406
sg69
(lp1418
S':'
asbag62
(g83
g64
NtRp1419
(dp1420
g67
(dp1421
sg76
g1406
sg69
(lp1422
g62
(g63
g64
NtRp1423
(dp1424
g67
(dp1425
g75
I4
ssg76
g1419
sg69
(lp1426
S'gzip, deflate'
p1427
asbasbasbag62
(g78
g64
NtRp1428
(dp1429
g67
(dp1430
sg76
g1224
sg69
(lp1431
g62
(g83
g64
NtRp1432
(dp1433
g67
(dp1434
g87
g88
ssg76
g1428
sg69
(lp1435
S'http_accept_language'
p1436
asbag62
(g83
g64
NtRp1437
(dp1438
g67
(dp1439
g94
g95
ssg76
g1428
sg69
(lp1440
S':'
asbag62
(g83
g64
NtRp1441
(dp1442
g67
(dp1443
sg76
g1428
sg69
(lp1444
g62
(g63
g64
NtRp1445
(dp1446
g67
(dp1447
g75
I4
ssg76
g1441
sg69
(lp1448
S'pt-br'
p1449
asbasbasbag62
(g78
g64
NtRp1450
(dp1451
g67
(dp1452
sg76
g1224
sg69
(lp1453
g62
(g83
g64
NtRp1454
(dp1455
g67
(dp1456
g87
g88
ssg76
g1450
sg69
(lp1457
S'http_cache_control'
p1458
asbag62
(g83
g64
NtRp1459
(dp1460
g67
(dp1461
g94
g95
ssg76
g1450
sg69
(lp1462
S':'
asbag62
(g83
g64
NtRp1463
(dp1464
g67
(dp1465
sg76
g1450
sg69
(lp1466
g62
(g63
g64
NtRp1467
(dp1468
g67
(dp1469
g75
I4
ssg76
g1463
sg69
(lp1470
S'max-age=0'
p1471
asbasbasbag62
(g78
g64
NtRp1472
(dp1473
g67
(dp1474
sg76
g1224
sg69
(lp1475
g62
(g83
g64
NtRp1476
(dp1477
g67
(dp1478
g87
g88
ssg76
g1472
sg69
(lp1479
S'http_connection'
p1480
asbag62
(g83
g64
NtRp1481
(dp1482
g67
(dp1483
g94
g95
ssg76
g1472
sg69
(lp1484
S':'
asbag62
(g83
g64
NtRp1485
(dp1486
g67
(dp1487
sg76
g1472
sg69
(lp1488
g62
(g63
g64
NtRp1489
(dp1490
g67
(dp1491
g75
I4
ssg76
g1485
sg69
(lp1492
S'keep-alive'
p1493
asbasbasbag62
(g78
g64
NtRp1494
(dp1495
g67
(dp1496
sg76
g1224
sg69
(lp1497
g62
(g83
g64
NtRp1498
(dp1499
g67
(dp1500
g87
g88
ssg76
g1494
sg69
(lp1501
S'http_cookie'
p1502
asbag62
(g83
g64
NtRp1503
(dp1504
g67
(dp1505
g94
g95
ssg76
g1494
sg69
(lp1506
S':'
asbag62
(g83
g64
NtRp1507
(dp1508
g67
(dp1509
sg76
g1494
sg69
(lp1510
g62
(g63
g64
NtRp1511
(dp1512
g67
(dp1513
g75
I4
ssg76
g1507
sg69
(lp1514
S'session_id_admin=127.0.0.1-a7fdf2f3-ac80-4d35-8b63-06907936ff34; session_id_cartesianplane=127.0.0.1-992cdbcb-1606-456a-9718-5f1d21463d11; session_id_mobileinterface=127.0.0.1-429e0887-8cde-4c72-a39b-ab60f8ccb9f8; session_id_welcome=127.0.0.1-406c2727-b8ee-4551-a6bf-871ff0a38423; session_id_geogebrainterface=127.0.0.1-46d10ee9-e5d6-460d-b9ce-d929c702141a'
p1515
asbasbasbag62
(g78
g64
NtRp1516
(dp1517
g67
(dp1518
sg76
g1224
sg69
(lp1519
g62
(g83
g64
NtRp1520
(dp1521
g67
(dp1522
g87
g88
ssg76
g1516
sg69
(lp1523
S'http_host'
p1524
asbag62
(g83
g64
NtRp1525
(dp1526
g67
(dp1527
g94
g95
ssg76
g1516
sg69
(lp1528
S':'
asbag62
(g83
g64
NtRp1529
(dp1530
g67
(dp1531
sg76
g1516
sg69
(lp1532
g62
(g63
g64
NtRp1533
(dp1534
g67
(dp1535
g75
I4
ssg76
g1529
sg69
(lp1536
S'localhost:8000'
p1537
asbasbasbag62
(g78
g64
NtRp1538
(dp1539
g67
(dp1540
sg76
g1224
sg69
(lp1541
g62
(g83
g64
NtRp1542
(dp1543
g67
(dp1544
g87
g88
ssg76
g1538
sg69
(lp1545
S'http_user_agent'
p1546
asbag62
(g83
g64
NtRp1547
(dp1548
g67
(dp1549
g94
g95
ssg76
g1538
sg69
(lp1550
S':'
asbag62
(g83
g64
NtRp1551
(dp1552
g67
(dp1553
sg76
g1538
sg69
(lp1554
g62
(g63
g64
NtRp1555
(dp1556
g67
(dp1557
g75
I4
ssg76
g1551
sg69
(lp1558
S'Mozilla/5.0 (Macintosh; Intel Mac OS X 10_8_2) AppleWebKit/536.26.17 (KHTML, like Gecko) Version/6.0.2 Safari/536.26.17'
p1559
asbasbasbag62
(g78
g64
NtRp1560
(dp1561
g67
(dp1562
sg76
g1224
sg69
(lp1563
g62
(g83
g64
NtRp1564
(dp1565
g67
(dp1566
g87
g88
ssg76
g1560
sg69
(lp1567
S'is_jython'
p1568
asbag62
(g83
g64
NtRp1569
(dp1570
g67
(dp1571
g94
g95
ssg76
g1560
sg69
(lp1572
S':'
asbag62
(g83
g64
NtRp1573
(dp1574
g67
(dp1575
sg76
g1560
sg69
(lp1576
g62
(g63
g64
NtRp1577
(dp1578
g67
(dp1579
g75
I4
ssg76
g1573
sg69
(lp1580
g105
asbasbasbag62
(g78
g64
NtRp1581
(dp1582
g67
(dp1583
sg76
g1224
sg69
(lp1584
g62
(g83
g64
NtRp1585
(dp1586
g67
(dp1587
g87
g88
ssg76
g1581
sg69
(lp1588
S'is_pypy'
p1589
asbag62
(g83
g64
NtRp1590
(dp1591
g67
(dp1592
g94
g95
ssg76
g1581
sg69
(lp1593
S':'
asbag62
(g83
g64
NtRp1594
(dp1595
g67
(dp1596
sg76
g1581
sg69
(lp1597
g62
(g63
g64
NtRp1598
(dp1599
g67
(dp1600
g75
I4
ssg76
g1594
sg69
(lp1601
g105
asbasbasbag62
(g78
g64
NtRp1602
(dp1603
g67
(dp1604
sg76
g1224
sg69
(lp1605
g62
(g83
g64
NtRp1606
(dp1607
g67
(dp1608
g87
g88
ssg76
g1602
sg69
(lp1609
S'local_hosts'
p1610
asbag62
(g83
g64
NtRp1611
(dp1612
g67
(dp1613
g94
g95
ssg76
g1602
sg69
(lp1614
S':'
asbag62
(g83
g64
NtRp1615
(dp1616
g67
(dp1617
sg76
g1602
sg69
(lp1618
g62
(g63
g64
NtRp1619
(dp1620
g67
(dp1621
g75
I4
ssg76
g1615
sg69
(lp1622
g62
(g71
g64
NtRp1623
(dp1624
g67
(dp1625
g75
I3
ssg76
Nsg69
(lp1626
g62
(g78
g64
NtRp1627
(dp1628
g67
(dp1629
sg76
g1623
sg69
(lp1630
g62
(g83
g64
NtRp1631
(dp1632
g67
(dp1633
sg76
g1627
sg69
(lp1634
g62
(g63
g64
NtRp1635
(dp1636
g67
(dp1637
g75
I3
ssg76
g1631
sg69
(lp1638
S'127.0.0.1'
p1639
asbasbasbag62
(g78
g64
NtRp1640
(dp1641
g67
(dp1642
sg76
g1623
sg69
(lp1643
g62
(g83
g64
NtRp1644
(dp1645
g67
(dp1646
sg76
g1640
sg69
(lp1647
g62
(g63
g64
NtRp1648
(dp1649
g67
(dp1650
g75
I3
ssg76
g1644
sg69
(lp1651
S'::ffff:127.0.0.1'
p1652
asbasbasbag62
(g78
g64
NtRp1653
(dp1654
g67
(dp1655
sg76
g1623
sg69
(lp1656
g62
(g83
g64
NtRp1657
(dp1658
g67
(dp1659
sg76
g1653
sg69
(lp1660
g62
(g63
g64
NtRp1661
(dp1662
g67
(dp1663
g75
I3
ssg76
g1657
sg69
(lp1664
S'MacBook-Pro-de-Victor.local'
p1665
asbasbasbag62
(g78
g64
NtRp1666
(dp1667
g67
(dp1668
sg76
g1623
sg69
(lp1669
g62
(g83
g64
NtRp1670
(dp1671
g67
(dp1672
sg76
g1666
sg69
(lp1673
g62
(g63
g64
NtRp1674
(dp1675
g67
(dp1676
g75
I3
ssg76
g1670
sg69
(lp1677
S'MacBook-Pro-de-Victor.local'
p1678
asbasbasbag62
(g78
g64
NtRp1679
(dp1680
g67
(dp1681
sg76
g1623
sg69
(lp1682
g62
(g83
g64
NtRp1683
(dp1684
g67
(dp1685
sg76
g1679
sg69
(lp1686
g62
(g63
g64
NtRp1687
(dp1688
g67
(dp1689
g75
I3
ssg76
g1683
sg69
(lp1690
S'10.211.55.2'
p1691
asbasbasbasbasbasbasbag62
(g78
g64
NtRp1692
(dp1693
g67
(dp1694
sg76
g1224
sg69
(lp1695
g62
(g83
g64
NtRp1696
(dp1697
g67
(dp1698
g87
g88
ssg76
g1692
sg69
(lp1699
S'path_info'
p1700
asbag62
(g83
g64
NtRp1701
(dp1702
g67
(dp1703
g94
g95
ssg76
g1692
sg69
(lp1704
S':'
asbag62
(g83
g64
NtRp1705
(dp1706
g67
(dp1707
sg76
g1692
sg69
(lp1708
g62
(g63
g64
NtRp1709
(dp1710
g67
(dp1711
g75
I4
ssg76
g1705
sg69
(lp1712
S'/CartesianPlane/default/applet'
p1713
asbasbasbag62
(g78
g64
NtRp1714
(dp1715
g67
(dp1716
sg76
g1224
sg69
(lp1717
g62
(g83
g64
NtRp1718
(dp1719
g67
(dp1720
g87
g88
ssg76
g1714
sg69
(lp1721
S'query_string'
p1722
asbag62
(g83
g64
NtRp1723
(dp1724
g67
(dp1725
g94
g95
ssg76
g1714
sg69
(lp1726
S':'
asbag62
(g83
g64
NtRp1727
(dp1728
g67
(dp1729
sg76
g1714
sg69
(lp1730
g62
(g63
g64
NtRp1731
(dp1732
g67
(dp1733
g75
I4
ssg76
g1727
sg69
(lp1734
S''
asbasbasbag62
(g78
g64
NtRp1735
(dp1736
g67
(dp1737
sg76
g1224
sg69
(lp1738
g62
(g83
g64
NtRp1739
(dp1740
g67
(dp1741
g87
g88
ssg76
g1735
sg69
(lp1742
S'remote_addr'
p1743
asbag62
(g83
g64
NtRp1744
(dp1745
g67
(dp1746
g94
g95
ssg76
g1735
sg69
(lp1747
S':'
asbag62
(g83
g64
NtRp1748
(dp1749
g67
(dp1750
sg76
g1735
sg69
(lp1751
g62
(g63
g64
NtRp1752
(dp1753
g67
(dp1754
g75
I4
ssg76
g1748
sg69
(lp1755
g217
asbasbasbag62
(g78
g64
NtRp1756
(dp1757
g67
(dp1758
sg76
g1224
sg69
(lp1759
g62
(g83
g64
NtRp1760
(dp1761
g67
(dp1762
g87
g88
ssg76
g1756
sg69
(lp1763
S'remote_port'
p1764
asbag62
(g83
g64
NtRp1765
(dp1766
g67
(dp1767
g94
g95
ssg76
g1756
sg69
(lp1768
S':'
asbag62
(g83
g64
NtRp1769
(dp1770
g67
(dp1771
sg76
g1756
sg69
(lp1772
g62
(g63
g64
NtRp1773
(dp1774
g67
(dp1775
g75
I4
ssg76
g1769
sg69
(lp1776
S'57247'
p1777
asbasbasbag62
(g78
g64
NtRp1778
(dp1779
g67
(dp1780
sg76
g1224
sg69
(lp1781
g62
(g83
g64
NtRp1782
(dp1783
g67
(dp1784
g87
g88
ssg76
g1778
sg69
(lp1785
S'request_method'
p1786
asbag62
(g83
g64
NtRp1787
(dp1788
g67
(dp1789
g94
g95
ssg76
g1778
sg69
(lp1790
S':'
asbag62
(g83
g64
NtRp1791
(dp1792
g67
(dp1793
sg76
g1778
sg69
(lp1794
g62
(g63
g64
NtRp1795
(dp1796
g67
(dp1797
g75
I4
ssg76
g1791
sg69
(lp1798
S'GET'
p1799
asbasbasbag62
(g78
g64
NtRp1800
(dp1801
g67
(dp1802
sg76
g1224
sg69
(lp1803
g62
(g83
g64
NtRp1804
(dp1805
g67
(dp1806
g87
g88
ssg76
g1800
sg69
(lp1807
S'request_uri'
p1808
asbag62
(g83
g64
NtRp1809
(dp1810
g67
(dp1811
g94
g95
ssg76
g1800
sg69
(lp1812
S':'
asbag62
(g83
g64
NtRp1813
(dp1814
g67
(dp1815
sg76
g1800
sg69
(lp1816
g62
(g63
g64
NtRp1817
(dp1818
g67
(dp1819
g75
I4
ssg76
g1813
sg69
(lp1820
g1713
asbasbasbag62
(g78
g64
NtRp1821
(dp1822
g67
(dp1823
sg76
g1224
sg69
(lp1824
g62
(g83
g64
NtRp1825
(dp1826
g67
(dp1827
g87
g88
ssg76
g1821
sg69
(lp1828
S'script_name'
p1829
asbag62
(g83
g64
NtRp1830
(dp1831
g67
(dp1832
g94
g95
ssg76
g1821
sg69
(lp1833
S':'
asbag62
(g83
g64
NtRp1834
(dp1835
g67
(dp1836
sg76
g1821
sg69
(lp1837
g62
(g63
g64
NtRp1838
(dp1839
g67
(dp1840
g75
I4
ssg76
g1834
sg69
(lp1841
S''
asbasbasbag62
(g78
g64
NtRp1842
(dp1843
g67
(dp1844
sg76
g1224
sg69
(lp1845
g62
(g83
g64
NtRp1846
(dp1847
g67
(dp1848
g87
g88
ssg76
g1842
sg69
(lp1849
S'server_name'
p1850
asbag62
(g83
g64
NtRp1851
(dp1852
g67
(dp1853
g94
g95
ssg76
g1842
sg69
(lp1854
S':'
asbag62
(g83
g64
NtRp1855
(dp1856
g67
(dp1857
sg76
g1842
sg69
(lp1858
g62
(g63
g64
NtRp1859
(dp1860
g67
(dp1861
g75
I4
ssg76
g1855
sg69
(lp1862
g1678
asbasbasbag62
(g78
g64
NtRp1863
(dp1864
g67
(dp1865
sg76
g1224
sg69
(lp1866
g62
(g83
g64
NtRp1867
(dp1868
g67
(dp1869
g87
g88
ssg76
g1863
sg69
(lp1870
S'server_port'
p1871
asbag62
(g83
g64
NtRp1872
(dp1873
g67
(dp1874
g94
g95
ssg76
g1863
sg69
(lp1875
S':'
asbag62
(g83
g64
NtRp1876
(dp1877
g67
(dp1878
sg76
g1863
sg69
(lp1879
g62
(g63
g64
NtRp1880
(dp1881
g67
(dp1882
g75
I4
ssg76
g1876
sg69
(lp1883
S'8000'
p1884
asbasbasbag62
(g78
g64
NtRp1885
(dp1886
g67
(dp1887
sg76
g1224
sg69
(lp1888
g62
(g83
g64
NtRp1889
(dp1890
g67
(dp1891
g87
g88
ssg76
g1885
sg69
(lp1892
S'server_protocol'
p1893
asbag62
(g83
g64
NtRp1894
(dp1895
g67
(dp1896
g94
g95
ssg76
g1885
sg69
(lp1897
S':'
asbag62
(g83
g64
NtRp1898
(dp1899
g67
(dp1900
sg76
g1885
sg69
(lp1901
g62
(g63
g64
NtRp1902
(dp1903
g67
(dp1904
g75
I4
ssg76
g1898
sg69
(lp1905
S'HTTP/1.1'
p1906
asbasbasbag62
(g78
g64
NtRp1907
(dp1908
g67
(dp1909
sg76
g1224
sg69
(lp1910
g62
(g83
g64
NtRp1911
(dp1912
g67
(dp1913
g87
g88
ssg76
g1907
sg69
(lp1914
S'server_software'
p1915
asbag62
(g83
g64
NtRp1916
(dp1917
g67
(dp1918
g94
g95
ssg76
g1907
sg69
(lp1919
S':'
asbag62
(g83
g64
NtRp1920
(dp1921
g67
(dp1922
sg76
g1907
sg69
(lp1923
g62
(g63
g64
NtRp1924
(dp1925
g67
(dp1926
g75
I4
ssg76
g1920
sg69
(lp1927
S'Rocket 1.2.5'
p1928
asbasbasbag62
(g78
g64
NtRp1929
(dp1930
g67
(dp1931
sg76
g1224
sg69
(lp1932
g62
(g83
g64
NtRp1933
(dp1934
g67
(dp1935
g87
g88
ssg76
g1929
sg69
(lp1936
S'web2py_path'
p1937
asbag62
(g83
g64
NtRp1938
(dp1939
g67
(dp1940
g94
g95
ssg76
g1929
sg69
(lp1941
S':'
asbag62
(g83
g64
NtRp1942
(dp1943
g67
(dp1944
sg76
g1929
sg69
(lp1945
g62
(g63
g64
NtRp1946
(dp1947
g67
(dp1948
g75
I4
ssg76
g1942
sg69
(lp1949
g1271
asbasbasbag62
(g78
g64
NtRp1950
(dp1951
g67
(dp1952
sg76
g1224
sg69
(lp1953
g62
(g83
g64
NtRp1954
(dp1955
g67
(dp1956
g87
g88
ssg76
g1950
sg69
(lp1957
S'web2py_version'
p1958
asbag62
(g83
g64
NtRp1959
(dp1960
g67
(dp1961
g94
g95
ssg76
g1950
sg69
(lp1962
S':'
asbag62
(g83
g64
NtRp1963
(dp1964
g67
(dp1965
sg76
g1950
sg69
(lp1966
g62
(g63
g64
NtRp1967
(dp1968
g67
(dp1969
g75
I4
ssg76
g1963
sg69
(lp1970
g62
(g71
g64
NtRp1971
(dp1972
g67
(dp1973
g75
I3
ssg76
Nsg69
(lp1974
g62
(g78
g64
NtRp1975
(dp1976
g67
(dp1977
sg76
g1971
sg69
(lp1978
g62
(g83
g64
NtRp1979
(dp1980
g67
(dp1981
sg76
g1975
sg69
(lp1982
g62
(g63
g64
NtRp1983
(dp1984
g67
(dp1985
g75
I3
ssg76
g1979
sg69
(lp1986
S'2'
asbasbasbag62
(g78
g64
NtRp1987
(dp1988
g67
(dp1989
sg76
g1971
sg69
(lp1990
g62
(g83
g64
NtRp1991
(dp1992
g67
(dp1993
sg76
g1987
sg69
(lp1994
g62
(g63
g64
NtRp1995
(dp1996
g67
(dp1997
g75
I3
ssg76
g1991
sg69
(lp1998
S'2'
asbasbasbag62
(g78
g64
NtRp1999
(dp2000
g67
(dp2001
sg76
g1971
sg69
(lp2002
g62
(g83
g64
NtRp2003
(dp2004
g67
(dp2005
sg76
g1999
sg69
(lp2006
g62
(g63
g64
NtRp2007
(dp2008
g67
(dp2009
g75
I3
ssg76
g2003
sg69
(lp2010
S'1'
asbasbasbag62
(g78
g64
NtRp2011
(dp2012
g67
(dp2013
sg76
g1971
sg69
(lp2014
g62
(g83
g64
NtRp2015
(dp2016
g67
(dp2017
sg76
g2011
sg69
(lp2018
g62
(g63
g64
NtRp2019
(dp2020
g67
(dp2021
g75
I3
ssg76
g2015
sg69
(lp2022
S'datetime.datetime(2012, 11, 4, 20, 45, 19)'
p2023
asbasbasbag62
(g78
g64
NtRp2024
(dp2025
g67
(dp2026
sg76
g1971
sg69
(lp2027
g62
(g83
g64
NtRp2028
(dp2029
g67
(dp2030
sg76
g2024
sg69
(lp2031
g62
(g63
g64
NtRp2032
(dp2033
g67
(dp2034
g75
I3
ssg76
g2028
sg69
(lp2035
S'stable'
p2036
asbasbasbasbasbasbasbag62
(g78
g64
NtRp2037
(dp2038
g67
(dp2039
sg76
g1224
sg69
(lp2040
g62
(g83
g64
NtRp2041
(dp2042
g67
(dp2043
g87
g88
ssg76
g2037
sg69
(lp2044
S'wsgi_errors'
p2045
asbag62
(g83
g64
NtRp2046
(dp2047
g67
(dp2048
g94
g95
ssg76
g2037
sg69
(lp2049
S':'
asbag62
(g83
g64
NtRp2050
(dp2051
g67
(dp2052
sg76
g2037
sg69
(lp2053
g62
(g63
g64
NtRp2054
(dp2055
g67
(dp2056
g75
I4
ssg76
g2050
sg69
(lp2057
S"<open file '<stderr>', mode 'w' at 0x10628b270>"
p2058
asbasbasbag62
(g78
g64
NtRp2059
(dp2060
g67
(dp2061
sg76
g1224
sg69
(lp2062
g62
(g83
g64
NtRp2063
(dp2064
g67
(dp2065
g87
g88
ssg76
g2059
sg69
(lp2066
S'wsgi_file_wrapper'
p2067
asbag62
(g83
g64
NtRp2068
(dp2069
g67
(dp2070
g94
g95
ssg76
g2059
sg69
(lp2071
S':'
asbag62
(g83
g64
NtRp2072
(dp2073
g67
(dp2074
sg76
g2059
sg69
(lp2075
g62
(g63
g64
NtRp2076
(dp2077
g67
(dp2078
g75
I4
ssg76
g2072
sg69
(lp2079
S'<class wsgiref.util.FileWrapper at 0x106ffd9a8>'
p2080
asbasbasbag62
(g78
g64
NtRp2081
(dp2082
g67
(dp2083
sg76
g1224
sg69
(lp2084
g62
(g83
g64
NtRp2085
(dp2086
g67
(dp2087
g87
g88
ssg76
g2081
sg69
(lp2088
S'wsgi_input'
p2089
asbag62
(g83
g64
NtRp2090
(dp2091
g67
(dp2092
g94
g95
ssg76
g2081
sg69
(lp2093
S':'
asbag62
(g83
g64
NtRp2094
(dp2095
g67
(dp2096
sg76
g2081
sg69
(lp2097
g62
(g63
g64
NtRp2098
(dp2099
g67
(dp2100
g75
I4
ssg76
g2094
sg69
(lp2101
S'<socket._fileobject object at 0x10b7865d0>'
p2102
asbasbasbag62
(g78
g64
NtRp2103
(dp2104
g67
(dp2105
sg76
g1224
sg69
(lp2106
g62
(g83
g64
NtRp2107
(dp2108
g67
(dp2109
g87
g88
ssg76
g2103
sg69
(lp2110
S'wsgi_multiprocess'
p2111
asbag62
(g83
g64
NtRp2112
(dp2113
g67
(dp2114
g94
g95
ssg76
g2103
sg69
(lp2115
S':'
asbag62
(g83
g64
NtRp2116
(dp2117
g67
(dp2118
sg76
g2103
sg69
(lp2119
g62
(g63
g64
NtRp2120
(dp2121
g67
(dp2122
g75
I4
ssg76
g2116
sg69
(lp2123
g105
asbasbasbag62
(g78
g64
NtRp2124
(dp2125
g67
(dp2126
sg76
g1224
sg69
(lp2127
g62
(g83
g64
NtRp2128
(dp2129
g67
(dp2130
g87
g88
ssg76
g2124
sg69
(lp2131
S'wsgi_multithread'
p2132
asbag62
(g83
g64
NtRp2133
(dp2134
g67
(dp2135
g94
g95
ssg76
g2124
sg69
(lp2136
S':'
asbag62
(g83
g64
NtRp2137
(dp2138
g67
(dp2139
sg76
g2124
sg69
(lp2140
g62
(g63
g64
NtRp2141
(dp2142
g67
(dp2143
g75
I4
ssg76
g2137
sg69
(lp2144
S'True'
p2145
asbasbasbag62
(g78
g64
NtRp2146
(dp2147
g67
(dp2148
sg76
g1224
sg69
(lp2149
g62
(g83
g64
NtRp2150
(dp2151
g67
(dp2152
g87
g88
ssg76
g2146
sg69
(lp2153
S'wsgi_run_once'
p2154
asbag62
(g83
g64
NtRp2155
(dp2156
g67
(dp2157
g94
g95
ssg76
g2146
sg69
(lp2158
S':'
asbag62
(g83
g64
NtRp2159
(dp2160
g67
(dp2161
sg76
g2146
sg69
(lp2162
g62
(g63
g64
NtRp2163
(dp2164
g67
(dp2165
g75
I4
ssg76
g2159
sg69
(lp2166
g105
asbasbasbag62
(g78
g64
NtRp2167
(dp2168
g67
(dp2169
sg76
g1224
sg69
(lp2170
g62
(g83
g64
NtRp2171
(dp2172
g67
(dp2173
g87
g88
ssg76
g2167
sg69
(lp2174
S'wsgi_url_scheme'
p2175
asbag62
(g83
g64
NtRp2176
(dp2177
g67
(dp2178
g94
g95
ssg76
g2167
sg69
(lp2179
S':'
asbag62
(g83
g64
NtRp2180
(dp2181
g67
(dp2182
sg76
g2167
sg69
(lp2183
g62
(g63
g64
NtRp2184
(dp2185
g67
(dp2186
g75
I4
ssg76
g2180
sg69
(lp2187
S'http'
p2188
asbasbasbag62
(g78
g64
NtRp2189
(dp2190
g67
(dp2191
sg76
g1224
sg69
(lp2192
g62
(g83
g64
NtRp2193
(dp2194
g67
(dp2195
g87
g88
ssg76
g2189
sg69
(lp2196
S'wsgi_version'
p2197
asbag62
(g83
g64
NtRp2198
(dp2199
g67
(dp2200
g94
g95
ssg76
g2189
sg69
(lp2201
S':'
asbag62
(g83
g64
NtRp2202
(dp2203
g67
(dp2204
sg76
g2189
sg69
(lp2205
g62
(g63
g64
NtRp2206
(dp2207
g67
(dp2208
g75
I4
ssg76
g2202
sg69
(lp2209
g62
(g71
g64
NtRp2210
(dp2211
g67
(dp2212
g75
I3
ssg76
Nsg69
(lp2213
g62
(g78
g64
NtRp2214
(dp2215
g67
(dp2216
sg76
g2210
sg69
(lp2217
g62
(g83
g64
NtRp2218
(dp2219
g67
(dp2220
sg76
g2214
sg69
(lp2221
g62
(g63
g64
NtRp2222
(dp2223
g67
(dp2224
g75
I3
ssg76
g2218
sg69
(lp2225
S'1'
asbasbasbag62
(g78
g64
NtRp2226
(dp2227
g67
(dp2228
sg76
g2210
sg69
(lp2229
g62
(g83
g64
NtRp2230
(dp2231
g67
(dp2232
sg76
g2226
sg69
(lp2233
g62
(g63
g64
NtRp2234
(dp2235
g67
(dp2236
g75
I3
ssg76
g2230
sg69
(lp2237
S'0'
asbasbasbasbasbasbasbasbasbasbasbag62
(g78
g64
NtRp2238
(dp2239
g67
(dp2240
sg76
g72
sg69
(lp2241
g62
(g83
g64
NtRp2242
(dp2243
g67
(dp2244
g87
g88
ssg76
g2238
sg69
(lp2245
S'extension'
p2246
asbag62
(g83
g64
NtRp2247
(dp2248
g67
(dp2249
g94
g95
ssg76
g2238
sg69
(lp2250
S':'
asbag62
(g83
g64
NtRp2251
(dp2252
g67
(dp2253
sg76
g2238
sg69
(lp2254
g62
(g63
g64
NtRp2255
(dp2256
g67
(dp2257
g75
I5
ssg76
g2251
sg69
(lp2258
S'html'
p2259
asbasbasbag62
(g78
g64
NtRp2260
(dp2261
g67
(dp2262
sg76
g72
sg69
(lp2263
g62
(g83
g64
NtRp2264
(dp2265
g67
(dp2266
g87
g88
ssg76
g2260
sg69
(lp2267
S'folder'
p2268
asbag62
(g83
g64
NtRp2269
(dp2270
g67
(dp2271
g94
g95
ssg76
g2260
sg69
(lp2272
S':'
asbag62
(g83
g64
NtRp2273
(dp2274
g67
(dp2275
sg76
g2260
sg69
(lp2276
g62
(g63
g64
NtRp2277
(dp2278
g67
(dp2279
g75
I5
ssg76
g2273
sg69
(lp2280
S'/Users/victorgirotto/Desktop/web2py-master/applications/CartesianPlane/'
p2281
asbasbasbag62
(g78
g64
NtRp2282
(dp2283
g67
(dp2284
sg76
g72
sg69
(lp2285
g62
(g83
g64
NtRp2286
(dp2287
g67
(dp2288
g87
g88
ssg76
g2282
sg69
(lp2289
S'function'
p2290
asbag62
(g83
g64
NtRp2291
(dp2292
g67
(dp2293
g94
g95
ssg76
g2282
sg69
(lp2294
S':'
asbag62
(g83
g64
NtRp2295
(dp2296
g67
(dp2297
sg76
g2282
sg69
(lp2298
g62
(g63
g64
NtRp2299
(dp2300
g67
(dp2301
g75
I5
ssg76
g2295
sg69
(lp2302
S'applet'
p2303
asbasbasbag62
(g78
g64
NtRp2304
(dp2305
g67
(dp2306
sg76
g72
sg69
(lp2307
g62
(g83
g64
NtRp2308
(dp2309
g67
(dp2310
g87
g88
ssg76
g2304
sg69
(lp2311
S'get_vars'
p2312
asbag62
(g83
g64
NtRp2313
(dp2314
g67
(dp2315
g94
g95
ssg76
g2304
sg69
(lp2316
S':'
asbag62
(g83
g64
NtRp2317
(dp2318
g67
(dp2319
sg76
g2304
sg69
(lp2320
g62
(g63
g64
NtRp2321
(dp2322
g67
(dp2323
g75
I5
ssg76
g2317
sg69
(lp2324
g62
(g71
g64
NtRp2325
(dp2326
g67
(dp2327
g75
I4
ssg76
Nsg69
(lp2328
sbasbasbasbag62
(g78
g64
NtRp2329
(dp2330
g67
(dp2331
sg76
g72
sg69
(lp2332
g62
(g83
g64
NtRp2333
(dp2334
g67
(dp2335
g87
g88
ssg76
g2329
sg69
(lp2336
S'global_settings'
p2337
asbag62
(g83
g64
NtRp2338
(dp2339
g67
(dp2340
g94
g95
ssg76
g2329
sg69
(lp2341
S':'
asbag62
(g83
g64
NtRp2342
(dp2343
g67
(dp2344
sg76
g2329
sg69
(lp2345
g62
(g63
g64
NtRp2346
(dp2347
g67
(dp2348
g75
I5
ssg76
g2342
sg69
(lp2349
g62
(g71
g64
NtRp2350
(dp2351
g67
(dp2352
g75
I4
ssg76
Nsg69
(lp2353
g62
(g78
g64
NtRp2354
(dp2355
g67
(dp2356
sg76
g2350
sg69
(lp2357
g62
(g83
g64
NtRp2358
(dp2359
g67
(dp2360
g87
g88
ssg76
g2354
sg69
(lp2361
g1236
asbag62
(g83
g64
NtRp2362
(dp2363
g67
(dp2364
g94
g95
ssg76
g2354
sg69
(lp2365
S':'
asbag62
(g83
g64
NtRp2366
(dp2367
g67
(dp2368
sg76
g2354
sg69
(lp2369
g62
(g63
g64
NtRp2370
(dp2371
g67
(dp2372
g75
I4
ssg76
g2366
sg69
(lp2373
S"set(['/Users/victorgirotto/Desktop/web2py-master/applications/MobileInterface/', '/Users/victorgirotto/Desktop/web2py-master/applications/welcome/', '/Users/victorgirotto/Desktop/web2py-master/applications/CartesianPlane/', '/Users/victorgirotto/Desktop/web2py-master/applications/GeogebraInterface/', '/Users/victorgirotto/Desktop/web2py-master/applications/admin/'])"
p2374
asbasbasbag62
(g78
g64
NtRp2375
(dp2376
g67
(dp2377
sg76
g2350
sg69
(lp2378
g62
(g83
g64
NtRp2379
(dp2380
g67
(dp2381
g87
g88
ssg76
g2375
sg69
(lp2382
g1258
asbag62
(g83
g64
NtRp2383
(dp2384
g67
(dp2385
g94
g95
ssg76
g2375
sg69
(lp2386
S':'
asbag62
(g83
g64
NtRp2387
(dp2388
g67
(dp2389
sg76
g2375
sg69
(lp2390
g62
(g63
g64
NtRp2391
(dp2392
g67
(dp2393
g75
I4
ssg76
g2387
sg69
(lp2394
g1271
asbasbasbag62
(g78
g64
NtRp2395
(dp2396
g67
(dp2397
sg76
g2350
sg69
(lp2398
g62
(g83
g64
NtRp2399
(dp2400
g67
(dp2401
g87
g88
ssg76
g2395
sg69
(lp2402
g1280
asbag62
(g83
g64
NtRp2403
(dp2404
g67
(dp2405
g94
g95
ssg76
g2395
sg69
(lp2406
S':'
asbag62
(g83
g64
NtRp2407
(dp2408
g67
(dp2409
sg76
g2395
sg69
(lp2410
g62
(g63
g64
NtRp2411
(dp2412
g67
(dp2413
g75
I4
ssg76
g2407
sg69
(lp2414
g62
(g71
g64
NtRp2415
(dp2416
g67
(dp2417
g75
I3
ssg76
Nsg69
(lp2418
sbasbasbasbag62
(g78
g64
NtRp2419
(dp2420
g67
(dp2421
sg76
g2350
sg69
(lp2422
g62
(g83
g64
NtRp2423
(dp2424
g67
(dp2425
g87
g88
ssg76
g2419
sg69
(lp2426
g1305
asbag62
(g83
g64
NtRp2427
(dp2428
g67
(dp2429
g94
g95
ssg76
g2419
sg69
(lp2430
S':'
asbag62
(g83
g64
NtRp2431
(dp2432
g67
(dp2433
sg76
g2419
sg69
(lp2434
g62
(g63
g64
NtRp2435
(dp2436
g67
(dp2437
g75
I4
ssg76
g2431
sg69
(lp2438
S"<Values at 0x10705ccb0: {'verbose': False, 'ip': '127.0.0.1', 'with_scheduler': False, 'ips': ['10.211.55.2', '10.37.129.2', '10.142.224.219'], 'shutdown_timeout': 5, 'taskbar': False, 'port': 8000, 'maxthreads': None, 'softcron': False, 'server_name': 'MacBook-Pro-de-Victor.local', 'bpython': False, 'nogui': False, 'pid_filename': 'httpserver.pid', 'extcron': False, 'runcron': False, 'run_system_tests': False, 'test': None, 'folder': '/Users/victorgirotto/Desktop/web2py-master', 'config': '', 'minthreads': None, 'winservice': '', 'shell': None, 'run': '', 'log_filename': 'httpserver.log', 'debuglevel': 30, 'args': [''], 'socket_timeout': 5, 'ssl_ca_certificate': None, 'scheduler': None, 'profiler_filename': None, 'ssl_private_key': '', 'scheduler_groups': None, 'password': '<ask>', 'request_queue_size': 5, 'ssl_certificate': '', 'cronjob': False, 'numthreads': None, 'quiet': False, 'interfaces': None, 'import_models': False, 'timeout': 10, 'plain': False, 'nobanner': False}>"
p2439
asbasbasbag62
(g78
g64
NtRp2440
(dp2441
g67
(dp2442
sg76
g2350
sg69
(lp2443
g62
(g83
g64
NtRp2444
(dp2445
g67
(dp2446
g87
g88
ssg76
g2440
sg69
(lp2447
g1327
asbag62
(g83
g64
NtRp2448
(dp2449
g67
(dp2450
g94
g95
ssg76
g2440
sg69
(lp2451
S':'
asbag62
(g83
g64
NtRp2452
(dp2453
g67
(dp2454
sg76
g2440
sg69
(lp2455
g62
(g63
g64
NtRp2456
(dp2457
g67
(dp2458
g75
I4
ssg76
g2452
sg69
(lp2459
S'set([])'
p2460
asbasbasbag62
(g78
g64
NtRp2461
(dp2462
g67
(dp2463
sg76
g2350
sg69
(lp2464
g62
(g83
g64
NtRp2465
(dp2466
g67
(dp2467
g87
g88
ssg76
g2461
sg69
(lp2468
g1349
asbag62
(g83
g64
NtRp2469
(dp2470
g67
(dp2471
g94
g95
ssg76
g2461
sg69
(lp2472
S':'
asbag62
(g83
g64
NtRp2473
(dp2474
g67
(dp2475
sg76
g2461
sg69
(lp2476
g62
(g63
g64
NtRp2477
(dp2478
g67
(dp2479
g75
I4
ssg76
g2473
sg69
(lp2480
g105
asbasbasbag62
(g78
g64
NtRp2481
(dp2482
g67
(dp2483
sg76
g2350
sg69
(lp2484
g62
(g83
g64
NtRp2485
(dp2486
g67
(dp2487
g87
g88
ssg76
g2481
sg69
(lp2488
g1370
asbag62
(g83
g64
NtRp2489
(dp2490
g67
(dp2491
g94
g95
ssg76
g2481
sg69
(lp2492
S':'
asbag62
(g83
g64
NtRp2493
(dp2494
g67
(dp2495
sg76
g2481
sg69
(lp2496
g62
(g63
g64
NtRp2497
(dp2498
g67
(dp2499
g75
I4
ssg76
g2493
sg69
(lp2500
g1383
asbasbasbag62
(g78
g64
NtRp2501
(dp2502
g67
(dp2503
sg76
g2350
sg69
(lp2504
g62
(g83
g64
NtRp2505
(dp2506
g67
(dp2507
g87
g88
ssg76
g2501
sg69
(lp2508
g1568
asbag62
(g83
g64
NtRp2509
(dp2510
g67
(dp2511
g94
g95
ssg76
g2501
sg69
(lp2512
S':'
asbag62
(g83
g64
NtRp2513
(dp2514
g67
(dp2515
sg76
g2501
sg69
(lp2516
g62
(g63
g64
NtRp2517
(dp2518
g67
(dp2519
g75
I4
ssg76
g2513
sg69
(lp2520
g105
asbasbasbag62
(g78
g64
NtRp2521
(dp2522
g67
(dp2523
sg76
g2350
sg69
(lp2524
g62
(g83
g64
NtRp2525
(dp2526
g67
(dp2527
g87
g88
ssg76
g2521
sg69
(lp2528
g1589
asbag62
(g83
g64
NtRp2529
(dp2530
g67
(dp2531
g94
g95
ssg76
g2521
sg69
(lp2532
S':'
asbag62
(g83
g64
NtRp2533
(dp2534
g67
(dp2535
sg76
g2521
sg69
(lp2536
g62
(g63
g64
NtRp2537
(dp2538
g67
(dp2539
g75
I4
ssg76
g2533
sg69
(lp2540
g105
asbasbasbag62
(g78
g64
NtRp2541
(dp2542
g67
(dp2543
sg76
g2350
sg69
(lp2544
g62
(g83
g64
NtRp2545
(dp2546
g67
(dp2547
g87
g88
ssg76
g2541
sg69
(lp2548
g1610
asbag62
(g83
g64
NtRp2549
(dp2550
g67
(dp2551
g94
g95
ssg76
g2541
sg69
(lp2552
S':'
asbag62
(g83
g64
NtRp2553
(dp2554
g67
(dp2555
sg76
g2541
sg69
(lp2556
g62
(g63
g64
NtRp2557
(dp2558
g67
(dp2559
g75
I4
ssg76
g2553
sg69
(lp2560
g62
(g71
g64
NtRp2561
(dp2562
g67
(dp2563
g75
I3
ssg76
Nsg69
(lp2564
g62
(g78
g64
NtRp2565
(dp2566
g67
(dp2567
sg76
g2561
sg69
(lp2568
g62
(g83
g64
NtRp2569
(dp2570
g67
(dp2571
sg76
g2565
sg69
(lp2572
g62
(g63
g64
NtRp2573
(dp2574
g67
(dp2575
g75
I3
ssg76
g2569
sg69
(lp2576
g1639
asbasbasbag62
(g78
g64
NtRp2577
(dp2578
g67
(dp2579
sg76
g2561
sg69
(lp2580
g62
(g83
g64
NtRp2581
(dp2582
g67
(dp2583
sg76
g2577
sg69
(lp2584
g62
(g63
g64
NtRp2585
(dp2586
g67
(dp2587
g75
I3
ssg76
g2581
sg69
(lp2588
g1652
asbasbasbag62
(g78
g64
NtRp2589
(dp2590
g67
(dp2591
sg76
g2561
sg69
(lp2592
g62
(g83
g64
NtRp2593
(dp2594
g67
(dp2595
sg76
g2589
sg69
(lp2596
g62
(g63
g64
NtRp2597
(dp2598
g67
(dp2599
g75
I3
ssg76
g2593
sg69
(lp2600
g1665
asbasbasbag62
(g78
g64
NtRp2601
(dp2602
g67
(dp2603
sg76
g2561
sg69
(lp2604
g62
(g83
g64
NtRp2605
(dp2606
g67
(dp2607
sg76
g2601
sg69
(lp2608
g62
(g63
g64
NtRp2609
(dp2610
g67
(dp2611
g75
I3
ssg76
g2605
sg69
(lp2612
g1678
asbasbasbag62
(g78
g64
NtRp2613
(dp2614
g67
(dp2615
sg76
g2561
sg69
(lp2616
g62
(g83
g64
NtRp2617
(dp2618
g67
(dp2619
sg76
g2613
sg69
(lp2620
g62
(g63
g64
NtRp2621
(dp2622
g67
(dp2623
g75
I3
ssg76
g2617
sg69
(lp2624
g1691
asbasbasbasbasbasbasbag62
(g78
g64
NtRp2625
(dp2626
g67
(dp2627
sg76
g2350
sg69
(lp2628
g62
(g83
g64
NtRp2629
(dp2630
g67
(dp2631
g87
g88
ssg76
g2625
sg69
(lp2632
g1958
asbag62
(g83
g64
NtRp2633
(dp2634
g67
(dp2635
g94
g95
ssg76
g2625
sg69
(lp2636
S':'
asbag62
(g83
g64
NtRp2637
(dp2638
g67
(dp2639
sg76
g2625
sg69
(lp2640
g62
(g63
g64
NtRp2641
(dp2642
g67
(dp2643
g75
I4
ssg76
g2637
sg69
(lp2644
g62
(g71
g64
NtRp2645
(dp2646
g67
(dp2647
g75
I3
ssg76
Nsg69
(lp2648
g62
(g78
g64
NtRp2649
(dp2650
g67
(dp2651
sg76
g2645
sg69
(lp2652
g62
(g83
g64
NtRp2653
(dp2654
g67
(dp2655
sg76
g2649
sg69
(lp2656
g62
(g63
g64
NtRp2657
(dp2658
g67
(dp2659
g75
I3
ssg76
g2653
sg69
(lp2660
S'2'
asbasbasbag62
(g78
g64
NtRp2661
(dp2662
g67
(dp2663
sg76
g2645
sg69
(lp2664
g62
(g83
g64
NtRp2665
(dp2666
g67
(dp2667
sg76
g2661
sg69
(lp2668
g62
(g63
g64
NtRp2669
(dp2670
g67
(dp2671
g75
I3
ssg76
g2665
sg69
(lp2672
S'2'
asbasbasbag62
(g78
g64
NtRp2673
(dp2674
g67
(dp2675
sg76
g2645
sg69
(lp2676
g62
(g83
g64
NtRp2677
(dp2678
g67
(dp2679
sg76
g2673
sg69
(lp2680
g62
(g63
g64
NtRp2681
(dp2682
g67
(dp2683
g75
I3
ssg76
g2677
sg69
(lp2684
S'1'
asbasbasbag62
(g78
g64
NtRp2685
(dp2686
g67
(dp2687
sg76
g2645
sg69
(lp2688
g62
(g83
g64
NtRp2689
(dp2690
g67
(dp2691
sg76
g2685
sg69
(lp2692
g62
(g63
g64
NtRp2693
(dp2694
g67
(dp2695
g75
I3
ssg76
g2689
sg69
(lp2696
S'datetime.datetime(2012, 11, 4, 20, 45, 19)'
p2697
asbasbasbag62
(g78
g64
NtRp2698
(dp2699
g67
(dp2700
sg76
g2645
sg69
(lp2701
g62
(g83
g64
NtRp2702
(dp2703
g67
(dp2704
sg76
g2698
sg69
(lp2705
g62
(g63
g64
NtRp2706
(dp2707
g67
(dp2708
g75
I3
ssg76
g2702
sg69
(lp2709
g2036
asbasbasbasbasbasbasbasbasbasbasbag62
(g78
g64
NtRp2710
(dp2711
g67
(dp2712
sg76
g72
sg69
(lp2713
g62
(g83
g64
NtRp2714
(dp2715
g67
(dp2716
g87
g88
ssg76
g2710
sg69
(lp2717
S'is_https'
p2718
asbag62
(g83
g64
NtRp2719
(dp2720
g67
(dp2721
g94
g95
ssg76
g2710
sg69
(lp2722
S':'
asbag62
(g83
g64
NtRp2723
(dp2724
g67
(dp2725
sg76
g2710
sg69
(lp2726
g62
(g63
g64
NtRp2727
(dp2728
g67
(dp2729
g75
I5
ssg76
g2723
sg69
(lp2730
g105
asbasbasbag62
(g78
g64
NtRp2731
(dp2732
g67
(dp2733
sg76
g72
sg69
(lp2734
g62
(g83
g64
NtRp2735
(dp2736
g67
(dp2737
g87
g88
ssg76
g2731
sg69
(lp2738
S'is_local'
p2739
asbag62
(g83
g64
NtRp2740
(dp2741
g67
(dp2742
g94
g95
ssg76
g2731
sg69
(lp2743
S':'
asbag62
(g83
g64
NtRp2744
(dp2745
g67
(dp2746
sg76
g2731
sg69
(lp2747
g62
(g63
g64
NtRp2748
(dp2749
g67
(dp2750
g75
I5
ssg76
g2744
sg69
(lp2751
g2145
asbasbasbag62
(g78
g64
NtRp2752
(dp2753
g67
(dp2754
sg76
g72
sg69
(lp2755
g62
(g83
g64
NtRp2756
(dp2757
g67
(dp2758
g87
g88
ssg76
g2752
sg69
(lp2759
S'is_restful'
p2760
asbag62
(g83
g64
NtRp2761
(dp2762
g67
(dp2763
g94
g95
ssg76
g2752
sg69
(lp2764
S':'
asbag62
(g83
g64
NtRp2765
(dp2766
g67
(dp2767
sg76
g2752
sg69
(lp2768
g62
(g63
g64
NtRp2769
(dp2770
g67
(dp2771
g75
I5
ssg76
g2765
sg69
(lp2772
g105
asbasbasbag62
(g78
g64
NtRp2773
(dp2774
g67
(dp2775
sg76
g72
sg69
(lp2776
g62
(g83
g64
NtRp2777
(dp2778
g67
(dp2779
g87
g88
ssg76
g2773
sg69
(lp2780
S'now'
p2781
asbag62
(g83
g64
NtRp2782
(dp2783
g67
(dp2784
g94
g95
ssg76
g2773
sg69
(lp2785
S':'
asbag62
(g83
g64
NtRp2786
(dp2787
g67
(dp2788
sg76
g2773
sg69
(lp2789
g62
(g63
g64
NtRp2790
(dp2791
g67
(dp2792
g75
I5
ssg76
g2786
sg69
(lp2793
S'datetime.datetime(2013, 1, 24, 17, 8, 6, 43108)'
p2794
asbasbasbag62
(g78
g64
NtRp2795
(dp2796
g67
(dp2797
sg76
g72
sg69
(lp2798
g62
(g83
g64
NtRp2799
(dp2800
g67
(dp2801
g87
g88
ssg76
g2795
sg69
(lp2802
S'post_vars'
p2803
asbag62
(g83
g64
NtRp2804
(dp2805
g67
(dp2806
g94
g95
ssg76
g2795
sg69
(lp2807
S':'
asbag62
(g83
g64
NtRp2808
(dp2809
g67
(dp2810
sg76
g2795
sg69
(lp2811
g62
(g63
g64
NtRp2812
(dp2813
g67
(dp2814
g75
I5
ssg76
g2808
sg69
(lp2815
g62
(g71
g64
NtRp2816
(dp2817
g67
(dp2818
g75
I4
ssg76
Nsg69
(lp2819
sbasbasbasbag62
(g78
g64
NtRp2820
(dp2821
g67
(dp2822
sg76
g72
sg69
(lp2823
g62
(g83
g64
NtRp2824
(dp2825
g67
(dp2826
g87
g88
ssg76
g2820
sg69
(lp2827
S'raw_args'
p2828
asbag62
(g83
g64
NtRp2829
(dp2830
g67
(dp2831
g94
g95
ssg76
g2820
sg69
(lp2832
S':'
asbag62
(g83
g64
NtRp2833
(dp2834
g67
(dp2835
sg76
g2820
sg69
(lp2836
g62
(g63
g64
NtRp2837
(dp2838
g67
(dp2839
g75
I5
ssg76
g2833
sg69
(lp2840
S''
asbasbasbag62
(g78
g64
NtRp2841
(dp2842
g67
(dp2843
sg76
g72
sg69
(lp2844
g62
(g83
g64
NtRp2845
(dp2846
g67
(dp2847
g87
g88
ssg76
g2841
sg69
(lp2848
S'raw_extension'
p2849
asbag62
(g83
g64
NtRp2850
(dp2851
g67
(dp2852
g94
g95
ssg76
g2841
sg69
(lp2853
S':'
asbag62
(g83
g64
NtRp2854
(dp2855
g67
(dp2856
sg76
g2841
sg69
(lp2857
g62
(g63
g64
NtRp2858
(dp2859
g67
(dp2860
g75
I5
ssg76
g2854
sg69
(lp2861
S'None'
p2862
asbasbasbag62
(g78
g64
NtRp2863
(dp2864
g67
(dp2865
sg76
g72
sg69
(lp2866
g62
(g83
g64
NtRp2867
(dp2868
g67
(dp2869
g87
g88
ssg76
g2863
sg69
(lp2870
S'url'
p2871
asbag62
(g83
g64
NtRp2872
(dp2873
g67
(dp2874
g94
g95
ssg76
g2863
sg69
(lp2875
S':'
asbag62
(g83
g64
NtRp2876
(dp2877
g67
(dp2878
sg76
g2863
sg69
(lp2879
g62
(g63
g64
NtRp2880
(dp2881
g67
(dp2882
g75
I5
ssg76
g2876
sg69
(lp2883
g1713
asbasbasbag62
(g78
g64
NtRp2884
(dp2885
g67
(dp2886
sg76
g72
sg69
(lp2887
g62
(g83
g64
NtRp2888
(dp2889
g67
(dp2890
g87
g88
ssg76
g2884
sg69
(lp2891
S'utcnow'
p2892
asbag62
(g83
g64
NtRp2893
(dp2894
g67
(dp2895
g94
g95
ssg76
g2884
sg69
(lp2896
S':'
asbag62
(g83
g64
NtRp2897
(dp2898
g67
(dp2899
sg76
g2884
sg69
(lp2900
g62
(g63
g64
NtRp2901
(dp2902
g67
(dp2903
g75
I5
ssg76
g2897
sg69
(lp2904
S'datetime.datetime(2013, 1, 25, 0, 8, 6, 43122)'
p2905
asbasbasbag62
(g78
g64
NtRp2906
(dp2907
g67
(dp2908
sg76
g72
sg69
(lp2909
g62
(g83
g64
NtRp2910
(dp2911
g67
(dp2912
g87
g88
ssg76
g2906
sg69
(lp2913
S'uuid'
p2914
asbag62
(g83
g64
NtRp2915
(dp2916
g67
(dp2917
g94
g95
ssg76
g2906
sg69
(lp2918
S':'
asbag62
(g83
g64
NtRp2919
(dp2920
g67
(dp2921
sg76
g2906
sg69
(lp2922
g62
(g63
g64
NtRp2923
(dp2924
g67
(dp2925
g75
I5
ssg76
g2919
sg69
(lp2926
S'CartesianPlane/127.0.0.1.2013-01-24.17-08-06.55bc3ea0-b82e-41f4-ba4a-7f1bd522e5c0'
p2927
asbasbasbag62
(g78
g64
NtRp2928
(dp2929
g67
(dp2930
sg76
g72
sg69
(lp2931
g62
(g83
g64
NtRp2932
(dp2933
g67
(dp2934
g87
g88
ssg76
g2928
sg69
(lp2935
S'vars'
p2936
asbag62
(g83
g64
NtRp2937
(dp2938
g67
(dp2939
g94
g95
ssg76
g2928
sg69
(lp2940
S':'
asbag62
(g83
g64
NtRp2941
(dp2942
g67
(dp2943
sg76
g2928
sg69
(lp2944
g62
(g63
g64
NtRp2945
(dp2946
g67
(dp2947
g75
I5
ssg76
g2941
sg69
(lp2948
g62
(g71
g64
NtRp2949
(dp2950
g67
(dp2951
g75
I4
ssg76
Nsg69
(lp2952
sbasbasbasbag62
(g78
g64
NtRp2953
(dp2954
g67
(dp2955
sg76
g72
sg69
(lp2956
g62
(g83
g64
NtRp2957
(dp2958
g67
(dp2959
g87
g88
ssg76
g2953
sg69
(lp2960
S'wsgi'
p2961
asbag62
(g83
g64
NtRp2962
(dp2963
g67
(dp2964
g94
g95
ssg76
g2953
sg69
(lp2965
S':'
asbag62
(g83
g64
NtRp2966
(dp2967
g67
(dp2968
sg76
g2953
sg69
(lp2969
g62
(g63
g64
NtRp2970
(dp2971
g67
(dp2972
g75
I5
ssg76
g2966
sg69
(lp2973
g62
(g71
g64
NtRp2974
(dp2975
g67
(dp2976
g75
I4
ssg76
Nsg69
(lp2977
g62
(g78
g64
NtRp2978
(dp2979
g67
(dp2980
sg76
g2974
sg69
(lp2981
g62
(g83
g64
NtRp2982
(dp2983
g67
(dp2984
g87
g88
ssg76
g2978
sg69
(lp2985
S'environ'
p2986
asbag62
(g83
g64
NtRp2987
(dp2988
g67
(dp2989
g94
g95
ssg76
g2978
sg69
(lp2990
S':'
asbag62
(g83
g64
NtRp2991
(dp2992
g67
(dp2993
sg76
g2978
sg69
(lp2994
g62
(g63
g64
NtRp2995
(dp2996
g67
(dp2997
g75
I4
ssg76
g2991
sg69
(lp2998
g62
(g71
g64
NtRp2999
(dp3000
g67
(dp3001
g75
I3
ssg76
Nsg69
(lp3002
g62
(g78
g64
NtRp3003
(dp3004
g67
(dp3005
sg76
g2999
sg69
(lp3006
g62
(g83
g64
NtRp3007
(dp3008
g67
(dp3009
g87
g88
ssg76
g3003
sg69
(lp3010
S'HTTP_ACCEPT'
p3011
asbag62
(g83
g64
NtRp3012
(dp3013
g67
(dp3014
g94
g95
ssg76
g3003
sg69
(lp3015
S':'
asbag62
(g83
g64
NtRp3016
(dp3017
g67
(dp3018
sg76
g3003
sg69
(lp3019
g62
(g63
g64
NtRp3020
(dp3021
g67
(dp3022
g75
I3
ssg76
g3016
sg69
(lp3023
g1405
asbasbasbag62
(g78
g64
NtRp3024
(dp3025
g67
(dp3026
sg76
g2999
sg69
(lp3027
g62
(g83
g64
NtRp3028
(dp3029
g67
(dp3030
g87
g88
ssg76
g3024
sg69
(lp3031
S'HTTP_ACCEPT_ENCODING'
p3032
asbag62
(g83
g64
NtRp3033
(dp3034
g67
(dp3035
g94
g95
ssg76
g3024
sg69
(lp3036
S':'
asbag62
(g83
g64
NtRp3037
(dp3038
g67
(dp3039
sg76
g3024
sg69
(lp3040
g62
(g63
g64
NtRp3041
(dp3042
g67
(dp3043
g75
I3
ssg76
g3037
sg69
(lp3044
g1427
asbasbasbag62
(g78
g64
NtRp3045
(dp3046
g67
(dp3047
sg76
g2999
sg69
(lp3048
g62
(g83
g64
NtRp3049
(dp3050
g67
(dp3051
g87
g88
ssg76
g3045
sg69
(lp3052
S'HTTP_ACCEPT_LANGUAGE'
p3053
asbag62
(g83
g64
NtRp3054
(dp3055
g67
(dp3056
g94
g95
ssg76
g3045
sg69
(lp3057
S':'
asbag62
(g83
g64
NtRp3058
(dp3059
g67
(dp3060
sg76
g3045
sg69
(lp3061
g62
(g63
g64
NtRp3062
(dp3063
g67
(dp3064
g75
I3
ssg76
g3058
sg69
(lp3065
g1449
asbasbasbag62
(g78
g64
NtRp3066
(dp3067
g67
(dp3068
sg76
g2999
sg69
(lp3069
g62
(g83
g64
NtRp3070
(dp3071
g67
(dp3072
g87
g88
ssg76
g3066
sg69
(lp3073
S'HTTP_CACHE_CONTROL'
p3074
asbag62
(g83
g64
NtRp3075
(dp3076
g67
(dp3077
g94
g95
ssg76
g3066
sg69
(lp3078
S':'
asbag62
(g83
g64
NtRp3079
(dp3080
g67
(dp3081
sg76
g3066
sg69
(lp3082
g62
(g63
g64
NtRp3083
(dp3084
g67
(dp3085
g75
I3
ssg76
g3079
sg69
(lp3086
g1471
asbasbasbag62
(g78
g64
NtRp3087
(dp3088
g67
(dp3089
sg76
g2999
sg69
(lp3090
g62
(g83
g64
NtRp3091
(dp3092
g67
(dp3093
g87
g88
ssg76
g3087
sg69
(lp3094
S'HTTP_CONNECTION'
p3095
asbag62
(g83
g64
NtRp3096
(dp3097
g67
(dp3098
g94
g95
ssg76
g3087
sg69
(lp3099
S':'
asbag62
(g83
g64
NtRp3100
(dp3101
g67
(dp3102
sg76
g3087
sg69
(lp3103
g62
(g63
g64
NtRp3104
(dp3105
g67
(dp3106
g75
I3
ssg76
g3100
sg69
(lp3107
g1493
asbasbasbag62
(g78
g64
NtRp3108
(dp3109
g67
(dp3110
sg76
g2999
sg69
(lp3111
g62
(g83
g64
NtRp3112
(dp3113
g67
(dp3114
g87
g88
ssg76
g3108
sg69
(lp3115
S'HTTP_COOKIE'
p3116
asbag62
(g83
g64
NtRp3117
(dp3118
g67
(dp3119
g94
g95
ssg76
g3108
sg69
(lp3120
S':'
asbag62
(g83
g64
NtRp3121
(dp3122
g67
(dp3123
sg76
g3108
sg69
(lp3124
g62
(g63
g64
NtRp3125
(dp3126
g67
(dp3127
g75
I3
ssg76
g3121
sg69
(lp3128
g1515
asbasbasbag62
(g78
g64
NtRp3129
(dp3130
g67
(dp3131
sg76
g2999
sg69
(lp3132
g62
(g83
g64
NtRp3133
(dp3134
g67
(dp3135
g87
g88
ssg76
g3129
sg69
(lp3136
S'HTTP_HOST'
p3137
asbag62
(g83
g64
NtRp3138
(dp3139
g67
(dp3140
g94
g95
ssg76
g3129
sg69
(lp3141
S':'
asbag62
(g83
g64
NtRp3142
(dp3143
g67
(dp3144
sg76
g3129
sg69
(lp3145
g62
(g63
g64
NtRp3146
(dp3147
g67
(dp3148
g75
I3
ssg76
g3142
sg69
(lp3149
g1537
asbasbasbag62
(g78
g64
NtRp3150
(dp3151
g67
(dp3152
sg76
g2999
sg69
(lp3153
g62
(g83
g64
NtRp3154
(dp3155
g67
(dp3156
g87
g88
ssg76
g3150
sg69
(lp3157
S'HTTP_USER_AGENT'
p3158
asbag62
(g83
g64
NtRp3159
(dp3160
g67
(dp3161
g94
g95
ssg76
g3150
sg69
(lp3162
S':'
asbag62
(g83
g64
NtRp3163
(dp3164
g67
(dp3165
sg76
g3150
sg69
(lp3166
g62
(g63
g64
NtRp3167
(dp3168
g67
(dp3169
g75
I3
ssg76
g3163
sg69
(lp3170
g1559
asbasbasbag62
(g78
g64
NtRp3171
(dp3172
g67
(dp3173
sg76
g2999
sg69
(lp3174
g62
(g83
g64
NtRp3175
(dp3176
g67
(dp3177
g87
g88
ssg76
g3171
sg69
(lp3178
S'PATH_INFO'
p3179
asbag62
(g83
g64
NtRp3180
(dp3181
g67
(dp3182
g94
g95
ssg76
g3171
sg69
(lp3183
S':'
asbag62
(g83
g64
NtRp3184
(dp3185
g67
(dp3186
sg76
g3171
sg69
(lp3187
g62
(g63
g64
NtRp3188
(dp3189
g67
(dp3190
g75
I3
ssg76
g3184
sg69
(lp3191
g1713
asbasbasbag62
(g78
g64
NtRp3192
(dp3193
g67
(dp3194
sg76
g2999
sg69
(lp3195
g62
(g83
g64
NtRp3196
(dp3197
g67
(dp3198
g87
g88
ssg76
g3192
sg69
(lp3199
S'QUERY_STRING'
p3200
asbag62
(g83
g64
NtRp3201
(dp3202
g67
(dp3203
g94
g95
ssg76
g3192
sg69
(lp3204
S':'
asbag62
(g83
g64
NtRp3205
(dp3206
g67
(dp3207
sg76
g3192
sg69
(lp3208
g62
(g63
g64
NtRp3209
(dp3210
g67
(dp3211
g75
I3
ssg76
g3205
sg69
(lp3212
S''
asbasbasbag62
(g78
g64
NtRp3213
(dp3214
g67
(dp3215
sg76
g2999
sg69
(lp3216
g62
(g83
g64
NtRp3217
(dp3218
g67
(dp3219
g87
g88
ssg76
g3213
sg69
(lp3220
S'REMOTE_ADDR'
p3221
asbag62
(g83
g64
NtRp3222
(dp3223
g67
(dp3224
g94
g95
ssg76
g3213
sg69
(lp3225
S':'
asbag62
(g83
g64
NtRp3226
(dp3227
g67
(dp3228
sg76
g3213
sg69
(lp3229
g62
(g63
g64
NtRp3230
(dp3231
g67
(dp3232
g75
I3
ssg76
g3226
sg69
(lp3233
g217
asbasbasbag62
(g78
g64
NtRp3234
(dp3235
g67
(dp3236
sg76
g2999
sg69
(lp3237
g62
(g83
g64
NtRp3238
(dp3239
g67
(dp3240
g87
g88
ssg76
g3234
sg69
(lp3241
S'REMOTE_PORT'
p3242
asbag62
(g83
g64
NtRp3243
(dp3244
g67
(dp3245
g94
g95
ssg76
g3234
sg69
(lp3246
S':'
asbag62
(g83
g64
NtRp3247
(dp3248
g67
(dp3249
sg76
g3234
sg69
(lp3250
g62
(g63
g64
NtRp3251
(dp3252
g67
(dp3253
g75
I3
ssg76
g3247
sg69
(lp3254
g1777
asbasbasbag62
(g78
g64
NtRp3255
(dp3256
g67
(dp3257
sg76
g2999
sg69
(lp3258
g62
(g83
g64
NtRp3259
(dp3260
g67
(dp3261
g87
g88
ssg76
g3255
sg69
(lp3262
S'REQUEST_METHOD'
p3263
asbag62
(g83
g64
NtRp3264
(dp3265
g67
(dp3266
g94
g95
ssg76
g3255
sg69
(lp3267
S':'
asbag62
(g83
g64
NtRp3268
(dp3269
g67
(dp3270
sg76
g3255
sg69
(lp3271
g62
(g63
g64
NtRp3272
(dp3273
g67
(dp3274
g75
I3
ssg76
g3268
sg69
(lp3275
g1799
asbasbasbag62
(g78
g64
NtRp3276
(dp3277
g67
(dp3278
sg76
g2999
sg69
(lp3279
g62
(g83
g64
NtRp3280
(dp3281
g67
(dp3282
g87
g88
ssg76
g3276
sg69
(lp3283
S'REQUEST_URI'
p3284
asbag62
(g83
g64
NtRp3285
(dp3286
g67
(dp3287
g94
g95
ssg76
g3276
sg69
(lp3288
S':'
asbag62
(g83
g64
NtRp3289
(dp3290
g67
(dp3291
sg76
g3276
sg69
(lp3292
g62
(g63
g64
NtRp3293
(dp3294
g67
(dp3295
g75
I3
ssg76
g3289
sg69
(lp3296
g1713
asbasbasbag62
(g78
g64
NtRp3297
(dp3298
g67
(dp3299
sg76
g2999
sg69
(lp3300
g62
(g83
g64
NtRp3301
(dp3302
g67
(dp3303
g87
g88
ssg76
g3297
sg69
(lp3304
S'SCRIPT_NAME'
p3305
asbag62
(g83
g64
NtRp3306
(dp3307
g67
(dp3308
g94
g95
ssg76
g3297
sg69
(lp3309
S':'
asbag62
(g83
g64
NtRp3310
(dp3311
g67
(dp3312
sg76
g3297
sg69
(lp3313
g62
(g63
g64
NtRp3314
(dp3315
g67
(dp3316
g75
I3
ssg76
g3310
sg69
(lp3317
S''
asbasbasbag62
(g78
g64
NtRp3318
(dp3319
g67
(dp3320
sg76
g2999
sg69
(lp3321
g62
(g83
g64
NtRp3322
(dp3323
g67
(dp3324
g87
g88
ssg76
g3318
sg69
(lp3325
S'SERVER_NAME'
p3326
asbag62
(g83
g64
NtRp3327
(dp3328
g67
(dp3329
g94
g95
ssg76
g3318
sg69
(lp3330
S':'
asbag62
(g83
g64
NtRp3331
(dp3332
g67
(dp3333
sg76
g3318
sg69
(lp3334
g62
(g63
g64
NtRp3335
(dp3336
g67
(dp3337
g75
I3
ssg76
g3331
sg69
(lp3338
g1678
asbasbasbag62
(g78
g64
NtRp3339
(dp3340
g67
(dp3341
sg76
g2999
sg69
(lp3342
g62
(g83
g64
NtRp3343
(dp3344
g67
(dp3345
g87
g88
ssg76
g3339
sg69
(lp3346
S'SERVER_PORT'
p3347
asbag62
(g83
g64
NtRp3348
(dp3349
g67
(dp3350
g94
g95
ssg76
g3339
sg69
(lp3351
S':'
asbag62
(g83
g64
NtRp3352
(dp3353
g67
(dp3354
sg76
g3339
sg69
(lp3355
g62
(g63
g64
NtRp3356
(dp3357
g67
(dp3358
g75
I3
ssg76
g3352
sg69
(lp3359
g1884
asbasbasbag62
(g78
g64
NtRp3360
(dp3361
g67
(dp3362
sg76
g2999
sg69
(lp3363
g62
(g83
g64
NtRp3364
(dp3365
g67
(dp3366
g87
g88
ssg76
g3360
sg69
(lp3367
S'SERVER_PROTOCOL'
p3368
asbag62
(g83
g64
NtRp3369
(dp3370
g67
(dp3371
g94
g95
ssg76
g3360
sg69
(lp3372
S':'
asbag62
(g83
g64
NtRp3373
(dp3374
g67
(dp3375
sg76
g3360
sg69
(lp3376
g62
(g63
g64
NtRp3377
(dp3378
g67
(dp3379
g75
I3
ssg76
g3373
sg69
(lp3380
g1906
asbasbasbag62
(g78
g64
NtRp3381
(dp3382
g67
(dp3383
sg76
g2999
sg69
(lp3384
g62
(g83
g64
NtRp3385
(dp3386
g67
(dp3387
g87
g88
ssg76
g3381
sg69
(lp3388
S'SERVER_SOFTWARE'
p3389
asbag62
(g83
g64
NtRp3390
(dp3391
g67
(dp3392
g94
g95
ssg76
g3381
sg69
(lp3393
S':'
asbag62
(g83
g64
NtRp3394
(dp3395
g67
(dp3396
sg76
g3381
sg69
(lp3397
g62
(g63
g64
NtRp3398
(dp3399
g67
(dp3400
g75
I3
ssg76
g3394
sg69
(lp3401
g1928
asbasbasbag62
(g78
g64
NtRp3402
(dp3403
g67
(dp3404
sg76
g2999
sg69
(lp3405
g62
(g83
g64
NtRp3406
(dp3407
g67
(dp3408
g87
g88
ssg76
g3402
sg69
(lp3409
S'wsgi.errors'
p3410
asbag62
(g83
g64
NtRp3411
(dp3412
g67
(dp3413
g94
g95
ssg76
g3402
sg69
(lp3414
S':'
asbag62
(g83
g64
NtRp3415
(dp3416
g67
(dp3417
sg76
g3402
sg69
(lp3418
g62
(g63
g64
NtRp3419
(dp3420
g67
(dp3421
g75
I3
ssg76
g3415
sg69
(lp3422
S"<open file '<stderr>', mode 'w' at 0x10628b270>"
p3423
asbasbasbag62
(g78
g64
NtRp3424
(dp3425
g67
(dp3426
sg76
g2999
sg69
(lp3427
g62
(g83
g64
NtRp3428
(dp3429
g67
(dp3430
g87
g88
ssg76
g3424
sg69
(lp3431
S'wsgi.file_wrapper'
p3432
asbag62
(g83
g64
NtRp3433
(dp3434
g67
(dp3435
g94
g95
ssg76
g3424
sg69
(lp3436
S':'
asbag62
(g83
g64
NtRp3437
(dp3438
g67
(dp3439
sg76
g3424
sg69
(lp3440
g62
(g63
g64
NtRp3441
(dp3442
g67
(dp3443
g75
I3
ssg76
g3437
sg69
(lp3444
S'<class wsgiref.util.FileWrapper at 0x106ffd9a8>'
p3445
asbasbasbag62
(g78
g64
NtRp3446
(dp3447
g67
(dp3448
sg76
g2999
sg69
(lp3449
g62
(g83
g64
NtRp3450
(dp3451
g67
(dp3452
g87
g88
ssg76
g3446
sg69
(lp3453
S'wsgi.input'
p3454
asbag62
(g83
g64
NtRp3455
(dp3456
g67
(dp3457
g94
g95
ssg76
g3446
sg69
(lp3458
S':'
asbag62
(g83
g64
NtRp3459
(dp3460
g67
(dp3461
sg76
g3446
sg69
(lp3462
g62
(g63
g64
NtRp3463
(dp3464
g67
(dp3465
g75
I3
ssg76
g3459
sg69
(lp3466
S'<cStringIO.StringO object at 0x112311ea0>'
p3467
asbasbasbag62
(g78
g64
NtRp3468
(dp3469
g67
(dp3470
sg76
g2999
sg69
(lp3471
g62
(g83
g64
NtRp3472
(dp3473
g67
(dp3474
g87
g88
ssg76
g3468
sg69
(lp3475
S'wsgi.multiprocess'
p3476
asbag62
(g83
g64
NtRp3477
(dp3478
g67
(dp3479
g94
g95
ssg76
g3468
sg69
(lp3480
S':'
asbag62
(g83
g64
NtRp3481
(dp3482
g67
(dp3483
sg76
g3468
sg69
(lp3484
g62
(g63
g64
NtRp3485
(dp3486
g67
(dp3487
g75
I3
ssg76
g3481
sg69
(lp3488
g105
asbasbasbag62
(g78
g64
NtRp3489
(dp3490
g67
(dp3491
sg76
g2999
sg69
(lp3492
g62
(g83
g64
NtRp3493
(dp3494
g67
(dp3495
g87
g88
ssg76
g3489
sg69
(lp3496
S'wsgi.multithread'
p3497
asbag62
(g83
g64
NtRp3498
(dp3499
g67
(dp3500
g94
g95
ssg76
g3489
sg69
(lp3501
S':'
asbag62
(g83
g64
NtRp3502
(dp3503
g67
(dp3504
sg76
g3489
sg69
(lp3505
g62
(g63
g64
NtRp3506
(dp3507
g67
(dp3508
g75
I3
ssg76
g3502
sg69
(lp3509
g2145
asbasbasbag62
(g78
g64
NtRp3510
(dp3511
g67
(dp3512
sg76
g2999
sg69
(lp3513
g62
(g83
g64
NtRp3514
(dp3515
g67
(dp3516
g87
g88
ssg76
g3510
sg69
(lp3517
S'wsgi.run_once'
p3518
asbag62
(g83
g64
NtRp3519
(dp3520
g67
(dp3521
g94
g95
ssg76
g3510
sg69
(lp3522
S':'
asbag62
(g83
g64
NtRp3523
(dp3524
g67
(dp3525
sg76
g3510
sg69
(lp3526
g62
(g63
g64
NtRp3527
(dp3528
g67
(dp3529
g75
I3
ssg76
g3523
sg69
(lp3530
g105
asbasbasbag62
(g78
g64
NtRp3531
(dp3532
g67
(dp3533
sg76
g2999
sg69
(lp3534
g62
(g83
g64
NtRp3535
(dp3536
g67
(dp3537
g87
g88
ssg76
g3531
sg69
(lp3538
S'wsgi.url_scheme'
p3539
asbag62
(g83
g64
NtRp3540
(dp3541
g67
(dp3542
g94
g95
ssg76
g3531
sg69
(lp3543
S':'
asbag62
(g83
g64
NtRp3544
(dp3545
g67
(dp3546
sg76
g3531
sg69
(lp3547
g62
(g63
g64
NtRp3548
(dp3549
g67
(dp3550
g75
I3
ssg76
g3544
sg69
(lp3551
g2188
asbasbasbag62
(g78
g64
NtRp3552
(dp3553
g67
(dp3554
sg76
g2999
sg69
(lp3555
g62
(g83
g64
NtRp3556
(dp3557
g67
(dp3558
g87
g88
ssg76
g3552
sg69
(lp3559
S'wsgi.version'
p3560
asbag62
(g83
g64
NtRp3561
(dp3562
g67
(dp3563
g94
g95
ssg76
g3552
sg69
(lp3564
S':'
asbag62
(g83
g64
NtRp3565
(dp3566
g67
(dp3567
sg76
g3552
sg69
(lp3568
g62
(g63
g64
NtRp3569
(dp3570
g67
(dp3571
g75
I3
ssg76
g3565
sg69
(lp3572
S'1'
asbasbasbasbasbasbasbasbasbasbasbasbasbsS'frames'
p3573
(lp3574
(dp3575
S'file'
p3576
S'/Users/victorgirotto/Desktop/web2py-master/gluon/restricted.py'
p3577
sS'dump'
p3578
(dp3579
S'environment'
p3580
S"{'A': <class 'gluon.html.A'>, 'Auth': <class 'gluon.tools.Auth'>, 'B': <class 'gluon.html.B'>, 'BEAUTIFY': <class 'gluon.html.BEAUTIFY'>, 'BODY': <class 'gluon.html.BODY'>, 'BR': <class 'gluon.html.BR'>, 'BUTTON': <class 'gluon.html.BUTTON'>, 'CAT': <class 'gluon.html.CAT'>, 'CENTER': <class 'gluon.html.CENTER'>, 'CLEANUP': <class 'gluon.validators.CLEANUP'>, ...}"
p3581
sS'ccode'
p3582
S'<code object <module> at 0x1123bcbb0, file "/Use...s/CartesianPlane/controllers/default.py", line 1>'
p3583
ssS'lnum'
p3584
I212
sS'lines'
p3585
(dp3586
I207
S'    try:'
p3587
sI208
S'        if isinstance(code, types.CodeType):'
p3588
sI209
S'            ccode = code'
p3589
sI210
S'        else:'
p3590
sI211
S'            ccode = compile2(code, layer)'
p3591
sI212
S'        exec ccode in environment'
p3592
sI213
S'    except HTTP:'
p3593
sI214
S'        raise'
p3594
sI215
S'    except RestrictedError:'
p3595
sI216
S'        # do not encapsulate (obfuscate) the original RestrictedError'
p3596
ssS'call'
p3597
S"(code='import os\\nimport socket\\nfrom xmlrpclib import Se...urn data\\nresponse._vars=response._caller(applet)\\n', environment={'A': <class 'gluon.html.A'>, 'Auth': <class 'gluon.tools.Auth'>, 'B': <class 'gluon.html.B'>, 'BEAUTIFY': <class 'gluon.html.BEAUTIFY'>, 'BODY': <class 'gluon.html.BODY'>, 'BR': <class 'gluon.html.BR'>, 'BUTTON': <class 'gluon.html.BUTTON'>, 'CAT': <class 'gluon.html.CAT'>, 'CENTER': <class 'gluon.html.CENTER'>, 'CLEANUP': <class 'gluon.validators.CLEANUP'>, ...}, layer='/Users/victorgirotto/Desktop/web2py-master/applications/CartesianPlane/controllers/default.py')"
p3598
sS'func'
p3599
S'restricted'
p3600
sa(dp3601
g3576
S'/Users/victorgirotto/Desktop/web2py-master/applications/CartesianPlane/controllers/default.py'
p3602
sg3578
(dp3603
sg3584
I64
sg3585
(dp3604
I54
S'@service.xmlrpc'
p3605
sI55
S'def executeEvent(data):'
p3606
sI56
S"    db.menuOptions2.update_or_insert(db.menuOptions2.name=='test', name='test', value=data)"
p3607
sI57
S"    websocket_send('http://' + __current_ip + ':' + __socket_port, data, 'mykey', __socket_group_name)"
p3608
sI58
S'    return data'
p3609
sI59
S''
sI60
S'@service.xmlrpc'
p3610
sI61
S'def executeSteps(data):'
p3611
sI62
S"    websocket_send('http://' + __current_ip + ':' + __socket_port, data, 'mykey', __socket_group_name)"
p3612
sI63
S'    return data'
p3613
ssg3597
S'()'
p3614
sg3599
S'<module>'
p3615
sa(dp3616
g3576
S'/Users/victorgirotto/Desktop/web2py-master/gluon/globals.py'
p3617
sg3578
(dp3618
S'self'
p3619
S'undefined'
p3620
sS'f'
S'<function applet>'
p3621
ssg3584
I190
sg3585
(dp3622
I192
S'        self._custom_commit = None'
p3623
sI193
S'        self._custom_rollback = None'
p3624
sI194
S''
sI185
S'        self.menu = []             # used by the default view layout'
p3625
sI186
S'        self.files = []            # used by web2py_ajax.html'
p3626
sI187
S'        self.generic_patterns = []  # patterns to allow generic views'
p3627
sI188
S"        self.delimiters = ('{{', '}}')"
p3628
sI189
S'        self._vars = None'
p3629
sI190
S'        self._caller = lambda f: f()'
p3630
sI191
S'        self._view_environment = None'
p3631
ssg3597
S'(f=<function applet>)'
p3632
sg3599
S'<lambda>'
p3633
sa(dp3634
g3576
S'/Users/victorgirotto/Desktop/web2py-master/applications/CartesianPlane/controllers/default.py'
p3635
sg3578
(dp3636
S'global __current_ip'
p3637
S"'127.0.0.1'"
p3638
sS'global applet'
p3639
S'<function applet>'
p3640
sS'global filename'
p3641
S"'/Users/victorgirotto/Desktop/web2py-master/applications/CartesianPlane/static/geoapp.html'"
p3642
sS'ip'
p3643
g3620
sS'builtinopen'
p3644
S'<built-in function open>'
p3645
sS'group_name'
p3646
g3620
sS'global __socket_group_name'
p3647
S"'applet'"
p3648
sS'global __socket_port'
p3649
S"'8888'"
p3650
sS').read'
p3651
g3620
sS'global XML'
p3652
S"<class 'gluon.html.XML'>"
p3653
sS'port'
p3654
g3620
sS'builtindict'
p3655
S"<type 'dict'>"
p3656
ssg3584
I27
sg3585
(dp3657
I22
S'### end requires'
p3658
sI23
S'def index():'
p3659
sI24
S'    return dict()'
p3660
sI25
S''
sI26
S'def applet():'
p3661
sI27
S'    return dict(applet=XML(open(filename).read()), ip=__current_ip, port=__socket_port, group_name=__socket_group_name)'
p3662
sI28
S''
sI29
S''
sI30
S'def loadOptions():'
p3663
sI31
S'    return server.loadOptions(response.json(request.vars))'
p3664
ssg3597
S'()'
p3665
sg3599
S'applet'
p3666
sasS'pyver'
p3667
S'Python 2.7.2: /usr/bin/python'
p3668
sS'session'
p3669
g62
(g63
g64
NtRp3670
(dp3671
g67
(dp3672
sg69
(lp3673
g62
(g71
g64
NtRp3674
(dp3675
g67
(dp3676
g75
I5
ssg76
Nsg69
(lp3677
sbasbsS'etype'
p3678
S"<type 'exceptions.IOError'>"
p3679
sS'date'
p3680
S'Thu Jan 24 17:08:06 2013'
p3681
sS'response'
p3682
g62
(g63
g64
NtRp3683
(dp3684
g67
(dp3685
sg69
(lp3686
g62
(g71
g64
NtRp3687
(dp3688
g67
(dp3689
g75
I5
ssg76
Nsg69
(lp3690
g62
(g78
g64
NtRp3691
(dp3692
g67
(dp3693
sg76
g3687
sg69
(lp3694
g62
(g83
g64
NtRp3695
(dp3696
g67
(dp3697
g87
g88
ssg76
g3691
sg69
(lp3698
g160
asbag62
(g83
g64
NtRp3699
(dp3700
g67
(dp3701
g94
g95
ssg76
g3691
sg69
(lp3702
S':'
asbag62
(g83
g64
NtRp3703
(dp3704
g67
(dp3705
sg76
g3691
sg69
(lp3706
g62
(g63
g64
NtRp3707
(dp3708
g67
(dp3709
g75
I5
ssg76
g3703
sg69
(lp3710
S'<cStringIO.StringO object at 0x10f007848>'
p3711
asbasbasbag62
(g78
g64
NtRp3712
(dp3713
g67
(dp3714
sg76
g3687
sg69
(lp3715
g62
(g83
g64
NtRp3716
(dp3717
g67
(dp3718
g87
g88
ssg76
g3712
sg69
(lp3719
g248
asbag62
(g83
g64
NtRp3720
(dp3721
g67
(dp3722
g94
g95
ssg76
g3712
sg69
(lp3723
S':'
asbag62
(g83
g64
NtRp3724
(dp3725
g67
(dp3726
sg76
g3712
sg69
(lp3727
g62
(g63
g64
NtRp3728
(dp3729
g67
(dp3730
g75
I5
ssg76
g3724
sg69
(lp3731
g62
(g71
g64
NtRp3732
(dp3733
g67
(dp3734
g75
I4
ssg76
Nsg69
(lp3735
g62
(g78
g64
NtRp3736
(dp3737
g67
(dp3738
sg76
g3732
sg69
(lp3739
g62
(g83
g64
NtRp3740
(dp3741
g67
(dp3742
g87
g88
ssg76
g3736
sg69
(lp3743
S'session_id_cartesianplane'
p3744
asbag62
(g83
g64
NtRp3745
(dp3746
g67
(dp3747
g94
g95
ssg76
g3736
sg69
(lp3748
S':'
asbag62
(g83
g64
NtRp3749
(dp3750
g67
(dp3751
sg76
g3736
sg69
(lp3752
g62
(g63
g64
NtRp3753
(dp3754
g67
(dp3755
g75
I4
ssg76
g3749
sg69
(lp3756
S'127.0.0.1-214c2423-dd47-4423-84fd-bb8184105d2f'
p3757
ag62
(g71
g64
NtRp3758
(dp3759
g67
(dp3760
g75
I3
ssg76
Nsg69
(lp3761
g62
(g78
g64
NtRp3762
(dp3763
g67
(dp3764
sg76
g3758
sg69
(lp3765
g62
(g83
g64
NtRp3766
(dp3767
g67
(dp3768
g87
g88
ssg76
g3762
sg69
(lp3769
g299
asbag62
(g83
g64
NtRp3770
(dp3771
g67
(dp3772
g94
g95
ssg76
g3762
sg69
(lp3773
S':'
asbag62
(g83
g64
NtRp3774
(dp3775
g67
(dp3776
sg76
g3762
sg69
(lp3777
g62
(g63
g64
NtRp3778
(dp3779
g67
(dp3780
g75
I3
ssg76
g3774
sg69
(lp3781
S''
asbasbasbag62
(g78
g64
NtRp3782
(dp3783
g67
(dp3784
sg76
g3758
sg69
(lp3785
g62
(g83
g64
NtRp3786
(dp3787
g67
(dp3788
g87
g88
ssg76
g3782
sg69
(lp3789
g320
asbag62
(g83
g64
NtRp3790
(dp3791
g67
(dp3792
g94
g95
ssg76
g3782
sg69
(lp3793
S':'
asbag62
(g83
g64
NtRp3794
(dp3795
g67
(dp3796
sg76
g3782
sg69
(lp3797
g62
(g63
g64
NtRp3798
(dp3799
g67
(dp3800
g75
I3
ssg76
g3794
sg69
(lp3801
S''
asbasbasbag62
(g78
g64
NtRp3802
(dp3803
g67
(dp3804
sg76
g3758
sg69
(lp3805
g62
(g83
g64
NtRp3806
(dp3807
g67
(dp3808
g87
g88
ssg76
g3802
sg69
(lp3809
g341
asbag62
(g83
g64
NtRp3810
(dp3811
g67
(dp3812
g94
g95
ssg76
g3802
sg69
(lp3813
S':'
asbag62
(g83
g64
NtRp3814
(dp3815
g67
(dp3816
sg76
g3802
sg69
(lp3817
g62
(g63
g64
NtRp3818
(dp3819
g67
(dp3820
g75
I3
ssg76
g3814
sg69
(lp3821
S''
asbasbasbag62
(g78
g64
NtRp3822
(dp3823
g67
(dp3824
sg76
g3758
sg69
(lp3825
g62
(g83
g64
NtRp3826
(dp3827
g67
(dp3828
g87
g88
ssg76
g3822
sg69
(lp3829
g362
asbag62
(g83
g64
NtRp3830
(dp3831
g67
(dp3832
g94
g95
ssg76
g3822
sg69
(lp3833
S':'
asbag62
(g83
g64
NtRp3834
(dp3835
g67
(dp3836
sg76
g3822
sg69
(lp3837
g62
(g63
g64
NtRp3838
(dp3839
g67
(dp3840
g75
I3
ssg76
g3834
sg69
(lp3841
S''
asbasbasbag62
(g78
g64
NtRp3842
(dp3843
g67
(dp3844
sg76
g3758
sg69
(lp3845
g62
(g83
g64
NtRp3846
(dp3847
g67
(dp3848
g87
g88
ssg76
g3842
sg69
(lp3849
g383
asbag62
(g83
g64
NtRp3850
(dp3851
g67
(dp3852
g94
g95
ssg76
g3842
sg69
(lp3853
S':'
asbag62
(g83
g64
NtRp3854
(dp3855
g67
(dp3856
sg76
g3842
sg69
(lp3857
g62
(g63
g64
NtRp3858
(dp3859
g67
(dp3860
g75
I3
ssg76
g3854
sg69
(lp3861
S''
asbasbasbag62
(g78
g64
NtRp3862
(dp3863
g67
(dp3864
sg76
g3758
sg69
(lp3865
g62
(g83
g64
NtRp3866
(dp3867
g67
(dp3868
g87
g88
ssg76
g3862
sg69
(lp3869
g404
asbag62
(g83
g64
NtRp3870
(dp3871
g67
(dp3872
g94
g95
ssg76
g3862
sg69
(lp3873
S':'
asbag62
(g83
g64
NtRp3874
(dp3875
g67
(dp3876
sg76
g3862
sg69
(lp3877
g62
(g63
g64
NtRp3878
(dp3879
g67
(dp3880
g75
I3
ssg76
g3874
sg69
(lp3881
S'/'
asbasbasbag62
(g78
g64
NtRp3882
(dp3883
g67
(dp3884
sg76
g3758
sg69
(lp3885
g62
(g83
g64
NtRp3886
(dp3887
g67
(dp3888
g87
g88
ssg76
g3882
sg69
(lp3889
g425
asbag62
(g83
g64
NtRp3890
(dp3891
g67
(dp3892
g94
g95
ssg76
g3882
sg69
(lp3893
S':'
asbag62
(g83
g64
NtRp3894
(dp3895
g67
(dp3896
sg76
g3882
sg69
(lp3897
g62
(g63
g64
NtRp3898
(dp3899
g67
(dp3900
g75
I3
ssg76
g3894
sg69
(lp3901
S''
asbasbasbag62
(g78
g64
NtRp3902
(dp3903
g67
(dp3904
sg76
g3758
sg69
(lp3905
g62
(g83
g64
NtRp3906
(dp3907
g67
(dp3908
g87
g88
ssg76
g3902
sg69
(lp3909
g446
asbag62
(g83
g64
NtRp3910
(dp3911
g67
(dp3912
g94
g95
ssg76
g3902
sg69
(lp3913
S':'
asbag62
(g83
g64
NtRp3914
(dp3915
g67
(dp3916
sg76
g3902
sg69
(lp3917
g62
(g63
g64
NtRp3918
(dp3919
g67
(dp3920
g75
I3
ssg76
g3914
sg69
(lp3921
S''
asbasbasbasbasbasbasbasbasbasbasbag62
(g78
g64
NtRp3922
(dp3923
g67
(dp3924
sg76
g3687
sg69
(lp3925
g62
(g83
g64
NtRp3926
(dp3927
g67
(dp3928
g87
g88
ssg76
g3922
sg69
(lp3929
S'delimiters'
p3930
asbag62
(g83
g64
NtRp3931
(dp3932
g67
(dp3933
g94
g95
ssg76
g3922
sg69
(lp3934
S':'
asbag62
(g83
g64
NtRp3935
(dp3936
g67
(dp3937
sg76
g3922
sg69
(lp3938
g62
(g63
g64
NtRp3939
(dp3940
g67
(dp3941
g75
I5
ssg76
g3935
sg69
(lp3942
g62
(g71
g64
NtRp3943
(dp3944
g67
(dp3945
g75
I4
ssg76
Nsg69
(lp3946
g62
(g78
g64
NtRp3947
(dp3948
g67
(dp3949
sg76
g3943
sg69
(lp3950
g62
(g83
g64
NtRp3951
(dp3952
g67
(dp3953
sg76
g3947
sg69
(lp3954
g62
(g63
g64
NtRp3955
(dp3956
g67
(dp3957
g75
I4
ssg76
g3951
sg69
(lp3958
S'{{'
p3959
asbasbasbag62
(g78
g64
NtRp3960
(dp3961
g67
(dp3962
sg76
g3943
sg69
(lp3963
g62
(g83
g64
NtRp3964
(dp3965
g67
(dp3966
sg76
g3960
sg69
(lp3967
g62
(g63
g64
NtRp3968
(dp3969
g67
(dp3970
g75
I4
ssg76
g3964
sg69
(lp3971
S'}}'
p3972
asbasbasbasbasbasbasbag62
(g78
g64
NtRp3973
(dp3974
g67
(dp3975
sg76
g3687
sg69
(lp3976
g62
(g83
g64
NtRp3977
(dp3978
g67
(dp3979
g87
g88
ssg76
g3973
sg69
(lp3980
S'files'
p3981
asbag62
(g83
g64
NtRp3982
(dp3983
g67
(dp3984
g94
g95
ssg76
g3973
sg69
(lp3985
S':'
asbag62
(g83
g64
NtRp3986
(dp3987
g67
(dp3988
sg76
g3973
sg69
(lp3989
g62
(g63
g64
NtRp3990
(dp3991
g67
(dp3992
g75
I5
ssg76
g3986
sg69
(lp3993
g62
(g71
g64
NtRp3994
(dp3995
g67
(dp3996
g75
I4
ssg76
Nsg69
(lp3997
sbasbasbasbag62
(g78
g64
NtRp3998
(dp3999
g67
(dp4000
sg76
g3687
sg69
(lp4001
g62
(g83
g64
NtRp4002
(dp4003
g67
(dp4004
g87
g88
ssg76
g3998
sg69
(lp4005
S'flash'
p4006
asbag62
(g83
g64
NtRp4007
(dp4008
g67
(dp4009
g94
g95
ssg76
g3998
sg69
(lp4010
S':'
asbag62
(g83
g64
NtRp4011
(dp4012
g67
(dp4013
sg76
g3998
sg69
(lp4014
g62
(g63
g64
NtRp4015
(dp4016
g67
(dp4017
g75
I5
ssg76
g4011
sg69
(lp4018
S''
asbasbasbag62
(g78
g64
NtRp4019
(dp4020
g67
(dp4021
sg76
g3687
sg69
(lp4022
g62
(g83
g64
NtRp4023
(dp4024
g67
(dp4025
g87
g88
ssg76
g4019
sg69
(lp4026
S'generic_patterns'
p4027
asbag62
(g83
g64
NtRp4028
(dp4029
g67
(dp4030
g94
g95
ssg76
g4019
sg69
(lp4031
S':'
asbag62
(g83
g64
NtRp4032
(dp4033
g67
(dp4034
sg76
g4019
sg69
(lp4035
g62
(g63
g64
NtRp4036
(dp4037
g67
(dp4038
g75
I5
ssg76
g4032
sg69
(lp4039
g62
(g71
g64
NtRp4040
(dp4041
g67
(dp4042
g75
I4
ssg76
Nsg69
(lp4043
g62
(g78
g64
NtRp4044
(dp4045
g67
(dp4046
sg76
g4040
sg69
(lp4047
g62
(g83
g64
NtRp4048
(dp4049
g67
(dp4050
sg76
g4044
sg69
(lp4051
g62
(g63
g64
NtRp4052
(dp4053
g67
(dp4054
g75
I4
ssg76
g4048
sg69
(lp4055
S'*'
asbasbasbasbasbasbasbag62
(g78
g64
NtRp4056
(dp4057
g67
(dp4058
sg76
g3687
sg69
(lp4059
g62
(g83
g64
NtRp4060
(dp4061
g67
(dp4062
g87
g88
ssg76
g4056
sg69
(lp4063
S'google_analytics_id'
p4064
asbag62
(g83
g64
NtRp4065
(dp4066
g67
(dp4067
g94
g95
ssg76
g4056
sg69
(lp4068
S':'
asbag62
(g83
g64
NtRp4069
(dp4070
g67
(dp4071
sg76
g4056
sg69
(lp4072
g62
(g63
g64
NtRp4073
(dp4074
g67
(dp4075
g75
I5
ssg76
g4069
sg69
(lp4076
S'None'
p4077
asbasbasbag62
(g78
g64
NtRp4078
(dp4079
g67
(dp4080
sg76
g3687
sg69
(lp4081
g62
(g83
g64
NtRp4082
(dp4083
g67
(dp4084
g87
g88
ssg76
g4078
sg69
(lp4085
S'headers'
p4086
asbag62
(g83
g64
NtRp4087
(dp4088
g67
(dp4089
g94
g95
ssg76
g4078
sg69
(lp4090
S':'
asbag62
(g83
g64
NtRp4091
(dp4092
g67
(dp4093
sg76
g4078
sg69
(lp4094
g62
(g63
g64
NtRp4095
(dp4096
g67
(dp4097
g75
I5
ssg76
g4091
sg69
(lp4098
g62
(g71
g64
NtRp4099
(dp4100
g67
(dp4101
g75
I4
ssg76
Nsg69
(lp4102
g62
(g78
g64
NtRp4103
(dp4104
g67
(dp4105
sg76
g4099
sg69
(lp4106
g62
(g83
g64
NtRp4107
(dp4108
g67
(dp4109
g87
g88
ssg76
g4103
sg69
(lp4110
S'X-Powered-By'
p4111
asbag62
(g83
g64
NtRp4112
(dp4113
g67
(dp4114
g94
g95
ssg76
g4103
sg69
(lp4115
S':'
asbag62
(g83
g64
NtRp4116
(dp4117
g67
(dp4118
sg76
g4103
sg69
(lp4119
g62
(g63
g64
NtRp4120
(dp4121
g67
(dp4122
g75
I4
ssg76
g4116
sg69
(lp4123
S'web2py'
p4124
asbasbasbasbasbasbasbag62
(g78
g64
NtRp4125
(dp4126
g67
(dp4127
sg76
g3687
sg69
(lp4128
g62
(g83
g64
NtRp4129
(dp4130
g67
(dp4131
g87
g88
ssg76
g4125
sg69
(lp4132
S'menu'
p4133
asbag62
(g83
g64
NtRp4134
(dp4135
g67
(dp4136
g94
g95
ssg76
g4125
sg69
(lp4137
S':'
asbag62
(g83
g64
NtRp4138
(dp4139
g67
(dp4140
sg76
g4125
sg69
(lp4141
g62
(g63
g64
NtRp4142
(dp4143
g67
(dp4144
g75
I5
ssg76
g4138
sg69
(lp4145
g62
(g71
g64
NtRp4146
(dp4147
g67
(dp4148
g75
I4
ssg76
Nsg69
(lp4149
g62
(g78
g64
NtRp4150
(dp4151
g67
(dp4152
sg76
g4146
sg69
(lp4153
g62
(g83
g64
NtRp4154
(dp4155
g67
(dp4156
sg76
g4150
sg69
(lp4157
g62
(g63
g64
NtRp4158
(dp4159
g67
(dp4160
g75
I4
ssg76
g4154
sg69
(lp4161
g62
(g71
g64
NtRp4162
(dp4163
g67
(dp4164
g75
I3
ssg76
Nsg69
(lp4165
g62
(g78
g64
NtRp4166
(dp4167
g67
(dp4168
sg76
g4162
sg69
(lp4169
g62
(g83
g64
NtRp4170
(dp4171
g67
(dp4172
sg76
g4166
sg69
(lp4173
g62
(g63
g64
NtRp4174
(dp4175
g67
(dp4176
g75
I3
ssg76
g4170
sg69
(lp4177
cgluon.languages
lazyT_unpickle
p4178
(S's\x04\x00\x00\x00Home'
tRp4179
asbasbasbag62
(g78
g64
NtRp4180
(dp4181
g67
(dp4182
sg76
g4162
sg69
(lp4183
g62
(g83
g64
NtRp4184
(dp4185
g67
(dp4186
sg76
g4180
sg69
(lp4187
g62
(g63
g64
NtRp4188
(dp4189
g67
(dp4190
g75
I3
ssg76
g4184
sg69
(lp4191
g105
asbasbasbag62
(g78
g64
NtRp4192
(dp4193
g67
(dp4194
sg76
g4162
sg69
(lp4195
g62
(g83
g64
NtRp4196
(dp4197
g67
(dp4198
sg76
g4192
sg69
(lp4199
g62
(g63
g64
NtRp4200
(dp4201
g67
(dp4202
g75
I3
ssg76
g4196
sg69
(lp4203
S'/CartesianPlane/default/index'
p4204
asbasbasbag62
(g78
g64
NtRp4205
(dp4206
g67
(dp4207
sg76
g4162
sg69
(lp4208
g62
(g83
g64
NtRp4209
(dp4210
g67
(dp4211
sg76
g4205
sg69
(lp4212
g62
(g63
g64
NtRp4213
(dp4214
g67
(dp4215
g75
I3
ssg76
g4209
sg69
(lp4216
g62
(g71
g64
NtRp4217
(dp4218
g67
(dp4219
g75
I2
ssg76
Nsg69
(lp4220
sbasbasbasbasbasbasbasbag62
(g78
g64
NtRp4221
(dp4222
g67
(dp4223
sg76
g4146
sg69
(lp4224
g62
(g83
g64
NtRp4225
(dp4226
g67
(dp4227
sg76
g4221
sg69
(lp4228
g62
(g63
g64
NtRp4229
(dp4230
g67
(dp4231
g75
I4
ssg76
g4225
sg69
(lp4232
g62
(g71
g64
NtRp4233
(dp4234
g67
(dp4235
g75
I3
ssg76
Nsg69
(lp4236
g62
(g78
g64
NtRp4237
(dp4238
g67
(dp4239
sg76
g4233
sg69
(lp4240
g62
(g83
g64
NtRp4241
(dp4242
g67
(dp4243
sg76
g4237
sg69
(lp4244
g62
(g63
g64
NtRp4245
(dp4246
g67
(dp4247
g75
I3
ssg76
g4241
sg69
(lp4248
g62
(cgluon.html
SPAN
p4249
g64
NtRp4250
(dp4251
g67
(dp4252
S'_class'
p4253
S'highlighted'
p4254
ssg76
Nsg69
(lp4255
g4124
asbasbasbasbag62
(g78
g64
NtRp4256
(dp4257
g67
(dp4258
sg76
g4233
sg69
(lp4259
g62
(g83
g64
NtRp4260
(dp4261
g67
(dp4262
sg76
g4256
sg69
(lp4263
g62
(g63
g64
NtRp4264
(dp4265
g67
(dp4266
g75
I3
ssg76
g4260
sg69
(lp4267
g105
asbasbasbag62
(g78
g64
NtRp4268
(dp4269
g67
(dp4270
sg76
g4233
sg69
(lp4271
g62
(g83
g64
NtRp4272
(dp4273
g67
(dp4274
sg76
g4268
sg69
(lp4275
g62
(g63
g64
NtRp4276
(dp4277
g67
(dp4278
g75
I3
ssg76
g4272
sg69
(lp4279
S'http://web2py.com'
p4280
asbasbasbag62
(g78
g64
NtRp4281
(dp4282
g67
(dp4283
sg76
g4233
sg69
(lp4284
g62
(g83
g64
NtRp4285
(dp4286
g67
(dp4287
sg76
g4281
sg69
(lp4288
g62
(g63
g64
NtRp4289
(dp4290
g67
(dp4291
g75
I3
ssg76
g4285
sg69
(lp4292
g62
(g71
g64
NtRp4293
(dp4294
g67
(dp4295
g75
I2
ssg76
Nsg69
(lp4296
g62
(g78
g64
NtRp4297
(dp4298
g67
(dp4299
sg76
g4293
sg69
(lp4300
g62
(g83
g64
NtRp4301
(dp4302
g67
(dp4303
sg76
g4297
sg69
(lp4304
g62
(g63
g64
NtRp4305
(dp4306
g67
(dp4307
g75
I2
ssg76
g4301
sg69
(lp4308
g62
(g71
g64
NtRp4309
(dp4310
g67
(dp4311
g75
I1
ssg76
Nsg69
(lp4312
g62
(g78
g64
NtRp4313
(dp4314
g67
(dp4315
sg76
g4309
sg69
(lp4316
g62
(g83
g64
NtRp4317
(dp4318
g67
(dp4319
sg76
g4313
sg69
(lp4320
g62
(g63
g64
NtRp4321
(dp4322
g67
(dp4323
g75
I1
ssg76
g4317
sg69
(lp4324
g4178
(S's\x08\x00\x00\x00My Sites'
tRp4325
asbasbasbag62
(g78
g64
NtRp4326
(dp4327
g67
(dp4328
sg76
g4309
sg69
(lp4329
g62
(g83
g64
NtRp4330
(dp4331
g67
(dp4332
sg76
g4326
sg69
(lp4333
g62
(g63
g64
NtRp4334
(dp4335
g67
(dp4336
g75
I1
ssg76
g4330
sg69
(lp4337
I00
asbasbasbag62
(g78
g64
NtRp4338
(dp4339
g67
(dp4340
sg76
g4309
sg69
(lp4341
g62
(g83
g64
NtRp4342
(dp4343
g67
(dp4344
sg76
g4338
sg69
(lp4345
g62
(g63
g64
NtRp4346
(dp4347
g67
(dp4348
g75
I1
ssg76
g4342
sg69
(lp4349
S'/admin/default/site'
p4350
asbasbasbasbasbasbasbag62
(g78
g64
NtRp4351
(dp4352
g67
(dp4353
sg76
g4293
sg69
(lp4354
g62
(g83
g64
NtRp4355
(dp4356
g67
(dp4357
sg76
g4351
sg69
(lp4358
g62
(g63
g64
NtRp4359
(dp4360
g67
(dp4361
g75
I2
ssg76
g4355
sg69
(lp4362
g62
(g71
g64
NtRp4363
(dp4364
g67
(dp4365
g75
I1
ssg76
Nsg69
(lp4366
g62
(g78
g64
NtRp4367
(dp4368
g67
(dp4369
sg76
g4363
sg69
(lp4370
g62
(g83
g64
NtRp4371
(dp4372
g67
(dp4373
sg76
g4367
sg69
(lp4374
g62
(g63
g64
NtRp4375
(dp4376
g67
(dp4377
g75
I1
ssg76
g4371
sg69
(lp4378
g4178
(S's\x08\x00\x00\x00This App'
tRp4379
asbasbasbag62
(g78
g64
NtRp4380
(dp4381
g67
(dp4382
sg76
g4363
sg69
(lp4383
g62
(g83
g64
NtRp4384
(dp4385
g67
(dp4386
sg76
g4380
sg69
(lp4387
g62
(g63
g64
NtRp4388
(dp4389
g67
(dp4390
g75
I1
ssg76
g4384
sg69
(lp4391
I00
asbasbasbag62
(g78
g64
NtRp4392
(dp4393
g67
(dp4394
sg76
g4363
sg69
(lp4395
g62
(g83
g64
NtRp4396
(dp4397
g67
(dp4398
sg76
g4392
sg69
(lp4399
g62
(g63
g64
NtRp4400
(dp4401
g67
(dp4402
g75
I1
ssg76
g4396
sg69
(lp4403
S'/admin/default/design/CartesianPlane'
p4404
asbasbasbag62
(g78
g64
NtRp4405
(dp4406
g67
(dp4407
sg76
g4363
sg69
(lp4408
g62
(g83
g64
NtRp4409
(dp4410
g67
(dp4411
sg76
g4405
sg69
(lp4412
g62
(g63
g64
NtRp4413
(dp4414
g67
(dp4415
g75
I1
ssg76
g4409
sg69
(lp4416
(lp4417
(g4178
(S's\x0b\x00\x00\x00Controlador'
tRp4418
I00
S'/admin/default/edit/CartesianPlane/controllers/default.py'
tp4419
a(g4178
(S's\x0e\x00\x00\x00Visualiza\xc3\xa7\xc3\xa3o'
tRp4420
I00
S'/admin/default/edit/CartesianPlane/views/default/applet.html'
tp4421
a(g4178
(S's\x06\x00\x00\x00Layout'
tRp4422
I00
S'/admin/default/edit/CartesianPlane/views/layout.html'
tp4423
a(g4178
(S's\n\x00\x00\x00Stylesheet'
tRp4424
I00
S'/admin/default/edit/CartesianPlane/static/css/web2py.css'
tp4425
a(g4178
(S's\t\x00\x00\x00Modelo BD'
tRp4426
I00
S'/admin/default/edit/CartesianPlane/models/db.py'
tp4427
a(g4178
(S's\x0e\x00\x00\x00Modelo de Menu'
tRp4428
I00
S'/admin/default/edit/CartesianPlane/models/menu.py'
tp4429
a(g4178
(S's\x0e\x00\x00\x00banco de dados'
tRp4430
I00
S'/CartesianPlane/appadmin/index'
tp4431
a(g4178
(S's\x06\x00\x00\x00Errors'
tRp4432
I00
S'/admin/default/errors/CartesianPlane'
tp4433
a(g4178
(S's\x05\x00\x00\x00About'
tRp4434
I00
S'/admin/default/about/CartesianPlane'
tp4435
aasbasbasbasbasbasbasbag62
(g78
g64
NtRp4436
(dp4437
g67
(dp4438
sg76
g4293
sg69
(lp4439
g62
(g83
g64
NtRp4440
(dp4441
g67
(dp4442
sg76
g4436
sg69
(lp4443
g62
(g63
g64
NtRp4444
(dp4445
g67
(dp4446
g75
I2
ssg76
g4440
sg69
(lp4447
g62
(g71
g64
NtRp4448
(dp4449
g67
(dp4450
g75
I1
ssg76
Nsg69
(lp4451
g62
(g78
g64
NtRp4452
(dp4453
g67
(dp4454
sg76
g4448
sg69
(lp4455
g62
(g83
g64
NtRp4456
(dp4457
g67
(dp4458
sg76
g4452
sg69
(lp4459
g62
(g63
g64
NtRp4460
(dp4461
g67
(dp4462
g75
I1
ssg76
g4456
sg69
(lp4463
S'web2py.com'
p4464
asbasbasbag62
(g78
g64
NtRp4465
(dp4466
g67
(dp4467
sg76
g4448
sg69
(lp4468
g62
(g83
g64
NtRp4469
(dp4470
g67
(dp4471
sg76
g4465
sg69
(lp4472
g62
(g63
g64
NtRp4473
(dp4474
g67
(dp4475
g75
I1
ssg76
g4469
sg69
(lp4476
I00
asbasbasbag62
(g78
g64
NtRp4477
(dp4478
g67
(dp4479
sg76
g4448
sg69
(lp4480
g62
(g83
g64
NtRp4481
(dp4482
g67
(dp4483
sg76
g4477
sg69
(lp4484
g62
(g63
g64
NtRp4485
(dp4486
g67
(dp4487
g75
I1
ssg76
g4481
sg69
(lp4488
S'http://www.web2py.com'
p4489
asbasbasbag62
(g78
g64
NtRp4490
(dp4491
g67
(dp4492
sg76
g4448
sg69
(lp4493
g62
(g83
g64
NtRp4494
(dp4495
g67
(dp4496
sg76
g4490
sg69
(lp4497
g62
(g63
g64
NtRp4498
(dp4499
g67
(dp4500
g75
I1
ssg76
g4494
sg69
(lp4501
(lp4502
(g4178
(S's\x08\x00\x00\x00Download'
tRp4503
I00
S'http://www.web2py.com/examples/default/download'
p4504
tp4505
a(g4178
(S's\x07\x00\x00\x00Support'
tRp4506
I00
S'http://www.web2py.com/examples/default/support'
p4507
tp4508
a(g4178
(S's\x04\x00\x00\x00Demo'
tRp4509
I00
S'http://web2py.com/demo_admin'
p4510
tp4511
a(g4178
(S's\x0e\x00\x00\x00Quick Examples'
tRp4512
I00
S'http://web2py.com/examples/default/examples'
p4513
tp4514
a(g4178
(S's\x03\x00\x00\x00FAQ'
tRp4515
I00
S'http://web2py.com/AlterEgo'
p4516
tp4517
a(g4178
(S's\x06\x00\x00\x00Videos'
tRp4518
I00
S'http://www.web2py.com/examples/default/videos/'
p4519
tp4520
a(g4178
(S's\x11\x00\x00\x00Free Applications'
tRp4521
I00
S'http://web2py.com/appliances'
p4522
tp4523
a(g4178
(S's\x07\x00\x00\x00Plugins'
tRp4524
I00
S'http://web2py.com/plugins'
p4525
tp4526
a(g4178
(S's\x07\x00\x00\x00Layouts'
tRp4527
I00
S'http://web2py.com/layouts'
p4528
tp4529
a(g4178
(S's\x07\x00\x00\x00Recipes'
tRp4530
I00
S'http://web2pyslices.com/'
p4531
tp4532
a(g4178
(S's\x08\x00\x00\x00Semantic'
tRp4533
I00
S'http://web2py.com/semantic'
p4534
tp4535
aasbasbasbasbasbasbasbag62
(g78
g64
NtRp4536
(dp4537
g67
(dp4538
sg76
g4293
sg69
(lp4539
g62
(g83
g64
NtRp4540
(dp4541
g67
(dp4542
sg76
g4536
sg69
(lp4543
g62
(g63
g64
NtRp4544
(dp4545
g67
(dp4546
g75
I2
ssg76
g4540
sg69
(lp4547
g62
(g71
g64
NtRp4548
(dp4549
g67
(dp4550
g75
I1
ssg76
Nsg69
(lp4551
g62
(g78
g64
NtRp4552
(dp4553
g67
(dp4554
sg76
g4548
sg69
(lp4555
g62
(g83
g64
NtRp4556
(dp4557
g67
(dp4558
sg76
g4552
sg69
(lp4559
g62
(g63
g64
NtRp4560
(dp4561
g67
(dp4562
g75
I1
ssg76
g4556
sg69
(lp4563
g4178
(S's\r\x00\x00\x00Documentation'
tRp4564
asbasbasbag62
(g78
g64
NtRp4565
(dp4566
g67
(dp4567
sg76
g4548
sg69
(lp4568
g62
(g83
g64
NtRp4569
(dp4570
g67
(dp4571
sg76
g4565
sg69
(lp4572
g62
(g63
g64
NtRp4573
(dp4574
g67
(dp4575
g75
I1
ssg76
g4569
sg69
(lp4576
I00
asbasbasbag62
(g78
g64
NtRp4577
(dp4578
g67
(dp4579
sg76
g4548
sg69
(lp4580
g62
(g83
g64
NtRp4581
(dp4582
g67
(dp4583
sg76
g4577
sg69
(lp4584
g62
(g63
g64
NtRp4585
(dp4586
g67
(dp4587
g75
I1
ssg76
g4581
sg69
(lp4588
S'http://www.web2py.com/book'
p4589
asbasbasbag62
(g78
g64
NtRp4590
(dp4591
g67
(dp4592
sg76
g4548
sg69
(lp4593
g62
(g83
g64
NtRp4594
(dp4595
g67
(dp4596
sg76
g4590
sg69
(lp4597
g62
(g63
g64
NtRp4598
(dp4599
g67
(dp4600
g75
I1
ssg76
g4594
sg69
(lp4601
(lp4602
(g4178
(S's\x07\x00\x00\x00Preface'
tRp4603
I00
S'http://www.web2py.com/book/default/chapter/00'
p4604
tp4605
a(g4178
(S's\x0c\x00\x00\x00Introduction'
tRp4606
I00
S'http://www.web2py.com/book/default/chapter/01'
p4607
tp4608
a(g4178
(S's\x06\x00\x00\x00Python'
tRp4609
I00
S'http://www.web2py.com/book/default/chapter/02'
p4610
tp4611
a(g4178
(S's\x08\x00\x00\x00Overview'
tRp4612
I00
S'http://www.web2py.com/book/default/chapter/03'
p4613
tp4614
a(g4178
(S's\x08\x00\x00\x00The Core'
tRp4615
I00
S'http://www.web2py.com/book/default/chapter/04'
p4616
tp4617
a(g4178
(S's\t\x00\x00\x00The Views'
tRp4618
I00
S'http://www.web2py.com/book/default/chapter/05'
p4619
tp4620
a(g4178
(S's\x0e\x00\x00\x00banco de dados'
tRp4621
I00
S'http://www.web2py.com/book/default/chapter/06'
p4622
tp4623
a(g4178
(S's\x14\x00\x00\x00Forms and Validators'
tRp4624
I00
S'http://www.web2py.com/book/default/chapter/07'
p4625
tp4626
a(g4178
(S's\r\x00\x00\x00Email and SMS'
tRp4627
I00
S'http://www.web2py.com/book/default/chapter/08'
p4628
tp4629
a(g4178
(S's\x0e\x00\x00\x00Access Control'
tRp4630
I00
S'http://www.web2py.com/book/default/chapter/09'
p4631
tp4632
a(g4178
(S's\x08\x00\x00\x00Services'
tRp4633
I00
S'http://www.web2py.com/book/default/chapter/10'
p4634
tp4635
a(g4178
(S's\x0c\x00\x00\x00Ajax Recipes'
tRp4636
I00
S'http://www.web2py.com/book/default/chapter/11'
p4637
tp4638
a(g4178
(S's\x16\x00\x00\x00Components and Plugins'
tRp4639
I00
S'http://www.web2py.com/book/default/chapter/12'
p4640
tp4641
a(g4178
(S's\x12\x00\x00\x00Deployment Recipes'
tRp4642
I00
S'http://www.web2py.com/book/default/chapter/13'
p4643
tp4644
a(g4178
(S's\r\x00\x00\x00Other Recipes'
tRp4645
I00
S'http://www.web2py.com/book/default/chapter/14'
p4646
tp4647
a(g4178
(S's\r\x00\x00\x00Buy this book'
tRp4648
I00
S'http://stores.lulu.com/web2py'
p4649
tp4650
aasbasbasbasbasbasbasbag62
(g78
g64
NtRp4651
(dp4652
g67
(dp4653
sg76
g4293
sg69
(lp4654
g62
(g83
g64
NtRp4655
(dp4656
g67
(dp4657
sg76
g4651
sg69
(lp4658
g62
(g63
g64
NtRp4659
(dp4660
g67
(dp4661
g75
I2
ssg76
g4655
sg69
(lp4662
g62
(g71
g64
NtRp4663
(dp4664
g67
(dp4665
g75
I1
ssg76
Nsg69
(lp4666
g62
(g78
g64
NtRp4667
(dp4668
g67
(dp4669
sg76
g4663
sg69
(lp4670
g62
(g83
g64
NtRp4671
(dp4672
g67
(dp4673
sg76
g4667
sg69
(lp4674
g62
(g63
g64
NtRp4675
(dp4676
g67
(dp4677
g75
I1
ssg76
g4671
sg69
(lp4678
g4178
(S's\t\x00\x00\x00Community'
tRp4679
asbasbasbag62
(g78
g64
NtRp4680
(dp4681
g67
(dp4682
sg76
g4663
sg69
(lp4683
g62
(g83
g64
NtRp4684
(dp4685
g67
(dp4686
sg76
g4680
sg69
(lp4687
g62
(g63
g64
NtRp4688
(dp4689
g67
(dp4690
g75
I1
ssg76
g4684
sg69
(lp4691
I00
asbasbasbag62
(g78
g64
NtRp4692
(dp4693
g67
(dp4694
sg76
g4663
sg69
(lp4695
g62
(g83
g64
NtRp4696
(dp4697
g67
(dp4698
sg76
g4692
sg69
(lp4699
g62
(g63
g64
NtRp4700
(dp4701
g67
(dp4702
g75
I1
ssg76
g4696
sg69
(lp4703
Nasbasbasbag62
(g78
g64
NtRp4704
(dp4705
g67
(dp4706
sg76
g4663
sg69
(lp4707
g62
(g83
g64
NtRp4708
(dp4709
g67
(dp4710
sg76
g4704
sg69
(lp4711
g62
(g63
g64
NtRp4712
(dp4713
g67
(dp4714
g75
I1
ssg76
g4708
sg69
(lp4715
(lp4716
(g4178
(S's\x06\x00\x00\x00Groups'
tRp4717
I00
S'http://www.web2py.com/examples/default/usergroups'
p4718
tp4719
a(g4178
(S's\x07\x00\x00\x00Twitter'
tRp4720
I00
S'http://twitter.com/web2py'
p4721
tp4722
a(g4178
(S's\t\x00\x00\x00Live Chat'
tRp4723
I00
S'http://webchat.freenode.net/?channels=web2py'
p4724
tp4725
aasbasbasbasbasbasbasbag62
(g78
g64
NtRp4726
(dp4727
g67
(dp4728
sg76
g4293
sg69
(lp4729
g62
(g83
g64
NtRp4730
(dp4731
g67
(dp4732
sg76
g4726
sg69
(lp4733
g62
(g63
g64
NtRp4734
(dp4735
g67
(dp4736
g75
I2
ssg76
g4730
sg69
(lp4737
g62
(g71
g64
NtRp4738
(dp4739
g67
(dp4740
g75
I1
ssg76
Nsg69
(lp4741
g62
(g78
g64
NtRp4742
(dp4743
g67
(dp4744
sg76
g4738
sg69
(lp4745
g62
(g83
g64
NtRp4746
(dp4747
g67
(dp4748
sg76
g4742
sg69
(lp4749
g62
(g63
g64
NtRp4750
(dp4751
g67
(dp4752
g75
I1
ssg76
g4746
sg69
(lp4753
g4178
(S's\x07\x00\x00\x00Plugins'
tRp4754
asbasbasbag62
(g78
g64
NtRp4755
(dp4756
g67
(dp4757
sg76
g4738
sg69
(lp4758
g62
(g83
g64
NtRp4759
(dp4760
g67
(dp4761
sg76
g4755
sg69
(lp4762
g62
(g63
g64
NtRp4763
(dp4764
g67
(dp4765
g75
I1
ssg76
g4759
sg69
(lp4766
I00
asbasbasbag62
(g78
g64
NtRp4767
(dp4768
g67
(dp4769
sg76
g4738
sg69
(lp4770
g62
(g83
g64
NtRp4771
(dp4772
g67
(dp4773
sg76
g4767
sg69
(lp4774
g62
(g63
g64
NtRp4775
(dp4776
g67
(dp4777
g75
I1
ssg76
g4771
sg69
(lp4778
Nasbasbasbag62
(g78
g64
NtRp4779
(dp4780
g67
(dp4781
sg76
g4738
sg69
(lp4782
g62
(g83
g64
NtRp4783
(dp4784
g67
(dp4785
sg76
g4779
sg69
(lp4786
g62
(g63
g64
NtRp4787
(dp4788
g67
(dp4789
g75
I1
ssg76
g4783
sg69
(lp4790
(lp4791
(S'plugin_wiki'
p4792
I00
S'http://web2py.com/examples/default/download'
p4793
tp4794
a(g4178
(S's\r\x00\x00\x00Other Plugins'
tRp4795
I00
g4525
tp4796
a(g4178
(S's\x0e\x00\x00\x00Layout Plugins'
tRp4797
I00
g4528
tp4798
aasbasbasbasbasbasbasbasbasbasbasbasbasbasbasbasbasbasbasbag62
(g78
g64
NtRp4799
(dp4800
g67
(dp4801
sg76
g3687
sg69
(lp4802
g62
(g83
g64
NtRp4803
(dp4804
g67
(dp4805
g87
g88
ssg76
g4799
sg69
(lp4806
S'meta'
p4807
asbag62
(g83
g64
NtRp4808
(dp4809
g67
(dp4810
g94
g95
ssg76
g4799
sg69
(lp4811
S':'
asbag62
(g83
g64
NtRp4812
(dp4813
g67
(dp4814
sg76
g4799
sg69
(lp4815
g62
(g63
g64
NtRp4816
(dp4817
g67
(dp4818
g75
I5
ssg76
g4812
sg69
(lp4819
g62
(g71
g64
NtRp4820
(dp4821
g67
(dp4822
g75
I4
ssg76
Nsg69
(lp4823
g62
(g78
g64
NtRp4824
(dp4825
g67
(dp4826
sg76
g4820
sg69
(lp4827
g62
(g83
g64
NtRp4828
(dp4829
g67
(dp4830
g87
g88
ssg76
g4824
sg69
(lp4831
S'author'
p4832
asbag62
(g83
g64
NtRp4833
(dp4834
g67
(dp4835
g94
g95
ssg76
g4824
sg69
(lp4836
S':'
asbag62
(g83
g64
NtRp4837
(dp4838
g67
(dp4839
sg76
g4824
sg69
(lp4840
g62
(g63
g64
NtRp4841
(dp4842
g67
(dp4843
g75
I4
ssg76
g4837
sg69
(lp4844
S'Your Name <you@example.com>'
p4845
asbasbasbag62
(g78
g64
NtRp4846
(dp4847
g67
(dp4848
sg76
g4820
sg69
(lp4849
g62
(g83
g64
NtRp4850
(dp4851
g67
(dp4852
g87
g88
ssg76
g4846
sg69
(lp4853
S'description'
p4854
asbag62
(g83
g64
NtRp4855
(dp4856
g67
(dp4857
g94
g95
ssg76
g4846
sg69
(lp4858
S':'
asbag62
(g83
g64
NtRp4859
(dp4860
g67
(dp4861
sg76
g4846
sg69
(lp4862
g62
(g63
g64
NtRp4863
(dp4864
g67
(dp4865
g75
I4
ssg76
g4859
sg69
(lp4866
S'a cool new app'
p4867
asbasbasbag62
(g78
g64
NtRp4868
(dp4869
g67
(dp4870
sg76
g4820
sg69
(lp4871
g62
(g83
g64
NtRp4872
(dp4873
g67
(dp4874
g87
g88
ssg76
g4868
sg69
(lp4875
S'generator'
p4876
asbag62
(g83
g64
NtRp4877
(dp4878
g67
(dp4879
g94
g95
ssg76
g4868
sg69
(lp4880
S':'
asbag62
(g83
g64
NtRp4881
(dp4882
g67
(dp4883
sg76
g4868
sg69
(lp4884
g62
(g63
g64
NtRp4885
(dp4886
g67
(dp4887
g75
I4
ssg76
g4881
sg69
(lp4888
S'Web2py Web Framework'
p4889
asbasbasbag62
(g78
g64
NtRp4890
(dp4891
g67
(dp4892
sg76
g4820
sg69
(lp4893
g62
(g83
g64
NtRp4894
(dp4895
g67
(dp4896
g87
g88
ssg76
g4890
sg69
(lp4897
S'keywords'
p4898
asbag62
(g83
g64
NtRp4899
(dp4900
g67
(dp4901
g94
g95
ssg76
g4890
sg69
(lp4902
S':'
asbag62
(g83
g64
NtRp4903
(dp4904
g67
(dp4905
sg76
g4890
sg69
(lp4906
g62
(g63
g64
NtRp4907
(dp4908
g67
(dp4909
g75
I4
ssg76
g4903
sg69
(lp4910
S'web2py, python, framework'
p4911
asbasbasbasbasbasbasbag62
(g78
g64
NtRp4912
(dp4913
g67
(dp4914
sg76
g3687
sg69
(lp4915
g62
(g83
g64
NtRp4916
(dp4917
g67
(dp4918
g87
g88
ssg76
g4912
sg69
(lp4919
S'models_to_run'
p4920
asbag62
(g83
g64
NtRp4921
(dp4922
g67
(dp4923
g94
g95
ssg76
g4912
sg69
(lp4924
S':'
asbag62
(g83
g64
NtRp4925
(dp4926
g67
(dp4927
sg76
g4912
sg69
(lp4928
g62
(g63
g64
NtRp4929
(dp4930
g67
(dp4931
g75
I5
ssg76
g4925
sg69
(lp4932
g62
(g71
g64
NtRp4933
(dp4934
g67
(dp4935
g75
I4
ssg76
Nsg69
(lp4936
g62
(g78
g64
NtRp4937
(dp4938
g67
(dp4939
sg76
g4933
sg69
(lp4940
g62
(g83
g64
NtRp4941
(dp4942
g67
(dp4943
sg76
g4937
sg69
(lp4944
g62
(g63
g64
NtRp4945
(dp4946
g67
(dp4947
g75
I4
ssg76
g4941
sg69
(lp4948
S'^\\w+\\.py$'
p4949
asbasbasbag62
(g78
g64
NtRp4950
(dp4951
g67
(dp4952
sg76
g4933
sg69
(lp4953
g62
(g83
g64
NtRp4954
(dp4955
g67
(dp4956
sg76
g4950
sg69
(lp4957
g62
(g63
g64
NtRp4958
(dp4959
g67
(dp4960
g75
I4
ssg76
g4954
sg69
(lp4961
S'^default/\\w+\\.py$'
p4962
asbasbasbag62
(g78
g64
NtRp4963
(dp4964
g67
(dp4965
sg76
g4933
sg69
(lp4966
g62
(g83
g64
NtRp4967
(dp4968
g67
(dp4969
sg76
g4963
sg69
(lp4970
g62
(g63
g64
NtRp4971
(dp4972
g67
(dp4973
g75
I4
ssg76
g4967
sg69
(lp4974
S'^default/applet/\\w+\\.py$'
p4975
asbasbasbasbasbasbasbag62
(g78
g64
NtRp4976
(dp4977
g67
(dp4978
sg76
g3687
sg69
(lp4979
g62
(g83
g64
NtRp4980
(dp4981
g67
(dp4982
g87
g88
ssg76
g4976
sg69
(lp4983
S'postprocessing'
p4984
asbag62
(g83
g64
NtRp4985
(dp4986
g67
(dp4987
g94
g95
ssg76
g4976
sg69
(lp4988
S':'
asbag62
(g83
g64
NtRp4989
(dp4990
g67
(dp4991
sg76
g4976
sg69
(lp4992
g62
(g63
g64
NtRp4993
(dp4994
g67
(dp4995
g75
I5
ssg76
g4989
sg69
(lp4996
g62
(g71
g64
NtRp4997
(dp4998
g67
(dp4999
g75
I4
ssg76
Nsg69
(lp5000
sbasbasbasbag62
(g78
g64
NtRp5001
(dp5002
g67
(dp5003
sg76
g3687
sg69
(lp5004
g62
(g83
g64
NtRp5005
(dp5006
g67
(dp5007
g87
g88
ssg76
g5001
sg69
(lp5008
S'session_cookie_expires'
p5009
asbag62
(g83
g64
NtRp5010
(dp5011
g67
(dp5012
g94
g95
ssg76
g5001
sg69
(lp5013
S':'
asbag62
(g83
g64
NtRp5014
(dp5015
g67
(dp5016
sg76
g5001
sg69
(lp5017
g62
(g63
g64
NtRp5018
(dp5019
g67
(dp5020
g75
I5
ssg76
g5014
sg69
(lp5021
S'None'
p5022
asbasbasbag62
(g78
g64
NtRp5023
(dp5024
g67
(dp5025
sg76
g3687
sg69
(lp5026
g62
(g83
g64
NtRp5027
(dp5028
g67
(dp5029
g87
g88
ssg76
g5023
sg69
(lp5030
S'session_data_name'
p5031
asbag62
(g83
g64
NtRp5032
(dp5033
g67
(dp5034
g94
g95
ssg76
g5023
sg69
(lp5035
S':'
asbag62
(g83
g64
NtRp5036
(dp5037
g67
(dp5038
sg76
g5023
sg69
(lp5039
g62
(g63
g64
NtRp5040
(dp5041
g67
(dp5042
g75
I5
ssg76
g5036
sg69
(lp5043
S'session_data_cartesianplane'
p5044
asbasbasbag62
(g78
g64
NtRp5045
(dp5046
g67
(dp5047
sg76
g3687
sg69
(lp5048
g62
(g83
g64
NtRp5049
(dp5050
g67
(dp5051
g87
g88
ssg76
g5045
sg69
(lp5052
S'session_filename'
p5053
asbag62
(g83
g64
NtRp5054
(dp5055
g67
(dp5056
g94
g95
ssg76
g5045
sg69
(lp5057
S':'
asbag62
(g83
g64
NtRp5058
(dp5059
g67
(dp5060
sg76
g5045
sg69
(lp5061
g62
(g63
g64
NtRp5062
(dp5063
g67
(dp5064
g75
I5
ssg76
g5058
sg69
(lp5065
S'/Users/victorgirotto/Desktop/web2py-master/applications/CartesianPlane/sessions/127.0.0.1-214c2423-dd47-4423-84fd-bb8184105d2f'
p5066
asbasbasbag62
(g78
g64
NtRp5067
(dp5068
g67
(dp5069
sg76
g3687
sg69
(lp5070
g62
(g83
g64
NtRp5071
(dp5072
g67
(dp5073
g87
g88
ssg76
g5067
sg69
(lp5074
S'session_id'
p5075
asbag62
(g83
g64
NtRp5076
(dp5077
g67
(dp5078
g94
g95
ssg76
g5067
sg69
(lp5079
S':'
asbag62
(g83
g64
NtRp5080
(dp5081
g67
(dp5082
sg76
g5067
sg69
(lp5083
g62
(g63
g64
NtRp5084
(dp5085
g67
(dp5086
g75
I5
ssg76
g5080
sg69
(lp5087
g3757
asbasbasbag62
(g78
g64
NtRp5088
(dp5089
g67
(dp5090
sg76
g3687
sg69
(lp5091
g62
(g83
g64
NtRp5092
(dp5093
g67
(dp5094
g87
g88
ssg76
g5088
sg69
(lp5095
S'session_id_name'
p5096
asbag62
(g83
g64
NtRp5097
(dp5098
g67
(dp5099
g94
g95
ssg76
g5088
sg69
(lp5100
S':'
asbag62
(g83
g64
NtRp5101
(dp5102
g67
(dp5103
sg76
g5088
sg69
(lp5104
g62
(g63
g64
NtRp5105
(dp5106
g67
(dp5107
g75
I5
ssg76
g5101
sg69
(lp5108
g3744
asbasbasbag62
(g78
g64
NtRp5109
(dp5110
g67
(dp5111
sg76
g3687
sg69
(lp5112
g62
(g83
g64
NtRp5113
(dp5114
g67
(dp5115
g87
g88
ssg76
g5109
sg69
(lp5116
S'session_new'
p5117
asbag62
(g83
g64
NtRp5118
(dp5119
g67
(dp5120
g94
g95
ssg76
g5109
sg69
(lp5121
S':'
asbag62
(g83
g64
NtRp5122
(dp5123
g67
(dp5124
sg76
g5109
sg69
(lp5125
g62
(g63
g64
NtRp5126
(dp5127
g67
(dp5128
g75
I5
ssg76
g5122
sg69
(lp5129
g2145
asbasbasbag62
(g78
g64
NtRp5130
(dp5131
g67
(dp5132
sg76
g3687
sg69
(lp5133
g62
(g83
g64
NtRp5134
(dp5135
g67
(dp5136
g87
g88
ssg76
g5130
sg69
(lp5137
S'session_storage_type'
p5138
asbag62
(g83
g64
NtRp5139
(dp5140
g67
(dp5141
g94
g95
ssg76
g5130
sg69
(lp5142
S':'
asbag62
(g83
g64
NtRp5143
(dp5144
g67
(dp5145
sg76
g5130
sg69
(lp5146
g62
(g63
g64
NtRp5147
(dp5148
g67
(dp5149
g75
I5
ssg76
g5143
sg69
(lp5150
g3576
asbasbasbag62
(g78
g64
NtRp5151
(dp5152
g67
(dp5153
sg76
g3687
sg69
(lp5154
g62
(g83
g64
NtRp5155
(dp5156
g67
(dp5157
g87
g88
ssg76
g5151
sg69
(lp5158
S'status'
p5159
asbag62
(g83
g64
NtRp5160
(dp5161
g67
(dp5162
g94
g95
ssg76
g5151
sg69
(lp5163
S':'
asbag62
(g83
g64
NtRp5164
(dp5165
g67
(dp5166
sg76
g5151
sg69
(lp5167
g62
(g63
g64
NtRp5168
(dp5169
g67
(dp5170
g75
I5
ssg76
g5164
sg69
(lp5171
S'200'
p5172
asbasbasbag62
(g78
g64
NtRp5173
(dp5174
g67
(dp5175
sg76
g3687
sg69
(lp5176
g62
(g83
g64
NtRp5177
(dp5178
g67
(dp5179
g87
g88
ssg76
g5173
sg69
(lp5180
S'subtitle'
p5181
asbag62
(g83
g64
NtRp5182
(dp5183
g67
(dp5184
g94
g95
ssg76
g5173
sg69
(lp5185
S':'
asbag62
(g83
g64
NtRp5186
(dp5187
g67
(dp5188
sg76
g5173
sg69
(lp5189
g62
(g63
g64
NtRp5190
(dp5191
g67
(dp5192
g75
I5
ssg76
g5186
sg69
(lp5193
g4178
(S's\x0f\x00\x00\x00Personalize-me!'
tRp5194
asbasbasbag62
(g78
g64
NtRp5195
(dp5196
g67
(dp5197
sg76
g3687
sg69
(lp5198
g62
(g83
g64
NtRp5199
(dp5200
g67
(dp5201
g87
g88
ssg76
g5195
sg69
(lp5202
S'title'
p5203
asbag62
(g83
g64
NtRp5204
(dp5205
g67
(dp5206
g94
g95
ssg76
g5195
sg69
(lp5207
S':'
asbag62
(g83
g64
NtRp5208
(dp5209
g67
(dp5210
sg76
g5195
sg69
(lp5211
g62
(g63
g64
NtRp5212
(dp5213
g67
(dp5214
g75
I5
ssg76
g5208
sg69
(lp5215
S'Cartesianplane'
p5216
asbasbasbag62
(g78
g64
NtRp5217
(dp5218
g67
(dp5219
sg76
g3687
sg69
(lp5220
g62
(g83
g64
NtRp5221
(dp5222
g67
(dp5223
g87
g88
ssg76
g5217
sg69
(lp5224
S'view'
p5225
asbag62
(g83
g64
NtRp5226
(dp5227
g67
(dp5228
g94
g95
ssg76
g5217
sg69
(lp5229
S':'
asbag62
(g83
g64
NtRp5230
(dp5231
g67
(dp5232
sg76
g5217
sg69
(lp5233
g62
(g63
g64
NtRp5234
(dp5235
g67
(dp5236
g75
I5
ssg76
g5230
sg69
(lp5237
S'default/applet.html'
p5238
asbasbasbasbasbsS'locals'
p5239
(dp5240
ssS'traceback'
p5241
S'Traceback (most recent call last):\n  File "/Users/victorgirotto/Desktop/web2py-master/gluon/restricted.py", line 212, in restricted\n    exec ccode in environment\n  File "/Users/victorgirotto/Desktop/web2py-master/applications/CartesianPlane/controllers/default.py", line 64, in <module>\n  File "/Users/victorgirotto/Desktop/web2py-master/gluon/globals.py", line 190, in <lambda>\n    self._caller = lambda f: f()\n  File "/Users/victorgirotto/Desktop/web2py-master/applications/CartesianPlane/controllers/default.py", line 27, in applet\n    return dict(applet=XML(open(filename).read()), ip=__current_ip, port=__socket_port, group_name=__socket_group_name)\nIOError: [Errno 2] No such file or directory: \'/Users/victorgirotto/Desktop/web2py-master/applications/CartesianPlane/static/geoapp.html\'\n'
p5242
s.