(dp1
S'output'
p2
S'<class \'xmlrpclib.Fault\'> <Fault 1: "<class \'sqlite3.OperationalError\'>:database is locked">'
p3
sS'layer'
p4
S'/Users/victorgirotto/Desktop/web2py-master/applications/CartesianPlane/controllers/default.py'
p5
sS'code'
p6
S'import os\nimport socket\nfrom xmlrpclib import ServerProxy\nfrom gluon.shell import exec_environment\nfrom gluon.contrib.websocket_messaging import websocket_send\n\nfilename = os.path.join(request.folder, \'static\', \'geoapp.html\')\nserver = ServerProxy(\'http://127.0.0.1:8000/GeogebraInterface/default/call/xmlrpc\')\n\n__current_ip = \'127.0.0.1\'\n# __current_ip = \'169.254.67.33\'\n__socket_group_name = \'applet\'\n__socket_port = \'8888\'\n\n# -*- coding: utf-8 -*-\n### required - do no delete\ndef user(): return dict(form=auth())\ndef download(): return response.download(request,db)\ndef call(): \n    session.forget()\n    return service()\n### end requires\ndef index():\n    return dict()\n    \ndef applet():\n    return dict(applet=XML(open(filename).read()), ip=__current_ip, port=__socket_port, group_name=__socket_group_name)\n\n    \ndef loadOptions():\n    return server.loadOptions(response.json(request.vars))\n    ##return(response.json(request.vars))\n    \n    ##\n    ##return server.loadOptions(request.vars)\n    ##s.update(value="3")\n    ##return server.loadOptions()\n\n    \ndef echo():\n    return "Hello World"\n   \ndef program():\n    return dict()\n\ndef error():\n    return dict()\n\n## the server polls for an update to the current step\ndef pollForEvent():\n    return db(db.menuOptions2.name == \'test\').select()[0].value\n\n## executes the current step on the server\n@service.xmlrpc\ndef executeEvent(data):\n    db.menuOptions2.update_or_insert(db.menuOptions2.name==\'test\', name=\'test\', value=data)\n    websocket_send(\'http://\' + __current_ip + \':\' + __socket_port, data, \'mykey\', __socket_group_name)\n    return data\n\n@service.xmlrpc\ndef executeSteps(data):\n    websocket_send(\'http://\' + __current_ip + \':\' + __socket_port, data, \'mykey\', __socket_group_name)\n    return data\nresponse._vars=response._caller(loadOptions)\n'
p7
sS'snapshot'
p8
(dp9
S'exception'
p10
(dp11
S'__module__'
p12
S"'xmlrpclib'"
p13
sS'__getslice__'
p14
S"<method-wrapper '__getslice__' of Fault object>"
p15
sS'__str__'
p16
S'<bound method Fault.__str__ of <Fault 1: "<class \'sqlite3.OperationalError\'>:database is locked">>'
p17
sS'__reduce__'
p18
S'<built-in method __reduce__ of Fault object>'
p19
sS'__dict__'
p20
S'{\'faultCode\': 1, \'faultString\': "<class \'sqlite3.OperationalError\'>:database is locked"}'
p21
sS'__sizeof__'
p22
S'<built-in method __sizeof__ of Fault object>'
p23
sS'__weakref__'
p24
S'None'
p25
sS'__init__'
p26
S'<bound method Fault.__init__ of <Fault 1: "<class \'sqlite3.OperationalError\'>:database is locked">>'
p27
sS'__setattr__'
p28
S"<method-wrapper '__setattr__' of Fault object>"
p29
sS'__reduce_ex__'
p30
S'<built-in method __reduce_ex__ of Fault object>'
p31
sS'__new__'
p32
S'<built-in method __new__ of type object>'
p33
sS'__format__'
p34
S'<built-in method __format__ of Fault object>'
p35
sS'__class__'
p36
S"<class 'xmlrpclib.Fault'>"
p37
sS'faultCode'
p38
S'1'
sS'faultString'
p39
S'"<class \'sqlite3.OperationalError\'>:database is locked"'
p40
sS'__doc__'
p41
S"'Indicates an XML-RPC fault package.'"
p42
sS'__getitem__'
p43
S"<method-wrapper '__getitem__' of Fault object>"
p44
sS'__setstate__'
p45
S'<built-in method __setstate__ of Fault object>'
p46
sS'__getattribute__'
p47
S"<method-wrapper '__getattribute__' of Fault object>"
p48
sS'args'
p49
S'()'
p50
sS'__subclasshook__'
p51
S'<built-in method __subclasshook__ of type object>'
p52
sS'__unicode__'
p53
S'<built-in method __unicode__ of Fault object>'
p54
sS'__delattr__'
p55
S"<method-wrapper '__delattr__' of Fault object>"
p56
sS'__repr__'
p57
S'<bound method Fault.__repr__ of <Fault 1: "<class \'sqlite3.OperationalError\'>:database is locked">>'
p58
sS'__hash__'
p59
S"<method-wrapper '__hash__' of Fault object>"
p60
ssS'evalue'
p61
S'<Fault 1: "<class \'sqlite3.OperationalError\'>:database is locked">'
p62
sS'request'
p63
ccopy_reg
_reconstructor
p64
(cgluon.html
BEAUTIFY
p65
c__builtin__
object
p66
NtRp67
(dp68
S'attributes'
p69
(dp70
sS'components'
p71
(lp72
g64
(cgluon.html
TABLE
p73
g66
NtRp74
(dp75
g69
(dp76
S'level'
p77
I5
ssS'parent'
p78
Nsg71
(lp79
g64
(cgluon.html
TR
p80
g66
NtRp81
(dp82
g69
(dp83
sg78
g74
sg71
(lp84
g64
(cgluon.html
TD
p85
g66
NtRp86
(dp87
g69
(dp88
S'_style'
p89
S'font-weight:bold;vertical-align:top'
p90
ssg78
g81
sg71
(lp91
S'ajax'
p92
asbag64
(g85
g66
NtRp93
(dp94
g69
(dp95
S'_valign'
p96
S'top'
p97
ssg78
g81
sg71
(lp98
S':'
asbag64
(g85
g66
NtRp99
(dp100
g69
(dp101
sg78
g81
sg71
(lp102
g64
(g65
g66
NtRp103
(dp104
g69
(dp105
g77
I5
ssg78
g99
sg71
(lp106
S'True'
p107
asbasbasbag64
(g80
g66
NtRp108
(dp109
g69
(dp110
sg78
g74
sg71
(lp111
g64
(g85
g66
NtRp112
(dp113
g69
(dp114
g89
g90
ssg78
g108
sg71
(lp115
S'application'
p116
asbag64
(g85
g66
NtRp117
(dp118
g69
(dp119
g96
g97
ssg78
g108
sg71
(lp120
S':'
asbag64
(g85
g66
NtRp121
(dp122
g69
(dp123
sg78
g108
sg71
(lp124
g64
(g65
g66
NtRp125
(dp126
g69
(dp127
g77
I5
ssg78
g121
sg71
(lp128
S'CartesianPlane'
p129
asbasbasbag64
(g80
g66
NtRp130
(dp131
g69
(dp132
sg78
g74
sg71
(lp133
g64
(g85
g66
NtRp134
(dp135
g69
(dp136
g89
g90
ssg78
g130
sg71
(lp137
g49
asbag64
(g85
g66
NtRp138
(dp139
g69
(dp140
g96
g97
ssg78
g130
sg71
(lp141
S':'
asbag64
(g85
g66
NtRp142
(dp143
g69
(dp144
sg78
g130
sg71
(lp145
g64
(g65
g66
NtRp146
(dp147
g69
(dp148
g77
I5
ssg78
g142
sg71
(lp149
g64
(g73
g66
NtRp150
(dp151
g69
(dp152
g77
I4
ssg78
Nsg71
(lp153
sbasbasbasbag64
(g80
g66
NtRp154
(dp155
g69
(dp156
sg78
g74
sg71
(lp157
g64
(g85
g66
NtRp158
(dp159
g69
(dp160
g89
g90
ssg78
g154
sg71
(lp161
S'body'
p162
asbag64
(g85
g66
NtRp163
(dp164
g69
(dp165
g96
g97
ssg78
g154
sg71
(lp166
S':'
asbag64
(g85
g66
NtRp167
(dp168
g69
(dp169
sg78
g154
sg71
(lp170
g64
(g65
g66
NtRp171
(dp172
g69
(dp173
g77
I5
ssg78
g167
sg71
(lp174
S'<cStringIO.StringO object at 0x10b7c10a0>'
p175
asbasbasbag64
(g80
g66
NtRp176
(dp177
g69
(dp178
sg78
g74
sg71
(lp179
g64
(g85
g66
NtRp180
(dp181
g69
(dp182
g89
g90
ssg78
g176
sg71
(lp183
S'cid'
p184
asbag64
(g85
g66
NtRp185
(dp186
g69
(dp187
g96
g97
ssg78
g176
sg71
(lp188
S':'
asbag64
(g85
g66
NtRp189
(dp190
g69
(dp191
sg78
g176
sg71
(lp192
g64
(g65
g66
NtRp193
(dp194
g69
(dp195
g77
I5
ssg78
g189
sg71
(lp196
S'None'
p197
asbasbasbag64
(g80
g66
NtRp198
(dp199
g69
(dp200
sg78
g74
sg71
(lp201
g64
(g85
g66
NtRp202
(dp203
g69
(dp204
g89
g90
ssg78
g198
sg71
(lp205
S'client'
p206
asbag64
(g85
g66
NtRp207
(dp208
g69
(dp209
g96
g97
ssg78
g198
sg71
(lp210
S':'
asbag64
(g85
g66
NtRp211
(dp212
g69
(dp213
sg78
g198
sg71
(lp214
g64
(g65
g66
NtRp215
(dp216
g69
(dp217
g77
I5
ssg78
g211
sg71
(lp218
S'127.0.0.1'
p219
asbasbasbag64
(g80
g66
NtRp220
(dp221
g69
(dp222
sg78
g74
sg71
(lp223
g64
(g85
g66
NtRp224
(dp225
g69
(dp226
g89
g90
ssg78
g220
sg71
(lp227
S'controller'
p228
asbag64
(g85
g66
NtRp229
(dp230
g69
(dp231
g96
g97
ssg78
g220
sg71
(lp232
S':'
asbag64
(g85
g66
NtRp233
(dp234
g69
(dp235
sg78
g220
sg71
(lp236
g64
(g65
g66
NtRp237
(dp238
g69
(dp239
g77
I5
ssg78
g233
sg71
(lp240
S'default'
p241
asbasbasbag64
(g80
g66
NtRp242
(dp243
g69
(dp244
sg78
g74
sg71
(lp245
g64
(g85
g66
NtRp246
(dp247
g69
(dp248
g89
g90
ssg78
g242
sg71
(lp249
S'cookies'
p250
asbag64
(g85
g66
NtRp251
(dp252
g69
(dp253
g96
g97
ssg78
g242
sg71
(lp254
S':'
asbag64
(g85
g66
NtRp255
(dp256
g69
(dp257
sg78
g242
sg71
(lp258
g64
(g65
g66
NtRp259
(dp260
g69
(dp261
g77
I5
ssg78
g255
sg71
(lp262
g64
(g73
g66
NtRp263
(dp264
g69
(dp265
g77
I4
ssg78
Nsg71
(lp266
g64
(g80
g66
NtRp267
(dp268
g69
(dp269
sg78
g263
sg71
(lp270
g64
(g85
g66
NtRp271
(dp272
g69
(dp273
g89
g90
ssg78
g267
sg71
(lp274
S'session_id_admin'
p275
asbag64
(g85
g66
NtRp276
(dp277
g69
(dp278
g96
g97
ssg78
g267
sg71
(lp279
S':'
asbag64
(g85
g66
NtRp280
(dp281
g69
(dp282
sg78
g267
sg71
(lp283
g64
(g65
g66
NtRp284
(dp285
g69
(dp286
g77
I4
ssg78
g280
sg71
(lp287
S'127.0.0.1-a7fdf2f3-ac80-4d35-8b63-06907936ff34'
p288
ag64
(g73
g66
NtRp289
(dp290
g69
(dp291
g77
I3
ssg78
Nsg71
(lp292
g64
(g80
g66
NtRp293
(dp294
g69
(dp295
sg78
g289
sg71
(lp296
g64
(g85
g66
NtRp297
(dp298
g69
(dp299
g89
g90
ssg78
g293
sg71
(lp300
S'comment'
p301
asbag64
(g85
g66
NtRp302
(dp303
g69
(dp304
g96
g97
ssg78
g293
sg71
(lp305
S':'
asbag64
(g85
g66
NtRp306
(dp307
g69
(dp308
sg78
g293
sg71
(lp309
g64
(g65
g66
NtRp310
(dp311
g69
(dp312
g77
I3
ssg78
g306
sg71
(lp313
S''
asbasbasbag64
(g80
g66
NtRp314
(dp315
g69
(dp316
sg78
g289
sg71
(lp317
g64
(g85
g66
NtRp318
(dp319
g69
(dp320
g89
g90
ssg78
g314
sg71
(lp321
S'domain'
p322
asbag64
(g85
g66
NtRp323
(dp324
g69
(dp325
g96
g97
ssg78
g314
sg71
(lp326
S':'
asbag64
(g85
g66
NtRp327
(dp328
g69
(dp329
sg78
g314
sg71
(lp330
g64
(g65
g66
NtRp331
(dp332
g69
(dp333
g77
I3
ssg78
g327
sg71
(lp334
S''
asbasbasbag64
(g80
g66
NtRp335
(dp336
g69
(dp337
sg78
g289
sg71
(lp338
g64
(g85
g66
NtRp339
(dp340
g69
(dp341
g89
g90
ssg78
g335
sg71
(lp342
S'expires'
p343
asbag64
(g85
g66
NtRp344
(dp345
g69
(dp346
g96
g97
ssg78
g335
sg71
(lp347
S':'
asbag64
(g85
g66
NtRp348
(dp349
g69
(dp350
sg78
g335
sg71
(lp351
g64
(g65
g66
NtRp352
(dp353
g69
(dp354
g77
I3
ssg78
g348
sg71
(lp355
S''
asbasbasbag64
(g80
g66
NtRp356
(dp357
g69
(dp358
sg78
g289
sg71
(lp359
g64
(g85
g66
NtRp360
(dp361
g69
(dp362
g89
g90
ssg78
g356
sg71
(lp363
S'httponly'
p364
asbag64
(g85
g66
NtRp365
(dp366
g69
(dp367
g96
g97
ssg78
g356
sg71
(lp368
S':'
asbag64
(g85
g66
NtRp369
(dp370
g69
(dp371
sg78
g356
sg71
(lp372
g64
(g65
g66
NtRp373
(dp374
g69
(dp375
g77
I3
ssg78
g369
sg71
(lp376
S''
asbasbasbag64
(g80
g66
NtRp377
(dp378
g69
(dp379
sg78
g289
sg71
(lp380
g64
(g85
g66
NtRp381
(dp382
g69
(dp383
g89
g90
ssg78
g377
sg71
(lp384
S'max-age'
p385
asbag64
(g85
g66
NtRp386
(dp387
g69
(dp388
g96
g97
ssg78
g377
sg71
(lp389
S':'
asbag64
(g85
g66
NtRp390
(dp391
g69
(dp392
sg78
g377
sg71
(lp393
g64
(g65
g66
NtRp394
(dp395
g69
(dp396
g77
I3
ssg78
g390
sg71
(lp397
S''
asbasbasbag64
(g80
g66
NtRp398
(dp399
g69
(dp400
sg78
g289
sg71
(lp401
g64
(g85
g66
NtRp402
(dp403
g69
(dp404
g89
g90
ssg78
g398
sg71
(lp405
S'path'
p406
asbag64
(g85
g66
NtRp407
(dp408
g69
(dp409
g96
g97
ssg78
g398
sg71
(lp410
S':'
asbag64
(g85
g66
NtRp411
(dp412
g69
(dp413
sg78
g398
sg71
(lp414
g64
(g65
g66
NtRp415
(dp416
g69
(dp417
g77
I3
ssg78
g411
sg71
(lp418
S''
asbasbasbag64
(g80
g66
NtRp419
(dp420
g69
(dp421
sg78
g289
sg71
(lp422
g64
(g85
g66
NtRp423
(dp424
g69
(dp425
g89
g90
ssg78
g419
sg71
(lp426
S'secure'
p427
asbag64
(g85
g66
NtRp428
(dp429
g69
(dp430
g96
g97
ssg78
g419
sg71
(lp431
S':'
asbag64
(g85
g66
NtRp432
(dp433
g69
(dp434
sg78
g419
sg71
(lp435
g64
(g65
g66
NtRp436
(dp437
g69
(dp438
g77
I3
ssg78
g432
sg71
(lp439
S''
asbasbasbag64
(g80
g66
NtRp440
(dp441
g69
(dp442
sg78
g289
sg71
(lp443
g64
(g85
g66
NtRp444
(dp445
g69
(dp446
g89
g90
ssg78
g440
sg71
(lp447
S'version'
p448
asbag64
(g85
g66
NtRp449
(dp450
g69
(dp451
g96
g97
ssg78
g440
sg71
(lp452
S':'
asbag64
(g85
g66
NtRp453
(dp454
g69
(dp455
sg78
g440
sg71
(lp456
g64
(g65
g66
NtRp457
(dp458
g69
(dp459
g77
I3
ssg78
g453
sg71
(lp460
S''
asbasbasbasbasbasbasbag64
(g80
g66
NtRp461
(dp462
g69
(dp463
sg78
g263
sg71
(lp464
g64
(g85
g66
NtRp465
(dp466
g69
(dp467
g89
g90
ssg78
g461
sg71
(lp468
S'session_id_cartesianplane'
p469
asbag64
(g85
g66
NtRp470
(dp471
g69
(dp472
g96
g97
ssg78
g461
sg71
(lp473
S':'
asbag64
(g85
g66
NtRp474
(dp475
g69
(dp476
sg78
g461
sg71
(lp477
g64
(g65
g66
NtRp478
(dp479
g69
(dp480
g77
I4
ssg78
g474
sg71
(lp481
S'127.0.0.1-3bf01ba1-4390-4f13-bc5c-77cb72155d13'
p482
ag64
(g73
g66
NtRp483
(dp484
g69
(dp485
g77
I3
ssg78
Nsg71
(lp486
g64
(g80
g66
NtRp487
(dp488
g69
(dp489
sg78
g483
sg71
(lp490
g64
(g85
g66
NtRp491
(dp492
g69
(dp493
g89
g90
ssg78
g487
sg71
(lp494
g301
asbag64
(g85
g66
NtRp495
(dp496
g69
(dp497
g96
g97
ssg78
g487
sg71
(lp498
S':'
asbag64
(g85
g66
NtRp499
(dp500
g69
(dp501
sg78
g487
sg71
(lp502
g64
(g65
g66
NtRp503
(dp504
g69
(dp505
g77
I3
ssg78
g499
sg71
(lp506
S''
asbasbasbag64
(g80
g66
NtRp507
(dp508
g69
(dp509
sg78
g483
sg71
(lp510
g64
(g85
g66
NtRp511
(dp512
g69
(dp513
g89
g90
ssg78
g507
sg71
(lp514
g322
asbag64
(g85
g66
NtRp515
(dp516
g69
(dp517
g96
g97
ssg78
g507
sg71
(lp518
S':'
asbag64
(g85
g66
NtRp519
(dp520
g69
(dp521
sg78
g507
sg71
(lp522
g64
(g65
g66
NtRp523
(dp524
g69
(dp525
g77
I3
ssg78
g519
sg71
(lp526
S''
asbasbasbag64
(g80
g66
NtRp527
(dp528
g69
(dp529
sg78
g483
sg71
(lp530
g64
(g85
g66
NtRp531
(dp532
g69
(dp533
g89
g90
ssg78
g527
sg71
(lp534
g343
asbag64
(g85
g66
NtRp535
(dp536
g69
(dp537
g96
g97
ssg78
g527
sg71
(lp538
S':'
asbag64
(g85
g66
NtRp539
(dp540
g69
(dp541
sg78
g527
sg71
(lp542
g64
(g65
g66
NtRp543
(dp544
g69
(dp545
g77
I3
ssg78
g539
sg71
(lp546
S''
asbasbasbag64
(g80
g66
NtRp547
(dp548
g69
(dp549
sg78
g483
sg71
(lp550
g64
(g85
g66
NtRp551
(dp552
g69
(dp553
g89
g90
ssg78
g547
sg71
(lp554
g364
asbag64
(g85
g66
NtRp555
(dp556
g69
(dp557
g96
g97
ssg78
g547
sg71
(lp558
S':'
asbag64
(g85
g66
NtRp559
(dp560
g69
(dp561
sg78
g547
sg71
(lp562
g64
(g65
g66
NtRp563
(dp564
g69
(dp565
g77
I3
ssg78
g559
sg71
(lp566
S''
asbasbasbag64
(g80
g66
NtRp567
(dp568
g69
(dp569
sg78
g483
sg71
(lp570
g64
(g85
g66
NtRp571
(dp572
g69
(dp573
g89
g90
ssg78
g567
sg71
(lp574
g385
asbag64
(g85
g66
NtRp575
(dp576
g69
(dp577
g96
g97
ssg78
g567
sg71
(lp578
S':'
asbag64
(g85
g66
NtRp579
(dp580
g69
(dp581
sg78
g567
sg71
(lp582
g64
(g65
g66
NtRp583
(dp584
g69
(dp585
g77
I3
ssg78
g579
sg71
(lp586
S''
asbasbasbag64
(g80
g66
NtRp587
(dp588
g69
(dp589
sg78
g483
sg71
(lp590
g64
(g85
g66
NtRp591
(dp592
g69
(dp593
g89
g90
ssg78
g587
sg71
(lp594
g406
asbag64
(g85
g66
NtRp595
(dp596
g69
(dp597
g96
g97
ssg78
g587
sg71
(lp598
S':'
asbag64
(g85
g66
NtRp599
(dp600
g69
(dp601
sg78
g587
sg71
(lp602
g64
(g65
g66
NtRp603
(dp604
g69
(dp605
g77
I3
ssg78
g599
sg71
(lp606
S''
asbasbasbag64
(g80
g66
NtRp607
(dp608
g69
(dp609
sg78
g483
sg71
(lp610
g64
(g85
g66
NtRp611
(dp612
g69
(dp613
g89
g90
ssg78
g607
sg71
(lp614
g427
asbag64
(g85
g66
NtRp615
(dp616
g69
(dp617
g96
g97
ssg78
g607
sg71
(lp618
S':'
asbag64
(g85
g66
NtRp619
(dp620
g69
(dp621
sg78
g607
sg71
(lp622
g64
(g65
g66
NtRp623
(dp624
g69
(dp625
g77
I3
ssg78
g619
sg71
(lp626
S''
asbasbasbag64
(g80
g66
NtRp627
(dp628
g69
(dp629
sg78
g483
sg71
(lp630
g64
(g85
g66
NtRp631
(dp632
g69
(dp633
g89
g90
ssg78
g627
sg71
(lp634
g448
asbag64
(g85
g66
NtRp635
(dp636
g69
(dp637
g96
g97
ssg78
g627
sg71
(lp638
S':'
asbag64
(g85
g66
NtRp639
(dp640
g69
(dp641
sg78
g627
sg71
(lp642
g64
(g65
g66
NtRp643
(dp644
g69
(dp645
g77
I3
ssg78
g639
sg71
(lp646
S''
asbasbasbasbasbasbasbag64
(g80
g66
NtRp647
(dp648
g69
(dp649
sg78
g263
sg71
(lp650
g64
(g85
g66
NtRp651
(dp652
g69
(dp653
g89
g90
ssg78
g647
sg71
(lp654
S'session_id_geogebrainterface'
p655
asbag64
(g85
g66
NtRp656
(dp657
g69
(dp658
g96
g97
ssg78
g647
sg71
(lp659
S':'
asbag64
(g85
g66
NtRp660
(dp661
g69
(dp662
sg78
g647
sg71
(lp663
g64
(g65
g66
NtRp664
(dp665
g69
(dp666
g77
I4
ssg78
g660
sg71
(lp667
S'127.0.0.1-46d10ee9-e5d6-460d-b9ce-d929c702141a'
p668
ag64
(g73
g66
NtRp669
(dp670
g69
(dp671
g77
I3
ssg78
Nsg71
(lp672
g64
(g80
g66
NtRp673
(dp674
g69
(dp675
sg78
g669
sg71
(lp676
g64
(g85
g66
NtRp677
(dp678
g69
(dp679
g89
g90
ssg78
g673
sg71
(lp680
g301
asbag64
(g85
g66
NtRp681
(dp682
g69
(dp683
g96
g97
ssg78
g673
sg71
(lp684
S':'
asbag64
(g85
g66
NtRp685
(dp686
g69
(dp687
sg78
g673
sg71
(lp688
g64
(g65
g66
NtRp689
(dp690
g69
(dp691
g77
I3
ssg78
g685
sg71
(lp692
S''
asbasbasbag64
(g80
g66
NtRp693
(dp694
g69
(dp695
sg78
g669
sg71
(lp696
g64
(g85
g66
NtRp697
(dp698
g69
(dp699
g89
g90
ssg78
g693
sg71
(lp700
g322
asbag64
(g85
g66
NtRp701
(dp702
g69
(dp703
g96
g97
ssg78
g693
sg71
(lp704
S':'
asbag64
(g85
g66
NtRp705
(dp706
g69
(dp707
sg78
g693
sg71
(lp708
g64
(g65
g66
NtRp709
(dp710
g69
(dp711
g77
I3
ssg78
g705
sg71
(lp712
S''
asbasbasbag64
(g80
g66
NtRp713
(dp714
g69
(dp715
sg78
g669
sg71
(lp716
g64
(g85
g66
NtRp717
(dp718
g69
(dp719
g89
g90
ssg78
g713
sg71
(lp720
g343
asbag64
(g85
g66
NtRp721
(dp722
g69
(dp723
g96
g97
ssg78
g713
sg71
(lp724
S':'
asbag64
(g85
g66
NtRp725
(dp726
g69
(dp727
sg78
g713
sg71
(lp728
g64
(g65
g66
NtRp729
(dp730
g69
(dp731
g77
I3
ssg78
g725
sg71
(lp732
S''
asbasbasbag64
(g80
g66
NtRp733
(dp734
g69
(dp735
sg78
g669
sg71
(lp736
g64
(g85
g66
NtRp737
(dp738
g69
(dp739
g89
g90
ssg78
g733
sg71
(lp740
g364
asbag64
(g85
g66
NtRp741
(dp742
g69
(dp743
g96
g97
ssg78
g733
sg71
(lp744
S':'
asbag64
(g85
g66
NtRp745
(dp746
g69
(dp747
sg78
g733
sg71
(lp748
g64
(g65
g66
NtRp749
(dp750
g69
(dp751
g77
I3
ssg78
g745
sg71
(lp752
S''
asbasbasbag64
(g80
g66
NtRp753
(dp754
g69
(dp755
sg78
g669
sg71
(lp756
g64
(g85
g66
NtRp757
(dp758
g69
(dp759
g89
g90
ssg78
g753
sg71
(lp760
g385
asbag64
(g85
g66
NtRp761
(dp762
g69
(dp763
g96
g97
ssg78
g753
sg71
(lp764
S':'
asbag64
(g85
g66
NtRp765
(dp766
g69
(dp767
sg78
g753
sg71
(lp768
g64
(g65
g66
NtRp769
(dp770
g69
(dp771
g77
I3
ssg78
g765
sg71
(lp772
S''
asbasbasbag64
(g80
g66
NtRp773
(dp774
g69
(dp775
sg78
g669
sg71
(lp776
g64
(g85
g66
NtRp777
(dp778
g69
(dp779
g89
g90
ssg78
g773
sg71
(lp780
g406
asbag64
(g85
g66
NtRp781
(dp782
g69
(dp783
g96
g97
ssg78
g773
sg71
(lp784
S':'
asbag64
(g85
g66
NtRp785
(dp786
g69
(dp787
sg78
g773
sg71
(lp788
g64
(g65
g66
NtRp789
(dp790
g69
(dp791
g77
I3
ssg78
g785
sg71
(lp792
S''
asbasbasbag64
(g80
g66
NtRp793
(dp794
g69
(dp795
sg78
g669
sg71
(lp796
g64
(g85
g66
NtRp797
(dp798
g69
(dp799
g89
g90
ssg78
g793
sg71
(lp800
g427
asbag64
(g85
g66
NtRp801
(dp802
g69
(dp803
g96
g97
ssg78
g793
sg71
(lp804
S':'
asbag64
(g85
g66
NtRp805
(dp806
g69
(dp807
sg78
g793
sg71
(lp808
g64
(g65
g66
NtRp809
(dp810
g69
(dp811
g77
I3
ssg78
g805
sg71
(lp812
S''
asbasbasbag64
(g80
g66
NtRp813
(dp814
g69
(dp815
sg78
g669
sg71
(lp816
g64
(g85
g66
NtRp817
(dp818
g69
(dp819
g89
g90
ssg78
g813
sg71
(lp820
g448
asbag64
(g85
g66
NtRp821
(dp822
g69
(dp823
g96
g97
ssg78
g813
sg71
(lp824
S':'
asbag64
(g85
g66
NtRp825
(dp826
g69
(dp827
sg78
g813
sg71
(lp828
g64
(g65
g66
NtRp829
(dp830
g69
(dp831
g77
I3
ssg78
g825
sg71
(lp832
S''
asbasbasbasbasbasbasbag64
(g80
g66
NtRp833
(dp834
g69
(dp835
sg78
g263
sg71
(lp836
g64
(g85
g66
NtRp837
(dp838
g69
(dp839
g89
g90
ssg78
g833
sg71
(lp840
S'session_id_mobileinterface'
p841
asbag64
(g85
g66
NtRp842
(dp843
g69
(dp844
g96
g97
ssg78
g833
sg71
(lp845
S':'
asbag64
(g85
g66
NtRp846
(dp847
g69
(dp848
sg78
g833
sg71
(lp849
g64
(g65
g66
NtRp850
(dp851
g69
(dp852
g77
I4
ssg78
g846
sg71
(lp853
S'127.0.0.1-429e0887-8cde-4c72-a39b-ab60f8ccb9f8'
p854
ag64
(g73
g66
NtRp855
(dp856
g69
(dp857
g77
I3
ssg78
Nsg71
(lp858
g64
(g80
g66
NtRp859
(dp860
g69
(dp861
sg78
g855
sg71
(lp862
g64
(g85
g66
NtRp863
(dp864
g69
(dp865
g89
g90
ssg78
g859
sg71
(lp866
g301
asbag64
(g85
g66
NtRp867
(dp868
g69
(dp869
g96
g97
ssg78
g859
sg71
(lp870
S':'
asbag64
(g85
g66
NtRp871
(dp872
g69
(dp873
sg78
g859
sg71
(lp874
g64
(g65
g66
NtRp875
(dp876
g69
(dp877
g77
I3
ssg78
g871
sg71
(lp878
S''
asbasbasbag64
(g80
g66
NtRp879
(dp880
g69
(dp881
sg78
g855
sg71
(lp882
g64
(g85
g66
NtRp883
(dp884
g69
(dp885
g89
g90
ssg78
g879
sg71
(lp886
g322
asbag64
(g85
g66
NtRp887
(dp888
g69
(dp889
g96
g97
ssg78
g879
sg71
(lp890
S':'
asbag64
(g85
g66
NtRp891
(dp892
g69
(dp893
sg78
g879
sg71
(lp894
g64
(g65
g66
NtRp895
(dp896
g69
(dp897
g77
I3
ssg78
g891
sg71
(lp898
S''
asbasbasbag64
(g80
g66
NtRp899
(dp900
g69
(dp901
sg78
g855
sg71
(lp902
g64
(g85
g66
NtRp903
(dp904
g69
(dp905
g89
g90
ssg78
g899
sg71
(lp906
g343
asbag64
(g85
g66
NtRp907
(dp908
g69
(dp909
g96
g97
ssg78
g899
sg71
(lp910
S':'
asbag64
(g85
g66
NtRp911
(dp912
g69
(dp913
sg78
g899
sg71
(lp914
g64
(g65
g66
NtRp915
(dp916
g69
(dp917
g77
I3
ssg78
g911
sg71
(lp918
S''
asbasbasbag64
(g80
g66
NtRp919
(dp920
g69
(dp921
sg78
g855
sg71
(lp922
g64
(g85
g66
NtRp923
(dp924
g69
(dp925
g89
g90
ssg78
g919
sg71
(lp926
g364
asbag64
(g85
g66
NtRp927
(dp928
g69
(dp929
g96
g97
ssg78
g919
sg71
(lp930
S':'
asbag64
(g85
g66
NtRp931
(dp932
g69
(dp933
sg78
g919
sg71
(lp934
g64
(g65
g66
NtRp935
(dp936
g69
(dp937
g77
I3
ssg78
g931
sg71
(lp938
S''
asbasbasbag64
(g80
g66
NtRp939
(dp940
g69
(dp941
sg78
g855
sg71
(lp942
g64
(g85
g66
NtRp943
(dp944
g69
(dp945
g89
g90
ssg78
g939
sg71
(lp946
g385
asbag64
(g85
g66
NtRp947
(dp948
g69
(dp949
g96
g97
ssg78
g939
sg71
(lp950
S':'
asbag64
(g85
g66
NtRp951
(dp952
g69
(dp953
sg78
g939
sg71
(lp954
g64
(g65
g66
NtRp955
(dp956
g69
(dp957
g77
I3
ssg78
g951
sg71
(lp958
S''
asbasbasbag64
(g80
g66
NtRp959
(dp960
g69
(dp961
sg78
g855
sg71
(lp962
g64
(g85
g66
NtRp963
(dp964
g69
(dp965
g89
g90
ssg78
g959
sg71
(lp966
g406
asbag64
(g85
g66
NtRp967
(dp968
g69
(dp969
g96
g97
ssg78
g959
sg71
(lp970
S':'
asbag64
(g85
g66
NtRp971
(dp972
g69
(dp973
sg78
g959
sg71
(lp974
g64
(g65
g66
NtRp975
(dp976
g69
(dp977
g77
I3
ssg78
g971
sg71
(lp978
S''
asbasbasbag64
(g80
g66
NtRp979
(dp980
g69
(dp981
sg78
g855
sg71
(lp982
g64
(g85
g66
NtRp983
(dp984
g69
(dp985
g89
g90
ssg78
g979
sg71
(lp986
g427
asbag64
(g85
g66
NtRp987
(dp988
g69
(dp989
g96
g97
ssg78
g979
sg71
(lp990
S':'
asbag64
(g85
g66
NtRp991
(dp992
g69
(dp993
sg78
g979
sg71
(lp994
g64
(g65
g66
NtRp995
(dp996
g69
(dp997
g77
I3
ssg78
g991
sg71
(lp998
S''
asbasbasbag64
(g80
g66
NtRp999
(dp1000
g69
(dp1001
sg78
g855
sg71
(lp1002
g64
(g85
g66
NtRp1003
(dp1004
g69
(dp1005
g89
g90
ssg78
g999
sg71
(lp1006
g448
asbag64
(g85
g66
NtRp1007
(dp1008
g69
(dp1009
g96
g97
ssg78
g999
sg71
(lp1010
S':'
asbag64
(g85
g66
NtRp1011
(dp1012
g69
(dp1013
sg78
g999
sg71
(lp1014
g64
(g65
g66
NtRp1015
(dp1016
g69
(dp1017
g77
I3
ssg78
g1011
sg71
(lp1018
S''
asbasbasbasbasbasbasbag64
(g80
g66
NtRp1019
(dp1020
g69
(dp1021
sg78
g263
sg71
(lp1022
g64
(g85
g66
NtRp1023
(dp1024
g69
(dp1025
g89
g90
ssg78
g1019
sg71
(lp1026
S'session_id_welcome'
p1027
asbag64
(g85
g66
NtRp1028
(dp1029
g69
(dp1030
g96
g97
ssg78
g1019
sg71
(lp1031
S':'
asbag64
(g85
g66
NtRp1032
(dp1033
g69
(dp1034
sg78
g1019
sg71
(lp1035
g64
(g65
g66
NtRp1036
(dp1037
g69
(dp1038
g77
I4
ssg78
g1032
sg71
(lp1039
S'127.0.0.1-406c2727-b8ee-4551-a6bf-871ff0a38423'
p1040
ag64
(g73
g66
NtRp1041
(dp1042
g69
(dp1043
g77
I3
ssg78
Nsg71
(lp1044
g64
(g80
g66
NtRp1045
(dp1046
g69
(dp1047
sg78
g1041
sg71
(lp1048
g64
(g85
g66
NtRp1049
(dp1050
g69
(dp1051
g89
g90
ssg78
g1045
sg71
(lp1052
g301
asbag64
(g85
g66
NtRp1053
(dp1054
g69
(dp1055
g96
g97
ssg78
g1045
sg71
(lp1056
S':'
asbag64
(g85
g66
NtRp1057
(dp1058
g69
(dp1059
sg78
g1045
sg71
(lp1060
g64
(g65
g66
NtRp1061
(dp1062
g69
(dp1063
g77
I3
ssg78
g1057
sg71
(lp1064
S''
asbasbasbag64
(g80
g66
NtRp1065
(dp1066
g69
(dp1067
sg78
g1041
sg71
(lp1068
g64
(g85
g66
NtRp1069
(dp1070
g69
(dp1071
g89
g90
ssg78
g1065
sg71
(lp1072
g322
asbag64
(g85
g66
NtRp1073
(dp1074
g69
(dp1075
g96
g97
ssg78
g1065
sg71
(lp1076
S':'
asbag64
(g85
g66
NtRp1077
(dp1078
g69
(dp1079
sg78
g1065
sg71
(lp1080
g64
(g65
g66
NtRp1081
(dp1082
g69
(dp1083
g77
I3
ssg78
g1077
sg71
(lp1084
S''
asbasbasbag64
(g80
g66
NtRp1085
(dp1086
g69
(dp1087
sg78
g1041
sg71
(lp1088
g64
(g85
g66
NtRp1089
(dp1090
g69
(dp1091
g89
g90
ssg78
g1085
sg71
(lp1092
g343
asbag64
(g85
g66
NtRp1093
(dp1094
g69
(dp1095
g96
g97
ssg78
g1085
sg71
(lp1096
S':'
asbag64
(g85
g66
NtRp1097
(dp1098
g69
(dp1099
sg78
g1085
sg71
(lp1100
g64
(g65
g66
NtRp1101
(dp1102
g69
(dp1103
g77
I3
ssg78
g1097
sg71
(lp1104
S''
asbasbasbag64
(g80
g66
NtRp1105
(dp1106
g69
(dp1107
sg78
g1041
sg71
(lp1108
g64
(g85
g66
NtRp1109
(dp1110
g69
(dp1111
g89
g90
ssg78
g1105
sg71
(lp1112
g364
asbag64
(g85
g66
NtRp1113
(dp1114
g69
(dp1115
g96
g97
ssg78
g1105
sg71
(lp1116
S':'
asbag64
(g85
g66
NtRp1117
(dp1118
g69
(dp1119
sg78
g1105
sg71
(lp1120
g64
(g65
g66
NtRp1121
(dp1122
g69
(dp1123
g77
I3
ssg78
g1117
sg71
(lp1124
S''
asbasbasbag64
(g80
g66
NtRp1125
(dp1126
g69
(dp1127
sg78
g1041
sg71
(lp1128
g64
(g85
g66
NtRp1129
(dp1130
g69
(dp1131
g89
g90
ssg78
g1125
sg71
(lp1132
g385
asbag64
(g85
g66
NtRp1133
(dp1134
g69
(dp1135
g96
g97
ssg78
g1125
sg71
(lp1136
S':'
asbag64
(g85
g66
NtRp1137
(dp1138
g69
(dp1139
sg78
g1125
sg71
(lp1140
g64
(g65
g66
NtRp1141
(dp1142
g69
(dp1143
g77
I3
ssg78
g1137
sg71
(lp1144
S''
asbasbasbag64
(g80
g66
NtRp1145
(dp1146
g69
(dp1147
sg78
g1041
sg71
(lp1148
g64
(g85
g66
NtRp1149
(dp1150
g69
(dp1151
g89
g90
ssg78
g1145
sg71
(lp1152
g406
asbag64
(g85
g66
NtRp1153
(dp1154
g69
(dp1155
g96
g97
ssg78
g1145
sg71
(lp1156
S':'
asbag64
(g85
g66
NtRp1157
(dp1158
g69
(dp1159
sg78
g1145
sg71
(lp1160
g64
(g65
g66
NtRp1161
(dp1162
g69
(dp1163
g77
I3
ssg78
g1157
sg71
(lp1164
S''
asbasbasbag64
(g80
g66
NtRp1165
(dp1166
g69
(dp1167
sg78
g1041
sg71
(lp1168
g64
(g85
g66
NtRp1169
(dp1170
g69
(dp1171
g89
g90
ssg78
g1165
sg71
(lp1172
g427
asbag64
(g85
g66
NtRp1173
(dp1174
g69
(dp1175
g96
g97
ssg78
g1165
sg71
(lp1176
S':'
asbag64
(g85
g66
NtRp1177
(dp1178
g69
(dp1179
sg78
g1165
sg71
(lp1180
g64
(g65
g66
NtRp1181
(dp1182
g69
(dp1183
g77
I3
ssg78
g1177
sg71
(lp1184
S''
asbasbasbag64
(g80
g66
NtRp1185
(dp1186
g69
(dp1187
sg78
g1041
sg71
(lp1188
g64
(g85
g66
NtRp1189
(dp1190
g69
(dp1191
g89
g90
ssg78
g1185
sg71
(lp1192
g448
asbag64
(g85
g66
NtRp1193
(dp1194
g69
(dp1195
g96
g97
ssg78
g1185
sg71
(lp1196
S':'
asbag64
(g85
g66
NtRp1197
(dp1198
g69
(dp1199
sg78
g1185
sg71
(lp1200
g64
(g65
g66
NtRp1201
(dp1202
g69
(dp1203
g77
I3
ssg78
g1197
sg71
(lp1204
S''
asbasbasbasbasbasbasbasbasbasbasbag64
(g80
g66
NtRp1205
(dp1206
g69
(dp1207
sg78
g74
sg71
(lp1208
g64
(g85
g66
NtRp1209
(dp1210
g69
(dp1211
g89
g90
ssg78
g1205
sg71
(lp1212
S'env'
p1213
asbag64
(g85
g66
NtRp1214
(dp1215
g69
(dp1216
g96
g97
ssg78
g1205
sg71
(lp1217
S':'
asbag64
(g85
g66
NtRp1218
(dp1219
g69
(dp1220
sg78
g1205
sg71
(lp1221
g64
(g65
g66
NtRp1222
(dp1223
g69
(dp1224
g77
I5
ssg78
g1218
sg71
(lp1225
g64
(g73
g66
NtRp1226
(dp1227
g69
(dp1228
g77
I4
ssg78
Nsg71
(lp1229
g64
(g80
g66
NtRp1230
(dp1231
g69
(dp1232
sg78
g1226
sg71
(lp1233
g64
(g85
g66
NtRp1234
(dp1235
g69
(dp1236
g89
g90
ssg78
g1230
sg71
(lp1237
S'app_folders'
p1238
asbag64
(g85
g66
NtRp1239
(dp1240
g69
(dp1241
g96
g97
ssg78
g1230
sg71
(lp1242
S':'
asbag64
(g85
g66
NtRp1243
(dp1244
g69
(dp1245
sg78
g1230
sg71
(lp1246
g64
(g65
g66
NtRp1247
(dp1248
g69
(dp1249
g77
I4
ssg78
g1243
sg71
(lp1250
S"set(['/Users/victorgirotto/Desktop/web2py-master/applications/MobileInterface/', '/Users/victorgirotto/Desktop/web2py-master/applications/welcome/', '/Users/victorgirotto/Desktop/web2py-master/applications/CartesianPlane/', '/Users/victorgirotto/Desktop/web2py-master/applications/GeogebraInterface/', '/Users/victorgirotto/Desktop/web2py-master/applications/admin/'])"
p1251
asbasbasbag64
(g80
g66
NtRp1252
(dp1253
g69
(dp1254
sg78
g1226
sg71
(lp1255
g64
(g85
g66
NtRp1256
(dp1257
g69
(dp1258
g89
g90
ssg78
g1252
sg71
(lp1259
S'applications_parent'
p1260
asbag64
(g85
g66
NtRp1261
(dp1262
g69
(dp1263
g96
g97
ssg78
g1252
sg71
(lp1264
S':'
asbag64
(g85
g66
NtRp1265
(dp1266
g69
(dp1267
sg78
g1252
sg71
(lp1268
g64
(g65
g66
NtRp1269
(dp1270
g69
(dp1271
g77
I4
ssg78
g1265
sg71
(lp1272
S'/Users/victorgirotto/Desktop/web2py-master'
p1273
asbasbasbag64
(g80
g66
NtRp1274
(dp1275
g69
(dp1276
sg78
g1226
sg71
(lp1277
g64
(g85
g66
NtRp1278
(dp1279
g69
(dp1280
g89
g90
ssg78
g1274
sg71
(lp1281
S'cmd_args'
p1282
asbag64
(g85
g66
NtRp1283
(dp1284
g69
(dp1285
g96
g97
ssg78
g1274
sg71
(lp1286
S':'
asbag64
(g85
g66
NtRp1287
(dp1288
g69
(dp1289
sg78
g1274
sg71
(lp1290
g64
(g65
g66
NtRp1291
(dp1292
g69
(dp1293
g77
I4
ssg78
g1287
sg71
(lp1294
g64
(g73
g66
NtRp1295
(dp1296
g69
(dp1297
g77
I3
ssg78
Nsg71
(lp1298
sbasbasbasbag64
(g80
g66
NtRp1299
(dp1300
g69
(dp1301
sg78
g1226
sg71
(lp1302
g64
(g85
g66
NtRp1303
(dp1304
g69
(dp1305
g89
g90
ssg78
g1299
sg71
(lp1306
S'cmd_options'
p1307
asbag64
(g85
g66
NtRp1308
(dp1309
g69
(dp1310
g96
g97
ssg78
g1299
sg71
(lp1311
S':'
asbag64
(g85
g66
NtRp1312
(dp1313
g69
(dp1314
sg78
g1299
sg71
(lp1315
g64
(g65
g66
NtRp1316
(dp1317
g69
(dp1318
g77
I4
ssg78
g1312
sg71
(lp1319
S"<Values at 0x10705ccb0: {'verbose': False, 'ip': '127.0.0.1', 'with_scheduler': False, 'ips': ['10.211.55.2', '10.37.129.2', '10.142.224.219'], 'shutdown_timeout': 5, 'taskbar': False, 'port': 8000, 'maxthreads': None, 'softcron': False, 'server_name': 'MacBook-Pro-de-Victor.local', 'bpython': False, 'nogui': False, 'pid_filename': 'httpserver.pid', 'extcron': False, 'runcron': False, 'run_system_tests': False, 'test': None, 'folder': '/Users/victorgirotto/Desktop/web2py-master', 'config': '', 'minthreads': None, 'winservice': '', 'shell': None, 'run': '', 'log_filename': 'httpserver.log', 'debuglevel': 30, 'args': [''], 'socket_timeout': 5, 'ssl_ca_certificate': None, 'scheduler': None, 'profiler_filename': None, 'ssl_private_key': '', 'scheduler_groups': None, 'password': '<ask>', 'request_queue_size': 5, 'ssl_certificate': '', 'cronjob': False, 'numthreads': None, 'quiet': False, 'interfaces': None, 'import_models': False, 'timeout': 10, 'plain': False, 'nobanner': False}>"
p1320
asbasbasbag64
(g80
g66
NtRp1321
(dp1322
g69
(dp1323
sg78
g1226
sg71
(lp1324
g64
(g85
g66
NtRp1325
(dp1326
g69
(dp1327
g89
g90
ssg78
g1321
sg71
(lp1328
S'db_sessions'
p1329
asbag64
(g85
g66
NtRp1330
(dp1331
g69
(dp1332
g96
g97
ssg78
g1321
sg71
(lp1333
S':'
asbag64
(g85
g66
NtRp1334
(dp1335
g69
(dp1336
sg78
g1321
sg71
(lp1337
g64
(g65
g66
NtRp1338
(dp1339
g69
(dp1340
g77
I4
ssg78
g1334
sg71
(lp1341
S'set([])'
p1342
asbasbasbag64
(g80
g66
NtRp1343
(dp1344
g69
(dp1345
sg78
g1226
sg71
(lp1346
g64
(g85
g66
NtRp1347
(dp1348
g69
(dp1349
g89
g90
ssg78
g1343
sg71
(lp1350
S'debugging'
p1351
asbag64
(g85
g66
NtRp1352
(dp1353
g69
(dp1354
g96
g97
ssg78
g1343
sg71
(lp1355
S':'
asbag64
(g85
g66
NtRp1356
(dp1357
g69
(dp1358
sg78
g1343
sg71
(lp1359
g64
(g65
g66
NtRp1360
(dp1361
g69
(dp1362
g77
I4
ssg78
g1356
sg71
(lp1363
S'False'
p1364
asbasbasbag64
(g80
g66
NtRp1365
(dp1366
g69
(dp1367
sg78
g1226
sg71
(lp1368
g64
(g85
g66
NtRp1369
(dp1370
g69
(dp1371
g89
g90
ssg78
g1365
sg71
(lp1372
S'gluon_parent'
p1373
asbag64
(g85
g66
NtRp1374
(dp1375
g69
(dp1376
g96
g97
ssg78
g1365
sg71
(lp1377
S':'
asbag64
(g85
g66
NtRp1378
(dp1379
g69
(dp1380
sg78
g1365
sg71
(lp1381
g64
(g65
g66
NtRp1382
(dp1383
g69
(dp1384
g77
I4
ssg78
g1378
sg71
(lp1385
S'/Users/victorgirotto/Desktop/web2py-master'
p1386
asbasbasbag64
(g80
g66
NtRp1387
(dp1388
g69
(dp1389
sg78
g1226
sg71
(lp1390
g64
(g85
g66
NtRp1391
(dp1392
g69
(dp1393
g89
g90
ssg78
g1387
sg71
(lp1394
S'http_accept'
p1395
asbag64
(g85
g66
NtRp1396
(dp1397
g69
(dp1398
g96
g97
ssg78
g1387
sg71
(lp1399
S':'
asbag64
(g85
g66
NtRp1400
(dp1401
g69
(dp1402
sg78
g1387
sg71
(lp1403
g64
(g65
g66
NtRp1404
(dp1405
g69
(dp1406
g77
I4
ssg78
g1400
sg71
(lp1407
S'*/*'
p1408
asbasbasbag64
(g80
g66
NtRp1409
(dp1410
g69
(dp1411
sg78
g1226
sg71
(lp1412
g64
(g85
g66
NtRp1413
(dp1414
g69
(dp1415
g89
g90
ssg78
g1409
sg71
(lp1416
S'http_accept_encoding'
p1417
asbag64
(g85
g66
NtRp1418
(dp1419
g69
(dp1420
g96
g97
ssg78
g1409
sg71
(lp1421
S':'
asbag64
(g85
g66
NtRp1422
(dp1423
g69
(dp1424
sg78
g1409
sg71
(lp1425
g64
(g65
g66
NtRp1426
(dp1427
g69
(dp1428
g77
I4
ssg78
g1422
sg71
(lp1429
S'gzip, deflate'
p1430
asbasbasbag64
(g80
g66
NtRp1431
(dp1432
g69
(dp1433
sg78
g1226
sg71
(lp1434
g64
(g85
g66
NtRp1435
(dp1436
g69
(dp1437
g89
g90
ssg78
g1431
sg71
(lp1438
S'http_accept_language'
p1439
asbag64
(g85
g66
NtRp1440
(dp1441
g69
(dp1442
g96
g97
ssg78
g1431
sg71
(lp1443
S':'
asbag64
(g85
g66
NtRp1444
(dp1445
g69
(dp1446
sg78
g1431
sg71
(lp1447
g64
(g65
g66
NtRp1448
(dp1449
g69
(dp1450
g77
I4
ssg78
g1444
sg71
(lp1451
S'pt-br'
p1452
asbasbasbag64
(g80
g66
NtRp1453
(dp1454
g69
(dp1455
sg78
g1226
sg71
(lp1456
g64
(g85
g66
NtRp1457
(dp1458
g69
(dp1459
g89
g90
ssg78
g1453
sg71
(lp1460
S'http_connection'
p1461
asbag64
(g85
g66
NtRp1462
(dp1463
g69
(dp1464
g96
g97
ssg78
g1453
sg71
(lp1465
S':'
asbag64
(g85
g66
NtRp1466
(dp1467
g69
(dp1468
sg78
g1453
sg71
(lp1469
g64
(g65
g66
NtRp1470
(dp1471
g69
(dp1472
g77
I4
ssg78
g1466
sg71
(lp1473
S'keep-alive'
p1474
asbasbasbag64
(g80
g66
NtRp1475
(dp1476
g69
(dp1477
sg78
g1226
sg71
(lp1478
g64
(g85
g66
NtRp1479
(dp1480
g69
(dp1481
g89
g90
ssg78
g1475
sg71
(lp1482
S'http_cookie'
p1483
asbag64
(g85
g66
NtRp1484
(dp1485
g69
(dp1486
g96
g97
ssg78
g1475
sg71
(lp1487
S':'
asbag64
(g85
g66
NtRp1488
(dp1489
g69
(dp1490
sg78
g1475
sg71
(lp1491
g64
(g65
g66
NtRp1492
(dp1493
g69
(dp1494
g77
I4
ssg78
g1488
sg71
(lp1495
S'session_id_mobileinterface=127.0.0.1-429e0887-8cde-4c72-a39b-ab60f8ccb9f8; session_id_cartesianplane=127.0.0.1-3bf01ba1-4390-4f13-bc5c-77cb72155d13; session_id_admin=127.0.0.1-a7fdf2f3-ac80-4d35-8b63-06907936ff34; session_id_welcome=127.0.0.1-406c2727-b8ee-4551-a6bf-871ff0a38423; session_id_geogebrainterface=127.0.0.1-46d10ee9-e5d6-460d-b9ce-d929c702141a'
p1496
asbasbasbag64
(g80
g66
NtRp1497
(dp1498
g69
(dp1499
sg78
g1226
sg71
(lp1500
g64
(g85
g66
NtRp1501
(dp1502
g69
(dp1503
g89
g90
ssg78
g1497
sg71
(lp1504
S'http_host'
p1505
asbag64
(g85
g66
NtRp1506
(dp1507
g69
(dp1508
g96
g97
ssg78
g1497
sg71
(lp1509
S':'
asbag64
(g85
g66
NtRp1510
(dp1511
g69
(dp1512
sg78
g1497
sg71
(lp1513
g64
(g65
g66
NtRp1514
(dp1515
g69
(dp1516
g77
I4
ssg78
g1510
sg71
(lp1517
S'localhost:8000'
p1518
asbasbasbag64
(g80
g66
NtRp1519
(dp1520
g69
(dp1521
sg78
g1226
sg71
(lp1522
g64
(g85
g66
NtRp1523
(dp1524
g69
(dp1525
g89
g90
ssg78
g1519
sg71
(lp1526
S'http_referer'
p1527
asbag64
(g85
g66
NtRp1528
(dp1529
g69
(dp1530
g96
g97
ssg78
g1519
sg71
(lp1531
S':'
asbag64
(g85
g66
NtRp1532
(dp1533
g69
(dp1534
sg78
g1519
sg71
(lp1535
g64
(g65
g66
NtRp1536
(dp1537
g69
(dp1538
g77
I4
ssg78
g1532
sg71
(lp1539
S'http://localhost:8000/CartesianPlane/default/applet'
p1540
asbasbasbag64
(g80
g66
NtRp1541
(dp1542
g69
(dp1543
sg78
g1226
sg71
(lp1544
g64
(g85
g66
NtRp1545
(dp1546
g69
(dp1547
g89
g90
ssg78
g1541
sg71
(lp1548
S'http_user_agent'
p1549
asbag64
(g85
g66
NtRp1550
(dp1551
g69
(dp1552
g96
g97
ssg78
g1541
sg71
(lp1553
S':'
asbag64
(g85
g66
NtRp1554
(dp1555
g69
(dp1556
sg78
g1541
sg71
(lp1557
g64
(g65
g66
NtRp1558
(dp1559
g69
(dp1560
g77
I4
ssg78
g1554
sg71
(lp1561
S'Mozilla/5.0 (Macintosh; Intel Mac OS X 10_8_2) AppleWebKit/536.26.17 (KHTML, like Gecko) Version/6.0.2 Safari/536.26.17'
p1562
asbasbasbag64
(g80
g66
NtRp1563
(dp1564
g69
(dp1565
sg78
g1226
sg71
(lp1566
g64
(g85
g66
NtRp1567
(dp1568
g69
(dp1569
g89
g90
ssg78
g1563
sg71
(lp1570
S'http_x_requested_with'
p1571
asbag64
(g85
g66
NtRp1572
(dp1573
g69
(dp1574
g96
g97
ssg78
g1563
sg71
(lp1575
S':'
asbag64
(g85
g66
NtRp1576
(dp1577
g69
(dp1578
sg78
g1563
sg71
(lp1579
g64
(g65
g66
NtRp1580
(dp1581
g69
(dp1582
g77
I4
ssg78
g1576
sg71
(lp1583
S'XMLHttpRequest'
p1584
asbasbasbag64
(g80
g66
NtRp1585
(dp1586
g69
(dp1587
sg78
g1226
sg71
(lp1588
g64
(g85
g66
NtRp1589
(dp1590
g69
(dp1591
g89
g90
ssg78
g1585
sg71
(lp1592
S'is_jython'
p1593
asbag64
(g85
g66
NtRp1594
(dp1595
g69
(dp1596
g96
g97
ssg78
g1585
sg71
(lp1597
S':'
asbag64
(g85
g66
NtRp1598
(dp1599
g69
(dp1600
sg78
g1585
sg71
(lp1601
g64
(g65
g66
NtRp1602
(dp1603
g69
(dp1604
g77
I4
ssg78
g1598
sg71
(lp1605
g1364
asbasbasbag64
(g80
g66
NtRp1606
(dp1607
g69
(dp1608
sg78
g1226
sg71
(lp1609
g64
(g85
g66
NtRp1610
(dp1611
g69
(dp1612
g89
g90
ssg78
g1606
sg71
(lp1613
S'is_pypy'
p1614
asbag64
(g85
g66
NtRp1615
(dp1616
g69
(dp1617
g96
g97
ssg78
g1606
sg71
(lp1618
S':'
asbag64
(g85
g66
NtRp1619
(dp1620
g69
(dp1621
sg78
g1606
sg71
(lp1622
g64
(g65
g66
NtRp1623
(dp1624
g69
(dp1625
g77
I4
ssg78
g1619
sg71
(lp1626
g1364
asbasbasbag64
(g80
g66
NtRp1627
(dp1628
g69
(dp1629
sg78
g1226
sg71
(lp1630
g64
(g85
g66
NtRp1631
(dp1632
g69
(dp1633
g89
g90
ssg78
g1627
sg71
(lp1634
S'local_hosts'
p1635
asbag64
(g85
g66
NtRp1636
(dp1637
g69
(dp1638
g96
g97
ssg78
g1627
sg71
(lp1639
S':'
asbag64
(g85
g66
NtRp1640
(dp1641
g69
(dp1642
sg78
g1627
sg71
(lp1643
g64
(g65
g66
NtRp1644
(dp1645
g69
(dp1646
g77
I4
ssg78
g1640
sg71
(lp1647
g64
(g73
g66
NtRp1648
(dp1649
g69
(dp1650
g77
I3
ssg78
Nsg71
(lp1651
g64
(g80
g66
NtRp1652
(dp1653
g69
(dp1654
sg78
g1648
sg71
(lp1655
g64
(g85
g66
NtRp1656
(dp1657
g69
(dp1658
sg78
g1652
sg71
(lp1659
g64
(g65
g66
NtRp1660
(dp1661
g69
(dp1662
g77
I3
ssg78
g1656
sg71
(lp1663
S'127.0.0.1'
p1664
asbasbasbag64
(g80
g66
NtRp1665
(dp1666
g69
(dp1667
sg78
g1648
sg71
(lp1668
g64
(g85
g66
NtRp1669
(dp1670
g69
(dp1671
sg78
g1665
sg71
(lp1672
g64
(g65
g66
NtRp1673
(dp1674
g69
(dp1675
g77
I3
ssg78
g1669
sg71
(lp1676
S'::ffff:127.0.0.1'
p1677
asbasbasbag64
(g80
g66
NtRp1678
(dp1679
g69
(dp1680
sg78
g1648
sg71
(lp1681
g64
(g85
g66
NtRp1682
(dp1683
g69
(dp1684
sg78
g1678
sg71
(lp1685
g64
(g65
g66
NtRp1686
(dp1687
g69
(dp1688
g77
I3
ssg78
g1682
sg71
(lp1689
S'MacBook-Pro-de-Victor.local'
p1690
asbasbasbag64
(g80
g66
NtRp1691
(dp1692
g69
(dp1693
sg78
g1648
sg71
(lp1694
g64
(g85
g66
NtRp1695
(dp1696
g69
(dp1697
sg78
g1691
sg71
(lp1698
g64
(g65
g66
NtRp1699
(dp1700
g69
(dp1701
g77
I3
ssg78
g1695
sg71
(lp1702
S'MacBook-Pro-de-Victor.local'
p1703
asbasbasbag64
(g80
g66
NtRp1704
(dp1705
g69
(dp1706
sg78
g1648
sg71
(lp1707
g64
(g85
g66
NtRp1708
(dp1709
g69
(dp1710
sg78
g1704
sg71
(lp1711
g64
(g65
g66
NtRp1712
(dp1713
g69
(dp1714
g77
I3
ssg78
g1708
sg71
(lp1715
S'10.211.55.2'
p1716
asbasbasbasbasbasbasbag64
(g80
g66
NtRp1717
(dp1718
g69
(dp1719
sg78
g1226
sg71
(lp1720
g64
(g85
g66
NtRp1721
(dp1722
g69
(dp1723
g89
g90
ssg78
g1717
sg71
(lp1724
S'path_info'
p1725
asbag64
(g85
g66
NtRp1726
(dp1727
g69
(dp1728
g96
g97
ssg78
g1717
sg71
(lp1729
S':'
asbag64
(g85
g66
NtRp1730
(dp1731
g69
(dp1732
sg78
g1717
sg71
(lp1733
g64
(g65
g66
NtRp1734
(dp1735
g69
(dp1736
g77
I4
ssg78
g1730
sg71
(lp1737
S'/CartesianPlane/default/loadOptions'
p1738
asbasbasbag64
(g80
g66
NtRp1739
(dp1740
g69
(dp1741
sg78
g1226
sg71
(lp1742
g64
(g85
g66
NtRp1743
(dp1744
g69
(dp1745
g89
g90
ssg78
g1739
sg71
(lp1746
S'query_string'
p1747
asbag64
(g85
g66
NtRp1748
(dp1749
g69
(dp1750
g96
g97
ssg78
g1739
sg71
(lp1751
S':'
asbag64
(g85
g66
NtRp1752
(dp1753
g69
(dp1754
sg78
g1739
sg71
(lp1755
g64
(g65
g66
NtRp1756
(dp1757
g69
(dp1758
g77
I4
ssg78
g1752
sg71
(lp1759
S'trigger=robot'
p1760
asbasbasbag64
(g80
g66
NtRp1761
(dp1762
g69
(dp1763
sg78
g1226
sg71
(lp1764
g64
(g85
g66
NtRp1765
(dp1766
g69
(dp1767
g89
g90
ssg78
g1761
sg71
(lp1768
S'remote_addr'
p1769
asbag64
(g85
g66
NtRp1770
(dp1771
g69
(dp1772
g96
g97
ssg78
g1761
sg71
(lp1773
S':'
asbag64
(g85
g66
NtRp1774
(dp1775
g69
(dp1776
sg78
g1761
sg71
(lp1777
g64
(g65
g66
NtRp1778
(dp1779
g69
(dp1780
g77
I4
ssg78
g1774
sg71
(lp1781
g219
asbasbasbag64
(g80
g66
NtRp1782
(dp1783
g69
(dp1784
sg78
g1226
sg71
(lp1785
g64
(g85
g66
NtRp1786
(dp1787
g69
(dp1788
g89
g90
ssg78
g1782
sg71
(lp1789
S'remote_port'
p1790
asbag64
(g85
g66
NtRp1791
(dp1792
g69
(dp1793
g96
g97
ssg78
g1782
sg71
(lp1794
S':'
asbag64
(g85
g66
NtRp1795
(dp1796
g69
(dp1797
sg78
g1782
sg71
(lp1798
g64
(g65
g66
NtRp1799
(dp1800
g69
(dp1801
g77
I4
ssg78
g1795
sg71
(lp1802
S'57333'
p1803
asbasbasbag64
(g80
g66
NtRp1804
(dp1805
g69
(dp1806
sg78
g1226
sg71
(lp1807
g64
(g85
g66
NtRp1808
(dp1809
g69
(dp1810
g89
g90
ssg78
g1804
sg71
(lp1811
S'request_method'
p1812
asbag64
(g85
g66
NtRp1813
(dp1814
g69
(dp1815
g96
g97
ssg78
g1804
sg71
(lp1816
S':'
asbag64
(g85
g66
NtRp1817
(dp1818
g69
(dp1819
sg78
g1804
sg71
(lp1820
g64
(g65
g66
NtRp1821
(dp1822
g69
(dp1823
g77
I4
ssg78
g1817
sg71
(lp1824
S'GET'
p1825
asbasbasbag64
(g80
g66
NtRp1826
(dp1827
g69
(dp1828
sg78
g1226
sg71
(lp1829
g64
(g85
g66
NtRp1830
(dp1831
g69
(dp1832
g89
g90
ssg78
g1826
sg71
(lp1833
S'request_uri'
p1834
asbag64
(g85
g66
NtRp1835
(dp1836
g69
(dp1837
g96
g97
ssg78
g1826
sg71
(lp1838
S':'
asbag64
(g85
g66
NtRp1839
(dp1840
g69
(dp1841
sg78
g1826
sg71
(lp1842
g64
(g65
g66
NtRp1843
(dp1844
g69
(dp1845
g77
I4
ssg78
g1839
sg71
(lp1846
S'/CartesianPlane/default/loadOptions?trigger=robot'
p1847
asbasbasbag64
(g80
g66
NtRp1848
(dp1849
g69
(dp1850
sg78
g1226
sg71
(lp1851
g64
(g85
g66
NtRp1852
(dp1853
g69
(dp1854
g89
g90
ssg78
g1848
sg71
(lp1855
S'script_name'
p1856
asbag64
(g85
g66
NtRp1857
(dp1858
g69
(dp1859
g96
g97
ssg78
g1848
sg71
(lp1860
S':'
asbag64
(g85
g66
NtRp1861
(dp1862
g69
(dp1863
sg78
g1848
sg71
(lp1864
g64
(g65
g66
NtRp1865
(dp1866
g69
(dp1867
g77
I4
ssg78
g1861
sg71
(lp1868
S''
asbasbasbag64
(g80
g66
NtRp1869
(dp1870
g69
(dp1871
sg78
g1226
sg71
(lp1872
g64
(g85
g66
NtRp1873
(dp1874
g69
(dp1875
g89
g90
ssg78
g1869
sg71
(lp1876
S'server_name'
p1877
asbag64
(g85
g66
NtRp1878
(dp1879
g69
(dp1880
g96
g97
ssg78
g1869
sg71
(lp1881
S':'
asbag64
(g85
g66
NtRp1882
(dp1883
g69
(dp1884
sg78
g1869
sg71
(lp1885
g64
(g65
g66
NtRp1886
(dp1887
g69
(dp1888
g77
I4
ssg78
g1882
sg71
(lp1889
g1703
asbasbasbag64
(g80
g66
NtRp1890
(dp1891
g69
(dp1892
sg78
g1226
sg71
(lp1893
g64
(g85
g66
NtRp1894
(dp1895
g69
(dp1896
g89
g90
ssg78
g1890
sg71
(lp1897
S'server_port'
p1898
asbag64
(g85
g66
NtRp1899
(dp1900
g69
(dp1901
g96
g97
ssg78
g1890
sg71
(lp1902
S':'
asbag64
(g85
g66
NtRp1903
(dp1904
g69
(dp1905
sg78
g1890
sg71
(lp1906
g64
(g65
g66
NtRp1907
(dp1908
g69
(dp1909
g77
I4
ssg78
g1903
sg71
(lp1910
S'8000'
p1911
asbasbasbag64
(g80
g66
NtRp1912
(dp1913
g69
(dp1914
sg78
g1226
sg71
(lp1915
g64
(g85
g66
NtRp1916
(dp1917
g69
(dp1918
g89
g90
ssg78
g1912
sg71
(lp1919
S'server_protocol'
p1920
asbag64
(g85
g66
NtRp1921
(dp1922
g69
(dp1923
g96
g97
ssg78
g1912
sg71
(lp1924
S':'
asbag64
(g85
g66
NtRp1925
(dp1926
g69
(dp1927
sg78
g1912
sg71
(lp1928
g64
(g65
g66
NtRp1929
(dp1930
g69
(dp1931
g77
I4
ssg78
g1925
sg71
(lp1932
S'HTTP/1.1'
p1933
asbasbasbag64
(g80
g66
NtRp1934
(dp1935
g69
(dp1936
sg78
g1226
sg71
(lp1937
g64
(g85
g66
NtRp1938
(dp1939
g69
(dp1940
g89
g90
ssg78
g1934
sg71
(lp1941
S'server_software'
p1942
asbag64
(g85
g66
NtRp1943
(dp1944
g69
(dp1945
g96
g97
ssg78
g1934
sg71
(lp1946
S':'
asbag64
(g85
g66
NtRp1947
(dp1948
g69
(dp1949
sg78
g1934
sg71
(lp1950
g64
(g65
g66
NtRp1951
(dp1952
g69
(dp1953
g77
I4
ssg78
g1947
sg71
(lp1954
S'Rocket 1.2.5'
p1955
asbasbasbag64
(g80
g66
NtRp1956
(dp1957
g69
(dp1958
sg78
g1226
sg71
(lp1959
g64
(g85
g66
NtRp1960
(dp1961
g69
(dp1962
g89
g90
ssg78
g1956
sg71
(lp1963
S'web2py_path'
p1964
asbag64
(g85
g66
NtRp1965
(dp1966
g69
(dp1967
g96
g97
ssg78
g1956
sg71
(lp1968
S':'
asbag64
(g85
g66
NtRp1969
(dp1970
g69
(dp1971
sg78
g1956
sg71
(lp1972
g64
(g65
g66
NtRp1973
(dp1974
g69
(dp1975
g77
I4
ssg78
g1969
sg71
(lp1976
g1273
asbasbasbag64
(g80
g66
NtRp1977
(dp1978
g69
(dp1979
sg78
g1226
sg71
(lp1980
g64
(g85
g66
NtRp1981
(dp1982
g69
(dp1983
g89
g90
ssg78
g1977
sg71
(lp1984
S'web2py_version'
p1985
asbag64
(g85
g66
NtRp1986
(dp1987
g69
(dp1988
g96
g97
ssg78
g1977
sg71
(lp1989
S':'
asbag64
(g85
g66
NtRp1990
(dp1991
g69
(dp1992
sg78
g1977
sg71
(lp1993
g64
(g65
g66
NtRp1994
(dp1995
g69
(dp1996
g77
I4
ssg78
g1990
sg71
(lp1997
g64
(g73
g66
NtRp1998
(dp1999
g69
(dp2000
g77
I3
ssg78
Nsg71
(lp2001
g64
(g80
g66
NtRp2002
(dp2003
g69
(dp2004
sg78
g1998
sg71
(lp2005
g64
(g85
g66
NtRp2006
(dp2007
g69
(dp2008
sg78
g2002
sg71
(lp2009
g64
(g65
g66
NtRp2010
(dp2011
g69
(dp2012
g77
I3
ssg78
g2006
sg71
(lp2013
S'2'
asbasbasbag64
(g80
g66
NtRp2014
(dp2015
g69
(dp2016
sg78
g1998
sg71
(lp2017
g64
(g85
g66
NtRp2018
(dp2019
g69
(dp2020
sg78
g2014
sg71
(lp2021
g64
(g65
g66
NtRp2022
(dp2023
g69
(dp2024
g77
I3
ssg78
g2018
sg71
(lp2025
S'2'
asbasbasbag64
(g80
g66
NtRp2026
(dp2027
g69
(dp2028
sg78
g1998
sg71
(lp2029
g64
(g85
g66
NtRp2030
(dp2031
g69
(dp2032
sg78
g2026
sg71
(lp2033
g64
(g65
g66
NtRp2034
(dp2035
g69
(dp2036
g77
I3
ssg78
g2030
sg71
(lp2037
S'1'
asbasbasbag64
(g80
g66
NtRp2038
(dp2039
g69
(dp2040
sg78
g1998
sg71
(lp2041
g64
(g85
g66
NtRp2042
(dp2043
g69
(dp2044
sg78
g2038
sg71
(lp2045
g64
(g65
g66
NtRp2046
(dp2047
g69
(dp2048
g77
I3
ssg78
g2042
sg71
(lp2049
S'datetime.datetime(2012, 11, 4, 20, 45, 19)'
p2050
asbasbasbag64
(g80
g66
NtRp2051
(dp2052
g69
(dp2053
sg78
g1998
sg71
(lp2054
g64
(g85
g66
NtRp2055
(dp2056
g69
(dp2057
sg78
g2051
sg71
(lp2058
g64
(g65
g66
NtRp2059
(dp2060
g69
(dp2061
g77
I3
ssg78
g2055
sg71
(lp2062
S'stable'
p2063
asbasbasbasbasbasbasbag64
(g80
g66
NtRp2064
(dp2065
g69
(dp2066
sg78
g1226
sg71
(lp2067
g64
(g85
g66
NtRp2068
(dp2069
g69
(dp2070
g89
g90
ssg78
g2064
sg71
(lp2071
S'wsgi_errors'
p2072
asbag64
(g85
g66
NtRp2073
(dp2074
g69
(dp2075
g96
g97
ssg78
g2064
sg71
(lp2076
S':'
asbag64
(g85
g66
NtRp2077
(dp2078
g69
(dp2079
sg78
g2064
sg71
(lp2080
g64
(g65
g66
NtRp2081
(dp2082
g69
(dp2083
g77
I4
ssg78
g2077
sg71
(lp2084
S"<open file '<stderr>', mode 'w' at 0x10628b270>"
p2085
asbasbasbag64
(g80
g66
NtRp2086
(dp2087
g69
(dp2088
sg78
g1226
sg71
(lp2089
g64
(g85
g66
NtRp2090
(dp2091
g69
(dp2092
g89
g90
ssg78
g2086
sg71
(lp2093
S'wsgi_file_wrapper'
p2094
asbag64
(g85
g66
NtRp2095
(dp2096
g69
(dp2097
g96
g97
ssg78
g2086
sg71
(lp2098
S':'
asbag64
(g85
g66
NtRp2099
(dp2100
g69
(dp2101
sg78
g2086
sg71
(lp2102
g64
(g65
g66
NtRp2103
(dp2104
g69
(dp2105
g77
I4
ssg78
g2099
sg71
(lp2106
S'<class wsgiref.util.FileWrapper at 0x106ffd9a8>'
p2107
asbasbasbag64
(g80
g66
NtRp2108
(dp2109
g69
(dp2110
sg78
g1226
sg71
(lp2111
g64
(g85
g66
NtRp2112
(dp2113
g69
(dp2114
g89
g90
ssg78
g2108
sg71
(lp2115
S'wsgi_input'
p2116
asbag64
(g85
g66
NtRp2117
(dp2118
g69
(dp2119
g96
g97
ssg78
g2108
sg71
(lp2120
S':'
asbag64
(g85
g66
NtRp2121
(dp2122
g69
(dp2123
sg78
g2108
sg71
(lp2124
g64
(g65
g66
NtRp2125
(dp2126
g69
(dp2127
g77
I4
ssg78
g2121
sg71
(lp2128
S'<socket._fileobject object at 0x10f056850>'
p2129
asbasbasbag64
(g80
g66
NtRp2130
(dp2131
g69
(dp2132
sg78
g1226
sg71
(lp2133
g64
(g85
g66
NtRp2134
(dp2135
g69
(dp2136
g89
g90
ssg78
g2130
sg71
(lp2137
S'wsgi_multiprocess'
p2138
asbag64
(g85
g66
NtRp2139
(dp2140
g69
(dp2141
g96
g97
ssg78
g2130
sg71
(lp2142
S':'
asbag64
(g85
g66
NtRp2143
(dp2144
g69
(dp2145
sg78
g2130
sg71
(lp2146
g64
(g65
g66
NtRp2147
(dp2148
g69
(dp2149
g77
I4
ssg78
g2143
sg71
(lp2150
g1364
asbasbasbag64
(g80
g66
NtRp2151
(dp2152
g69
(dp2153
sg78
g1226
sg71
(lp2154
g64
(g85
g66
NtRp2155
(dp2156
g69
(dp2157
g89
g90
ssg78
g2151
sg71
(lp2158
S'wsgi_multithread'
p2159
asbag64
(g85
g66
NtRp2160
(dp2161
g69
(dp2162
g96
g97
ssg78
g2151
sg71
(lp2163
S':'
asbag64
(g85
g66
NtRp2164
(dp2165
g69
(dp2166
sg78
g2151
sg71
(lp2167
g64
(g65
g66
NtRp2168
(dp2169
g69
(dp2170
g77
I4
ssg78
g2164
sg71
(lp2171
g107
asbasbasbag64
(g80
g66
NtRp2172
(dp2173
g69
(dp2174
sg78
g1226
sg71
(lp2175
g64
(g85
g66
NtRp2176
(dp2177
g69
(dp2178
g89
g90
ssg78
g2172
sg71
(lp2179
S'wsgi_run_once'
p2180
asbag64
(g85
g66
NtRp2181
(dp2182
g69
(dp2183
g96
g97
ssg78
g2172
sg71
(lp2184
S':'
asbag64
(g85
g66
NtRp2185
(dp2186
g69
(dp2187
sg78
g2172
sg71
(lp2188
g64
(g65
g66
NtRp2189
(dp2190
g69
(dp2191
g77
I4
ssg78
g2185
sg71
(lp2192
g1364
asbasbasbag64
(g80
g66
NtRp2193
(dp2194
g69
(dp2195
sg78
g1226
sg71
(lp2196
g64
(g85
g66
NtRp2197
(dp2198
g69
(dp2199
g89
g90
ssg78
g2193
sg71
(lp2200
S'wsgi_url_scheme'
p2201
asbag64
(g85
g66
NtRp2202
(dp2203
g69
(dp2204
g96
g97
ssg78
g2193
sg71
(lp2205
S':'
asbag64
(g85
g66
NtRp2206
(dp2207
g69
(dp2208
sg78
g2193
sg71
(lp2209
g64
(g65
g66
NtRp2210
(dp2211
g69
(dp2212
g77
I4
ssg78
g2206
sg71
(lp2213
S'http'
p2214
asbasbasbag64
(g80
g66
NtRp2215
(dp2216
g69
(dp2217
sg78
g1226
sg71
(lp2218
g64
(g85
g66
NtRp2219
(dp2220
g69
(dp2221
g89
g90
ssg78
g2215
sg71
(lp2222
S'wsgi_version'
p2223
asbag64
(g85
g66
NtRp2224
(dp2225
g69
(dp2226
g96
g97
ssg78
g2215
sg71
(lp2227
S':'
asbag64
(g85
g66
NtRp2228
(dp2229
g69
(dp2230
sg78
g2215
sg71
(lp2231
g64
(g65
g66
NtRp2232
(dp2233
g69
(dp2234
g77
I4
ssg78
g2228
sg71
(lp2235
g64
(g73
g66
NtRp2236
(dp2237
g69
(dp2238
g77
I3
ssg78
Nsg71
(lp2239
g64
(g80
g66
NtRp2240
(dp2241
g69
(dp2242
sg78
g2236
sg71
(lp2243
g64
(g85
g66
NtRp2244
(dp2245
g69
(dp2246
sg78
g2240
sg71
(lp2247
g64
(g65
g66
NtRp2248
(dp2249
g69
(dp2250
g77
I3
ssg78
g2244
sg71
(lp2251
S'1'
asbasbasbag64
(g80
g66
NtRp2252
(dp2253
g69
(dp2254
sg78
g2236
sg71
(lp2255
g64
(g85
g66
NtRp2256
(dp2257
g69
(dp2258
sg78
g2252
sg71
(lp2259
g64
(g65
g66
NtRp2260
(dp2261
g69
(dp2262
g77
I3
ssg78
g2256
sg71
(lp2263
S'0'
asbasbasbasbasbasbasbasbasbasbasbag64
(g80
g66
NtRp2264
(dp2265
g69
(dp2266
sg78
g74
sg71
(lp2267
g64
(g85
g66
NtRp2268
(dp2269
g69
(dp2270
g89
g90
ssg78
g2264
sg71
(lp2271
S'extension'
p2272
asbag64
(g85
g66
NtRp2273
(dp2274
g69
(dp2275
g96
g97
ssg78
g2264
sg71
(lp2276
S':'
asbag64
(g85
g66
NtRp2277
(dp2278
g69
(dp2279
sg78
g2264
sg71
(lp2280
g64
(g65
g66
NtRp2281
(dp2282
g69
(dp2283
g77
I5
ssg78
g2277
sg71
(lp2284
S'html'
p2285
asbasbasbag64
(g80
g66
NtRp2286
(dp2287
g69
(dp2288
sg78
g74
sg71
(lp2289
g64
(g85
g66
NtRp2290
(dp2291
g69
(dp2292
g89
g90
ssg78
g2286
sg71
(lp2293
S'folder'
p2294
asbag64
(g85
g66
NtRp2295
(dp2296
g69
(dp2297
g96
g97
ssg78
g2286
sg71
(lp2298
S':'
asbag64
(g85
g66
NtRp2299
(dp2300
g69
(dp2301
sg78
g2286
sg71
(lp2302
g64
(g65
g66
NtRp2303
(dp2304
g69
(dp2305
g77
I5
ssg78
g2299
sg71
(lp2306
S'/Users/victorgirotto/Desktop/web2py-master/applications/CartesianPlane/'
p2307
asbasbasbag64
(g80
g66
NtRp2308
(dp2309
g69
(dp2310
sg78
g74
sg71
(lp2311
g64
(g85
g66
NtRp2312
(dp2313
g69
(dp2314
g89
g90
ssg78
g2308
sg71
(lp2315
S'function'
p2316
asbag64
(g85
g66
NtRp2317
(dp2318
g69
(dp2319
g96
g97
ssg78
g2308
sg71
(lp2320
S':'
asbag64
(g85
g66
NtRp2321
(dp2322
g69
(dp2323
sg78
g2308
sg71
(lp2324
g64
(g65
g66
NtRp2325
(dp2326
g69
(dp2327
g77
I5
ssg78
g2321
sg71
(lp2328
S'loadOptions'
p2329
asbasbasbag64
(g80
g66
NtRp2330
(dp2331
g69
(dp2332
sg78
g74
sg71
(lp2333
g64
(g85
g66
NtRp2334
(dp2335
g69
(dp2336
g89
g90
ssg78
g2330
sg71
(lp2337
S'get_vars'
p2338
asbag64
(g85
g66
NtRp2339
(dp2340
g69
(dp2341
g96
g97
ssg78
g2330
sg71
(lp2342
S':'
asbag64
(g85
g66
NtRp2343
(dp2344
g69
(dp2345
sg78
g2330
sg71
(lp2346
g64
(g65
g66
NtRp2347
(dp2348
g69
(dp2349
g77
I5
ssg78
g2343
sg71
(lp2350
g64
(g73
g66
NtRp2351
(dp2352
g69
(dp2353
g77
I4
ssg78
Nsg71
(lp2354
g64
(g80
g66
NtRp2355
(dp2356
g69
(dp2357
sg78
g2351
sg71
(lp2358
g64
(g85
g66
NtRp2359
(dp2360
g69
(dp2361
g89
g90
ssg78
g2355
sg71
(lp2362
S'trigger'
p2363
asbag64
(g85
g66
NtRp2364
(dp2365
g69
(dp2366
g96
g97
ssg78
g2355
sg71
(lp2367
S':'
asbag64
(g85
g66
NtRp2368
(dp2369
g69
(dp2370
sg78
g2355
sg71
(lp2371
g64
(g65
g66
NtRp2372
(dp2373
g69
(dp2374
g77
I4
ssg78
g2368
sg71
(lp2375
S'robot'
p2376
asbasbasbasbasbasbasbag64
(g80
g66
NtRp2377
(dp2378
g69
(dp2379
sg78
g74
sg71
(lp2380
g64
(g85
g66
NtRp2381
(dp2382
g69
(dp2383
g89
g90
ssg78
g2377
sg71
(lp2384
S'global_settings'
p2385
asbag64
(g85
g66
NtRp2386
(dp2387
g69
(dp2388
g96
g97
ssg78
g2377
sg71
(lp2389
S':'
asbag64
(g85
g66
NtRp2390
(dp2391
g69
(dp2392
sg78
g2377
sg71
(lp2393
g64
(g65
g66
NtRp2394
(dp2395
g69
(dp2396
g77
I5
ssg78
g2390
sg71
(lp2397
g64
(g73
g66
NtRp2398
(dp2399
g69
(dp2400
g77
I4
ssg78
Nsg71
(lp2401
g64
(g80
g66
NtRp2402
(dp2403
g69
(dp2404
sg78
g2398
sg71
(lp2405
g64
(g85
g66
NtRp2406
(dp2407
g69
(dp2408
g89
g90
ssg78
g2402
sg71
(lp2409
g1238
asbag64
(g85
g66
NtRp2410
(dp2411
g69
(dp2412
g96
g97
ssg78
g2402
sg71
(lp2413
S':'
asbag64
(g85
g66
NtRp2414
(dp2415
g69
(dp2416
sg78
g2402
sg71
(lp2417
g64
(g65
g66
NtRp2418
(dp2419
g69
(dp2420
g77
I4
ssg78
g2414
sg71
(lp2421
S"set(['/Users/victorgirotto/Desktop/web2py-master/applications/MobileInterface/', '/Users/victorgirotto/Desktop/web2py-master/applications/welcome/', '/Users/victorgirotto/Desktop/web2py-master/applications/CartesianPlane/', '/Users/victorgirotto/Desktop/web2py-master/applications/GeogebraInterface/', '/Users/victorgirotto/Desktop/web2py-master/applications/admin/'])"
p2422
asbasbasbag64
(g80
g66
NtRp2423
(dp2424
g69
(dp2425
sg78
g2398
sg71
(lp2426
g64
(g85
g66
NtRp2427
(dp2428
g69
(dp2429
g89
g90
ssg78
g2423
sg71
(lp2430
g1260
asbag64
(g85
g66
NtRp2431
(dp2432
g69
(dp2433
g96
g97
ssg78
g2423
sg71
(lp2434
S':'
asbag64
(g85
g66
NtRp2435
(dp2436
g69
(dp2437
sg78
g2423
sg71
(lp2438
g64
(g65
g66
NtRp2439
(dp2440
g69
(dp2441
g77
I4
ssg78
g2435
sg71
(lp2442
g1273
asbasbasbag64
(g80
g66
NtRp2443
(dp2444
g69
(dp2445
sg78
g2398
sg71
(lp2446
g64
(g85
g66
NtRp2447
(dp2448
g69
(dp2449
g89
g90
ssg78
g2443
sg71
(lp2450
g1282
asbag64
(g85
g66
NtRp2451
(dp2452
g69
(dp2453
g96
g97
ssg78
g2443
sg71
(lp2454
S':'
asbag64
(g85
g66
NtRp2455
(dp2456
g69
(dp2457
sg78
g2443
sg71
(lp2458
g64
(g65
g66
NtRp2459
(dp2460
g69
(dp2461
g77
I4
ssg78
g2455
sg71
(lp2462
g64
(g73
g66
NtRp2463
(dp2464
g69
(dp2465
g77
I3
ssg78
Nsg71
(lp2466
sbasbasbasbag64
(g80
g66
NtRp2467
(dp2468
g69
(dp2469
sg78
g2398
sg71
(lp2470
g64
(g85
g66
NtRp2471
(dp2472
g69
(dp2473
g89
g90
ssg78
g2467
sg71
(lp2474
g1307
asbag64
(g85
g66
NtRp2475
(dp2476
g69
(dp2477
g96
g97
ssg78
g2467
sg71
(lp2478
S':'
asbag64
(g85
g66
NtRp2479
(dp2480
g69
(dp2481
sg78
g2467
sg71
(lp2482
g64
(g65
g66
NtRp2483
(dp2484
g69
(dp2485
g77
I4
ssg78
g2479
sg71
(lp2486
S"<Values at 0x10705ccb0: {'verbose': False, 'ip': '127.0.0.1', 'with_scheduler': False, 'ips': ['10.211.55.2', '10.37.129.2', '10.142.224.219'], 'shutdown_timeout': 5, 'taskbar': False, 'port': 8000, 'maxthreads': None, 'softcron': False, 'server_name': 'MacBook-Pro-de-Victor.local', 'bpython': False, 'nogui': False, 'pid_filename': 'httpserver.pid', 'extcron': False, 'runcron': False, 'run_system_tests': False, 'test': None, 'folder': '/Users/victorgirotto/Desktop/web2py-master', 'config': '', 'minthreads': None, 'winservice': '', 'shell': None, 'run': '', 'log_filename': 'httpserver.log', 'debuglevel': 30, 'args': [''], 'socket_timeout': 5, 'ssl_ca_certificate': None, 'scheduler': None, 'profiler_filename': None, 'ssl_private_key': '', 'scheduler_groups': None, 'password': '<ask>', 'request_queue_size': 5, 'ssl_certificate': '', 'cronjob': False, 'numthreads': None, 'quiet': False, 'interfaces': None, 'import_models': False, 'timeout': 10, 'plain': False, 'nobanner': False}>"
p2487
asbasbasbag64
(g80
g66
NtRp2488
(dp2489
g69
(dp2490
sg78
g2398
sg71
(lp2491
g64
(g85
g66
NtRp2492
(dp2493
g69
(dp2494
g89
g90
ssg78
g2488
sg71
(lp2495
g1329
asbag64
(g85
g66
NtRp2496
(dp2497
g69
(dp2498
g96
g97
ssg78
g2488
sg71
(lp2499
S':'
asbag64
(g85
g66
NtRp2500
(dp2501
g69
(dp2502
sg78
g2488
sg71
(lp2503
g64
(g65
g66
NtRp2504
(dp2505
g69
(dp2506
g77
I4
ssg78
g2500
sg71
(lp2507
S'set([])'
p2508
asbasbasbag64
(g80
g66
NtRp2509
(dp2510
g69
(dp2511
sg78
g2398
sg71
(lp2512
g64
(g85
g66
NtRp2513
(dp2514
g69
(dp2515
g89
g90
ssg78
g2509
sg71
(lp2516
g1351
asbag64
(g85
g66
NtRp2517
(dp2518
g69
(dp2519
g96
g97
ssg78
g2509
sg71
(lp2520
S':'
asbag64
(g85
g66
NtRp2521
(dp2522
g69
(dp2523
sg78
g2509
sg71
(lp2524
g64
(g65
g66
NtRp2525
(dp2526
g69
(dp2527
g77
I4
ssg78
g2521
sg71
(lp2528
g1364
asbasbasbag64
(g80
g66
NtRp2529
(dp2530
g69
(dp2531
sg78
g2398
sg71
(lp2532
g64
(g85
g66
NtRp2533
(dp2534
g69
(dp2535
g89
g90
ssg78
g2529
sg71
(lp2536
g1373
asbag64
(g85
g66
NtRp2537
(dp2538
g69
(dp2539
g96
g97
ssg78
g2529
sg71
(lp2540
S':'
asbag64
(g85
g66
NtRp2541
(dp2542
g69
(dp2543
sg78
g2529
sg71
(lp2544
g64
(g65
g66
NtRp2545
(dp2546
g69
(dp2547
g77
I4
ssg78
g2541
sg71
(lp2548
g1386
asbasbasbag64
(g80
g66
NtRp2549
(dp2550
g69
(dp2551
sg78
g2398
sg71
(lp2552
g64
(g85
g66
NtRp2553
(dp2554
g69
(dp2555
g89
g90
ssg78
g2549
sg71
(lp2556
g1593
asbag64
(g85
g66
NtRp2557
(dp2558
g69
(dp2559
g96
g97
ssg78
g2549
sg71
(lp2560
S':'
asbag64
(g85
g66
NtRp2561
(dp2562
g69
(dp2563
sg78
g2549
sg71
(lp2564
g64
(g65
g66
NtRp2565
(dp2566
g69
(dp2567
g77
I4
ssg78
g2561
sg71
(lp2568
g1364
asbasbasbag64
(g80
g66
NtRp2569
(dp2570
g69
(dp2571
sg78
g2398
sg71
(lp2572
g64
(g85
g66
NtRp2573
(dp2574
g69
(dp2575
g89
g90
ssg78
g2569
sg71
(lp2576
g1614
asbag64
(g85
g66
NtRp2577
(dp2578
g69
(dp2579
g96
g97
ssg78
g2569
sg71
(lp2580
S':'
asbag64
(g85
g66
NtRp2581
(dp2582
g69
(dp2583
sg78
g2569
sg71
(lp2584
g64
(g65
g66
NtRp2585
(dp2586
g69
(dp2587
g77
I4
ssg78
g2581
sg71
(lp2588
g1364
asbasbasbag64
(g80
g66
NtRp2589
(dp2590
g69
(dp2591
sg78
g2398
sg71
(lp2592
g64
(g85
g66
NtRp2593
(dp2594
g69
(dp2595
g89
g90
ssg78
g2589
sg71
(lp2596
g1635
asbag64
(g85
g66
NtRp2597
(dp2598
g69
(dp2599
g96
g97
ssg78
g2589
sg71
(lp2600
S':'
asbag64
(g85
g66
NtRp2601
(dp2602
g69
(dp2603
sg78
g2589
sg71
(lp2604
g64
(g65
g66
NtRp2605
(dp2606
g69
(dp2607
g77
I4
ssg78
g2601
sg71
(lp2608
g64
(g73
g66
NtRp2609
(dp2610
g69
(dp2611
g77
I3
ssg78
Nsg71
(lp2612
g64
(g80
g66
NtRp2613
(dp2614
g69
(dp2615
sg78
g2609
sg71
(lp2616
g64
(g85
g66
NtRp2617
(dp2618
g69
(dp2619
sg78
g2613
sg71
(lp2620
g64
(g65
g66
NtRp2621
(dp2622
g69
(dp2623
g77
I3
ssg78
g2617
sg71
(lp2624
g1664
asbasbasbag64
(g80
g66
NtRp2625
(dp2626
g69
(dp2627
sg78
g2609
sg71
(lp2628
g64
(g85
g66
NtRp2629
(dp2630
g69
(dp2631
sg78
g2625
sg71
(lp2632
g64
(g65
g66
NtRp2633
(dp2634
g69
(dp2635
g77
I3
ssg78
g2629
sg71
(lp2636
g1677
asbasbasbag64
(g80
g66
NtRp2637
(dp2638
g69
(dp2639
sg78
g2609
sg71
(lp2640
g64
(g85
g66
NtRp2641
(dp2642
g69
(dp2643
sg78
g2637
sg71
(lp2644
g64
(g65
g66
NtRp2645
(dp2646
g69
(dp2647
g77
I3
ssg78
g2641
sg71
(lp2648
g1690
asbasbasbag64
(g80
g66
NtRp2649
(dp2650
g69
(dp2651
sg78
g2609
sg71
(lp2652
g64
(g85
g66
NtRp2653
(dp2654
g69
(dp2655
sg78
g2649
sg71
(lp2656
g64
(g65
g66
NtRp2657
(dp2658
g69
(dp2659
g77
I3
ssg78
g2653
sg71
(lp2660
g1703
asbasbasbag64
(g80
g66
NtRp2661
(dp2662
g69
(dp2663
sg78
g2609
sg71
(lp2664
g64
(g85
g66
NtRp2665
(dp2666
g69
(dp2667
sg78
g2661
sg71
(lp2668
g64
(g65
g66
NtRp2669
(dp2670
g69
(dp2671
g77
I3
ssg78
g2665
sg71
(lp2672
g1716
asbasbasbasbasbasbasbag64
(g80
g66
NtRp2673
(dp2674
g69
(dp2675
sg78
g2398
sg71
(lp2676
g64
(g85
g66
NtRp2677
(dp2678
g69
(dp2679
g89
g90
ssg78
g2673
sg71
(lp2680
g1985
asbag64
(g85
g66
NtRp2681
(dp2682
g69
(dp2683
g96
g97
ssg78
g2673
sg71
(lp2684
S':'
asbag64
(g85
g66
NtRp2685
(dp2686
g69
(dp2687
sg78
g2673
sg71
(lp2688
g64
(g65
g66
NtRp2689
(dp2690
g69
(dp2691
g77
I4
ssg78
g2685
sg71
(lp2692
g64
(g73
g66
NtRp2693
(dp2694
g69
(dp2695
g77
I3
ssg78
Nsg71
(lp2696
g64
(g80
g66
NtRp2697
(dp2698
g69
(dp2699
sg78
g2693
sg71
(lp2700
g64
(g85
g66
NtRp2701
(dp2702
g69
(dp2703
sg78
g2697
sg71
(lp2704
g64
(g65
g66
NtRp2705
(dp2706
g69
(dp2707
g77
I3
ssg78
g2701
sg71
(lp2708
S'2'
asbasbasbag64
(g80
g66
NtRp2709
(dp2710
g69
(dp2711
sg78
g2693
sg71
(lp2712
g64
(g85
g66
NtRp2713
(dp2714
g69
(dp2715
sg78
g2709
sg71
(lp2716
g64
(g65
g66
NtRp2717
(dp2718
g69
(dp2719
g77
I3
ssg78
g2713
sg71
(lp2720
S'2'
asbasbasbag64
(g80
g66
NtRp2721
(dp2722
g69
(dp2723
sg78
g2693
sg71
(lp2724
g64
(g85
g66
NtRp2725
(dp2726
g69
(dp2727
sg78
g2721
sg71
(lp2728
g64
(g65
g66
NtRp2729
(dp2730
g69
(dp2731
g77
I3
ssg78
g2725
sg71
(lp2732
S'1'
asbasbasbag64
(g80
g66
NtRp2733
(dp2734
g69
(dp2735
sg78
g2693
sg71
(lp2736
g64
(g85
g66
NtRp2737
(dp2738
g69
(dp2739
sg78
g2733
sg71
(lp2740
g64
(g65
g66
NtRp2741
(dp2742
g69
(dp2743
g77
I3
ssg78
g2737
sg71
(lp2744
S'datetime.datetime(2012, 11, 4, 20, 45, 19)'
p2745
asbasbasbag64
(g80
g66
NtRp2746
(dp2747
g69
(dp2748
sg78
g2693
sg71
(lp2749
g64
(g85
g66
NtRp2750
(dp2751
g69
(dp2752
sg78
g2746
sg71
(lp2753
g64
(g65
g66
NtRp2754
(dp2755
g69
(dp2756
g77
I3
ssg78
g2750
sg71
(lp2757
g2063
asbasbasbasbasbasbasbasbasbasbasbag64
(g80
g66
NtRp2758
(dp2759
g69
(dp2760
sg78
g74
sg71
(lp2761
g64
(g85
g66
NtRp2762
(dp2763
g69
(dp2764
g89
g90
ssg78
g2758
sg71
(lp2765
S'is_https'
p2766
asbag64
(g85
g66
NtRp2767
(dp2768
g69
(dp2769
g96
g97
ssg78
g2758
sg71
(lp2770
S':'
asbag64
(g85
g66
NtRp2771
(dp2772
g69
(dp2773
sg78
g2758
sg71
(lp2774
g64
(g65
g66
NtRp2775
(dp2776
g69
(dp2777
g77
I5
ssg78
g2771
sg71
(lp2778
g1364
asbasbasbag64
(g80
g66
NtRp2779
(dp2780
g69
(dp2781
sg78
g74
sg71
(lp2782
g64
(g85
g66
NtRp2783
(dp2784
g69
(dp2785
g89
g90
ssg78
g2779
sg71
(lp2786
S'is_local'
p2787
asbag64
(g85
g66
NtRp2788
(dp2789
g69
(dp2790
g96
g97
ssg78
g2779
sg71
(lp2791
S':'
asbag64
(g85
g66
NtRp2792
(dp2793
g69
(dp2794
sg78
g2779
sg71
(lp2795
g64
(g65
g66
NtRp2796
(dp2797
g69
(dp2798
g77
I5
ssg78
g2792
sg71
(lp2799
g107
asbasbasbag64
(g80
g66
NtRp2800
(dp2801
g69
(dp2802
sg78
g74
sg71
(lp2803
g64
(g85
g66
NtRp2804
(dp2805
g69
(dp2806
g89
g90
ssg78
g2800
sg71
(lp2807
S'is_restful'
p2808
asbag64
(g85
g66
NtRp2809
(dp2810
g69
(dp2811
g96
g97
ssg78
g2800
sg71
(lp2812
S':'
asbag64
(g85
g66
NtRp2813
(dp2814
g69
(dp2815
sg78
g2800
sg71
(lp2816
g64
(g65
g66
NtRp2817
(dp2818
g69
(dp2819
g77
I5
ssg78
g2813
sg71
(lp2820
g1364
asbasbasbag64
(g80
g66
NtRp2821
(dp2822
g69
(dp2823
sg78
g74
sg71
(lp2824
g64
(g85
g66
NtRp2825
(dp2826
g69
(dp2827
g89
g90
ssg78
g2821
sg71
(lp2828
S'now'
p2829
asbag64
(g85
g66
NtRp2830
(dp2831
g69
(dp2832
g96
g97
ssg78
g2821
sg71
(lp2833
S':'
asbag64
(g85
g66
NtRp2834
(dp2835
g69
(dp2836
sg78
g2821
sg71
(lp2837
g64
(g65
g66
NtRp2838
(dp2839
g69
(dp2840
g77
I5
ssg78
g2834
sg71
(lp2841
S'datetime.datetime(2013, 1, 24, 17, 10, 50, 308832)'
p2842
asbasbasbag64
(g80
g66
NtRp2843
(dp2844
g69
(dp2845
sg78
g74
sg71
(lp2846
g64
(g85
g66
NtRp2847
(dp2848
g69
(dp2849
g89
g90
ssg78
g2843
sg71
(lp2850
S'post_vars'
p2851
asbag64
(g85
g66
NtRp2852
(dp2853
g69
(dp2854
g96
g97
ssg78
g2843
sg71
(lp2855
S':'
asbag64
(g85
g66
NtRp2856
(dp2857
g69
(dp2858
sg78
g2843
sg71
(lp2859
g64
(g65
g66
NtRp2860
(dp2861
g69
(dp2862
g77
I5
ssg78
g2856
sg71
(lp2863
g64
(g73
g66
NtRp2864
(dp2865
g69
(dp2866
g77
I4
ssg78
Nsg71
(lp2867
sbasbasbasbag64
(g80
g66
NtRp2868
(dp2869
g69
(dp2870
sg78
g74
sg71
(lp2871
g64
(g85
g66
NtRp2872
(dp2873
g69
(dp2874
g89
g90
ssg78
g2868
sg71
(lp2875
S'raw_args'
p2876
asbag64
(g85
g66
NtRp2877
(dp2878
g69
(dp2879
g96
g97
ssg78
g2868
sg71
(lp2880
S':'
asbag64
(g85
g66
NtRp2881
(dp2882
g69
(dp2883
sg78
g2868
sg71
(lp2884
g64
(g65
g66
NtRp2885
(dp2886
g69
(dp2887
g77
I5
ssg78
g2881
sg71
(lp2888
S''
asbasbasbag64
(g80
g66
NtRp2889
(dp2890
g69
(dp2891
sg78
g74
sg71
(lp2892
g64
(g85
g66
NtRp2893
(dp2894
g69
(dp2895
g89
g90
ssg78
g2889
sg71
(lp2896
S'raw_extension'
p2897
asbag64
(g85
g66
NtRp2898
(dp2899
g69
(dp2900
g96
g97
ssg78
g2889
sg71
(lp2901
S':'
asbag64
(g85
g66
NtRp2902
(dp2903
g69
(dp2904
sg78
g2889
sg71
(lp2905
g64
(g65
g66
NtRp2906
(dp2907
g69
(dp2908
g77
I5
ssg78
g2902
sg71
(lp2909
S'None'
p2910
asbasbasbag64
(g80
g66
NtRp2911
(dp2912
g69
(dp2913
sg78
g74
sg71
(lp2914
g64
(g85
g66
NtRp2915
(dp2916
g69
(dp2917
g89
g90
ssg78
g2911
sg71
(lp2918
S'url'
p2919
asbag64
(g85
g66
NtRp2920
(dp2921
g69
(dp2922
g96
g97
ssg78
g2911
sg71
(lp2923
S':'
asbag64
(g85
g66
NtRp2924
(dp2925
g69
(dp2926
sg78
g2911
sg71
(lp2927
g64
(g65
g66
NtRp2928
(dp2929
g69
(dp2930
g77
I5
ssg78
g2924
sg71
(lp2931
g1738
asbasbasbag64
(g80
g66
NtRp2932
(dp2933
g69
(dp2934
sg78
g74
sg71
(lp2935
g64
(g85
g66
NtRp2936
(dp2937
g69
(dp2938
g89
g90
ssg78
g2932
sg71
(lp2939
S'utcnow'
p2940
asbag64
(g85
g66
NtRp2941
(dp2942
g69
(dp2943
g96
g97
ssg78
g2932
sg71
(lp2944
S':'
asbag64
(g85
g66
NtRp2945
(dp2946
g69
(dp2947
sg78
g2932
sg71
(lp2948
g64
(g65
g66
NtRp2949
(dp2950
g69
(dp2951
g77
I5
ssg78
g2945
sg71
(lp2952
S'datetime.datetime(2013, 1, 25, 0, 10, 50, 308841)'
p2953
asbasbasbag64
(g80
g66
NtRp2954
(dp2955
g69
(dp2956
sg78
g74
sg71
(lp2957
g64
(g85
g66
NtRp2958
(dp2959
g69
(dp2960
g89
g90
ssg78
g2954
sg71
(lp2961
S'uuid'
p2962
asbag64
(g85
g66
NtRp2963
(dp2964
g69
(dp2965
g96
g97
ssg78
g2954
sg71
(lp2966
S':'
asbag64
(g85
g66
NtRp2967
(dp2968
g69
(dp2969
sg78
g2954
sg71
(lp2970
g64
(g65
g66
NtRp2971
(dp2972
g69
(dp2973
g77
I5
ssg78
g2967
sg71
(lp2974
S'CartesianPlane/127.0.0.1.2013-01-24.17-10-50.55af401d-08e8-419b-9d44-c2da15fbd78a'
p2975
asbasbasbag64
(g80
g66
NtRp2976
(dp2977
g69
(dp2978
sg78
g74
sg71
(lp2979
g64
(g85
g66
NtRp2980
(dp2981
g69
(dp2982
g89
g90
ssg78
g2976
sg71
(lp2983
S'vars'
p2984
asbag64
(g85
g66
NtRp2985
(dp2986
g69
(dp2987
g96
g97
ssg78
g2976
sg71
(lp2988
S':'
asbag64
(g85
g66
NtRp2989
(dp2990
g69
(dp2991
sg78
g2976
sg71
(lp2992
g64
(g65
g66
NtRp2993
(dp2994
g69
(dp2995
g77
I5
ssg78
g2989
sg71
(lp2996
g64
(g73
g66
NtRp2997
(dp2998
g69
(dp2999
g77
I4
ssg78
Nsg71
(lp3000
g64
(g80
g66
NtRp3001
(dp3002
g69
(dp3003
sg78
g2997
sg71
(lp3004
g64
(g85
g66
NtRp3005
(dp3006
g69
(dp3007
g89
g90
ssg78
g3001
sg71
(lp3008
g2363
asbag64
(g85
g66
NtRp3009
(dp3010
g69
(dp3011
g96
g97
ssg78
g3001
sg71
(lp3012
S':'
asbag64
(g85
g66
NtRp3013
(dp3014
g69
(dp3015
sg78
g3001
sg71
(lp3016
g64
(g65
g66
NtRp3017
(dp3018
g69
(dp3019
g77
I4
ssg78
g3013
sg71
(lp3020
g2376
asbasbasbasbasbasbasbag64
(g80
g66
NtRp3021
(dp3022
g69
(dp3023
sg78
g74
sg71
(lp3024
g64
(g85
g66
NtRp3025
(dp3026
g69
(dp3027
g89
g90
ssg78
g3021
sg71
(lp3028
S'wsgi'
p3029
asbag64
(g85
g66
NtRp3030
(dp3031
g69
(dp3032
g96
g97
ssg78
g3021
sg71
(lp3033
S':'
asbag64
(g85
g66
NtRp3034
(dp3035
g69
(dp3036
sg78
g3021
sg71
(lp3037
g64
(g65
g66
NtRp3038
(dp3039
g69
(dp3040
g77
I5
ssg78
g3034
sg71
(lp3041
g64
(g73
g66
NtRp3042
(dp3043
g69
(dp3044
g77
I4
ssg78
Nsg71
(lp3045
g64
(g80
g66
NtRp3046
(dp3047
g69
(dp3048
sg78
g3042
sg71
(lp3049
g64
(g85
g66
NtRp3050
(dp3051
g69
(dp3052
g89
g90
ssg78
g3046
sg71
(lp3053
S'environ'
p3054
asbag64
(g85
g66
NtRp3055
(dp3056
g69
(dp3057
g96
g97
ssg78
g3046
sg71
(lp3058
S':'
asbag64
(g85
g66
NtRp3059
(dp3060
g69
(dp3061
sg78
g3046
sg71
(lp3062
g64
(g65
g66
NtRp3063
(dp3064
g69
(dp3065
g77
I4
ssg78
g3059
sg71
(lp3066
g64
(g73
g66
NtRp3067
(dp3068
g69
(dp3069
g77
I3
ssg78
Nsg71
(lp3070
g64
(g80
g66
NtRp3071
(dp3072
g69
(dp3073
sg78
g3067
sg71
(lp3074
g64
(g85
g66
NtRp3075
(dp3076
g69
(dp3077
g89
g90
ssg78
g3071
sg71
(lp3078
S'HTTP_ACCEPT'
p3079
asbag64
(g85
g66
NtRp3080
(dp3081
g69
(dp3082
g96
g97
ssg78
g3071
sg71
(lp3083
S':'
asbag64
(g85
g66
NtRp3084
(dp3085
g69
(dp3086
sg78
g3071
sg71
(lp3087
g64
(g65
g66
NtRp3088
(dp3089
g69
(dp3090
g77
I3
ssg78
g3084
sg71
(lp3091
g1408
asbasbasbag64
(g80
g66
NtRp3092
(dp3093
g69
(dp3094
sg78
g3067
sg71
(lp3095
g64
(g85
g66
NtRp3096
(dp3097
g69
(dp3098
g89
g90
ssg78
g3092
sg71
(lp3099
S'HTTP_ACCEPT_ENCODING'
p3100
asbag64
(g85
g66
NtRp3101
(dp3102
g69
(dp3103
g96
g97
ssg78
g3092
sg71
(lp3104
S':'
asbag64
(g85
g66
NtRp3105
(dp3106
g69
(dp3107
sg78
g3092
sg71
(lp3108
g64
(g65
g66
NtRp3109
(dp3110
g69
(dp3111
g77
I3
ssg78
g3105
sg71
(lp3112
g1430
asbasbasbag64
(g80
g66
NtRp3113
(dp3114
g69
(dp3115
sg78
g3067
sg71
(lp3116
g64
(g85
g66
NtRp3117
(dp3118
g69
(dp3119
g89
g90
ssg78
g3113
sg71
(lp3120
S'HTTP_ACCEPT_LANGUAGE'
p3121
asbag64
(g85
g66
NtRp3122
(dp3123
g69
(dp3124
g96
g97
ssg78
g3113
sg71
(lp3125
S':'
asbag64
(g85
g66
NtRp3126
(dp3127
g69
(dp3128
sg78
g3113
sg71
(lp3129
g64
(g65
g66
NtRp3130
(dp3131
g69
(dp3132
g77
I3
ssg78
g3126
sg71
(lp3133
g1452
asbasbasbag64
(g80
g66
NtRp3134
(dp3135
g69
(dp3136
sg78
g3067
sg71
(lp3137
g64
(g85
g66
NtRp3138
(dp3139
g69
(dp3140
g89
g90
ssg78
g3134
sg71
(lp3141
S'HTTP_CONNECTION'
p3142
asbag64
(g85
g66
NtRp3143
(dp3144
g69
(dp3145
g96
g97
ssg78
g3134
sg71
(lp3146
S':'
asbag64
(g85
g66
NtRp3147
(dp3148
g69
(dp3149
sg78
g3134
sg71
(lp3150
g64
(g65
g66
NtRp3151
(dp3152
g69
(dp3153
g77
I3
ssg78
g3147
sg71
(lp3154
g1474
asbasbasbag64
(g80
g66
NtRp3155
(dp3156
g69
(dp3157
sg78
g3067
sg71
(lp3158
g64
(g85
g66
NtRp3159
(dp3160
g69
(dp3161
g89
g90
ssg78
g3155
sg71
(lp3162
S'HTTP_COOKIE'
p3163
asbag64
(g85
g66
NtRp3164
(dp3165
g69
(dp3166
g96
g97
ssg78
g3155
sg71
(lp3167
S':'
asbag64
(g85
g66
NtRp3168
(dp3169
g69
(dp3170
sg78
g3155
sg71
(lp3171
g64
(g65
g66
NtRp3172
(dp3173
g69
(dp3174
g77
I3
ssg78
g3168
sg71
(lp3175
g1496
asbasbasbag64
(g80
g66
NtRp3176
(dp3177
g69
(dp3178
sg78
g3067
sg71
(lp3179
g64
(g85
g66
NtRp3180
(dp3181
g69
(dp3182
g89
g90
ssg78
g3176
sg71
(lp3183
S'HTTP_HOST'
p3184
asbag64
(g85
g66
NtRp3185
(dp3186
g69
(dp3187
g96
g97
ssg78
g3176
sg71
(lp3188
S':'
asbag64
(g85
g66
NtRp3189
(dp3190
g69
(dp3191
sg78
g3176
sg71
(lp3192
g64
(g65
g66
NtRp3193
(dp3194
g69
(dp3195
g77
I3
ssg78
g3189
sg71
(lp3196
g1518
asbasbasbag64
(g80
g66
NtRp3197
(dp3198
g69
(dp3199
sg78
g3067
sg71
(lp3200
g64
(g85
g66
NtRp3201
(dp3202
g69
(dp3203
g89
g90
ssg78
g3197
sg71
(lp3204
S'HTTP_REFERER'
p3205
asbag64
(g85
g66
NtRp3206
(dp3207
g69
(dp3208
g96
g97
ssg78
g3197
sg71
(lp3209
S':'
asbag64
(g85
g66
NtRp3210
(dp3211
g69
(dp3212
sg78
g3197
sg71
(lp3213
g64
(g65
g66
NtRp3214
(dp3215
g69
(dp3216
g77
I3
ssg78
g3210
sg71
(lp3217
g1540
asbasbasbag64
(g80
g66
NtRp3218
(dp3219
g69
(dp3220
sg78
g3067
sg71
(lp3221
g64
(g85
g66
NtRp3222
(dp3223
g69
(dp3224
g89
g90
ssg78
g3218
sg71
(lp3225
S'HTTP_USER_AGENT'
p3226
asbag64
(g85
g66
NtRp3227
(dp3228
g69
(dp3229
g96
g97
ssg78
g3218
sg71
(lp3230
S':'
asbag64
(g85
g66
NtRp3231
(dp3232
g69
(dp3233
sg78
g3218
sg71
(lp3234
g64
(g65
g66
NtRp3235
(dp3236
g69
(dp3237
g77
I3
ssg78
g3231
sg71
(lp3238
g1562
asbasbasbag64
(g80
g66
NtRp3239
(dp3240
g69
(dp3241
sg78
g3067
sg71
(lp3242
g64
(g85
g66
NtRp3243
(dp3244
g69
(dp3245
g89
g90
ssg78
g3239
sg71
(lp3246
S'HTTP_X_REQUESTED_WITH'
p3247
asbag64
(g85
g66
NtRp3248
(dp3249
g69
(dp3250
g96
g97
ssg78
g3239
sg71
(lp3251
S':'
asbag64
(g85
g66
NtRp3252
(dp3253
g69
(dp3254
sg78
g3239
sg71
(lp3255
g64
(g65
g66
NtRp3256
(dp3257
g69
(dp3258
g77
I3
ssg78
g3252
sg71
(lp3259
g1584
asbasbasbag64
(g80
g66
NtRp3260
(dp3261
g69
(dp3262
sg78
g3067
sg71
(lp3263
g64
(g85
g66
NtRp3264
(dp3265
g69
(dp3266
g89
g90
ssg78
g3260
sg71
(lp3267
S'PATH_INFO'
p3268
asbag64
(g85
g66
NtRp3269
(dp3270
g69
(dp3271
g96
g97
ssg78
g3260
sg71
(lp3272
S':'
asbag64
(g85
g66
NtRp3273
(dp3274
g69
(dp3275
sg78
g3260
sg71
(lp3276
g64
(g65
g66
NtRp3277
(dp3278
g69
(dp3279
g77
I3
ssg78
g3273
sg71
(lp3280
g1738
asbasbasbag64
(g80
g66
NtRp3281
(dp3282
g69
(dp3283
sg78
g3067
sg71
(lp3284
g64
(g85
g66
NtRp3285
(dp3286
g69
(dp3287
g89
g90
ssg78
g3281
sg71
(lp3288
S'QUERY_STRING'
p3289
asbag64
(g85
g66
NtRp3290
(dp3291
g69
(dp3292
g96
g97
ssg78
g3281
sg71
(lp3293
S':'
asbag64
(g85
g66
NtRp3294
(dp3295
g69
(dp3296
sg78
g3281
sg71
(lp3297
g64
(g65
g66
NtRp3298
(dp3299
g69
(dp3300
g77
I3
ssg78
g3294
sg71
(lp3301
g1760
asbasbasbag64
(g80
g66
NtRp3302
(dp3303
g69
(dp3304
sg78
g3067
sg71
(lp3305
g64
(g85
g66
NtRp3306
(dp3307
g69
(dp3308
g89
g90
ssg78
g3302
sg71
(lp3309
S'REMOTE_ADDR'
p3310
asbag64
(g85
g66
NtRp3311
(dp3312
g69
(dp3313
g96
g97
ssg78
g3302
sg71
(lp3314
S':'
asbag64
(g85
g66
NtRp3315
(dp3316
g69
(dp3317
sg78
g3302
sg71
(lp3318
g64
(g65
g66
NtRp3319
(dp3320
g69
(dp3321
g77
I3
ssg78
g3315
sg71
(lp3322
g219
asbasbasbag64
(g80
g66
NtRp3323
(dp3324
g69
(dp3325
sg78
g3067
sg71
(lp3326
g64
(g85
g66
NtRp3327
(dp3328
g69
(dp3329
g89
g90
ssg78
g3323
sg71
(lp3330
S'REMOTE_PORT'
p3331
asbag64
(g85
g66
NtRp3332
(dp3333
g69
(dp3334
g96
g97
ssg78
g3323
sg71
(lp3335
S':'
asbag64
(g85
g66
NtRp3336
(dp3337
g69
(dp3338
sg78
g3323
sg71
(lp3339
g64
(g65
g66
NtRp3340
(dp3341
g69
(dp3342
g77
I3
ssg78
g3336
sg71
(lp3343
g1803
asbasbasbag64
(g80
g66
NtRp3344
(dp3345
g69
(dp3346
sg78
g3067
sg71
(lp3347
g64
(g85
g66
NtRp3348
(dp3349
g69
(dp3350
g89
g90
ssg78
g3344
sg71
(lp3351
S'REQUEST_METHOD'
p3352
asbag64
(g85
g66
NtRp3353
(dp3354
g69
(dp3355
g96
g97
ssg78
g3344
sg71
(lp3356
S':'
asbag64
(g85
g66
NtRp3357
(dp3358
g69
(dp3359
sg78
g3344
sg71
(lp3360
g64
(g65
g66
NtRp3361
(dp3362
g69
(dp3363
g77
I3
ssg78
g3357
sg71
(lp3364
g1825
asbasbasbag64
(g80
g66
NtRp3365
(dp3366
g69
(dp3367
sg78
g3067
sg71
(lp3368
g64
(g85
g66
NtRp3369
(dp3370
g69
(dp3371
g89
g90
ssg78
g3365
sg71
(lp3372
S'REQUEST_URI'
p3373
asbag64
(g85
g66
NtRp3374
(dp3375
g69
(dp3376
g96
g97
ssg78
g3365
sg71
(lp3377
S':'
asbag64
(g85
g66
NtRp3378
(dp3379
g69
(dp3380
sg78
g3365
sg71
(lp3381
g64
(g65
g66
NtRp3382
(dp3383
g69
(dp3384
g77
I3
ssg78
g3378
sg71
(lp3385
g1847
asbasbasbag64
(g80
g66
NtRp3386
(dp3387
g69
(dp3388
sg78
g3067
sg71
(lp3389
g64
(g85
g66
NtRp3390
(dp3391
g69
(dp3392
g89
g90
ssg78
g3386
sg71
(lp3393
S'SCRIPT_NAME'
p3394
asbag64
(g85
g66
NtRp3395
(dp3396
g69
(dp3397
g96
g97
ssg78
g3386
sg71
(lp3398
S':'
asbag64
(g85
g66
NtRp3399
(dp3400
g69
(dp3401
sg78
g3386
sg71
(lp3402
g64
(g65
g66
NtRp3403
(dp3404
g69
(dp3405
g77
I3
ssg78
g3399
sg71
(lp3406
S''
asbasbasbag64
(g80
g66
NtRp3407
(dp3408
g69
(dp3409
sg78
g3067
sg71
(lp3410
g64
(g85
g66
NtRp3411
(dp3412
g69
(dp3413
g89
g90
ssg78
g3407
sg71
(lp3414
S'SERVER_NAME'
p3415
asbag64
(g85
g66
NtRp3416
(dp3417
g69
(dp3418
g96
g97
ssg78
g3407
sg71
(lp3419
S':'
asbag64
(g85
g66
NtRp3420
(dp3421
g69
(dp3422
sg78
g3407
sg71
(lp3423
g64
(g65
g66
NtRp3424
(dp3425
g69
(dp3426
g77
I3
ssg78
g3420
sg71
(lp3427
g1703
asbasbasbag64
(g80
g66
NtRp3428
(dp3429
g69
(dp3430
sg78
g3067
sg71
(lp3431
g64
(g85
g66
NtRp3432
(dp3433
g69
(dp3434
g89
g90
ssg78
g3428
sg71
(lp3435
S'SERVER_PORT'
p3436
asbag64
(g85
g66
NtRp3437
(dp3438
g69
(dp3439
g96
g97
ssg78
g3428
sg71
(lp3440
S':'
asbag64
(g85
g66
NtRp3441
(dp3442
g69
(dp3443
sg78
g3428
sg71
(lp3444
g64
(g65
g66
NtRp3445
(dp3446
g69
(dp3447
g77
I3
ssg78
g3441
sg71
(lp3448
g1911
asbasbasbag64
(g80
g66
NtRp3449
(dp3450
g69
(dp3451
sg78
g3067
sg71
(lp3452
g64
(g85
g66
NtRp3453
(dp3454
g69
(dp3455
g89
g90
ssg78
g3449
sg71
(lp3456
S'SERVER_PROTOCOL'
p3457
asbag64
(g85
g66
NtRp3458
(dp3459
g69
(dp3460
g96
g97
ssg78
g3449
sg71
(lp3461
S':'
asbag64
(g85
g66
NtRp3462
(dp3463
g69
(dp3464
sg78
g3449
sg71
(lp3465
g64
(g65
g66
NtRp3466
(dp3467
g69
(dp3468
g77
I3
ssg78
g3462
sg71
(lp3469
g1933
asbasbasbag64
(g80
g66
NtRp3470
(dp3471
g69
(dp3472
sg78
g3067
sg71
(lp3473
g64
(g85
g66
NtRp3474
(dp3475
g69
(dp3476
g89
g90
ssg78
g3470
sg71
(lp3477
S'SERVER_SOFTWARE'
p3478
asbag64
(g85
g66
NtRp3479
(dp3480
g69
(dp3481
g96
g97
ssg78
g3470
sg71
(lp3482
S':'
asbag64
(g85
g66
NtRp3483
(dp3484
g69
(dp3485
sg78
g3470
sg71
(lp3486
g64
(g65
g66
NtRp3487
(dp3488
g69
(dp3489
g77
I3
ssg78
g3483
sg71
(lp3490
g1955
asbasbasbag64
(g80
g66
NtRp3491
(dp3492
g69
(dp3493
sg78
g3067
sg71
(lp3494
g64
(g85
g66
NtRp3495
(dp3496
g69
(dp3497
g89
g90
ssg78
g3491
sg71
(lp3498
S'wsgi.errors'
p3499
asbag64
(g85
g66
NtRp3500
(dp3501
g69
(dp3502
g96
g97
ssg78
g3491
sg71
(lp3503
S':'
asbag64
(g85
g66
NtRp3504
(dp3505
g69
(dp3506
sg78
g3491
sg71
(lp3507
g64
(g65
g66
NtRp3508
(dp3509
g69
(dp3510
g77
I3
ssg78
g3504
sg71
(lp3511
S"<open file '<stderr>', mode 'w' at 0x10628b270>"
p3512
asbasbasbag64
(g80
g66
NtRp3513
(dp3514
g69
(dp3515
sg78
g3067
sg71
(lp3516
g64
(g85
g66
NtRp3517
(dp3518
g69
(dp3519
g89
g90
ssg78
g3513
sg71
(lp3520
S'wsgi.file_wrapper'
p3521
asbag64
(g85
g66
NtRp3522
(dp3523
g69
(dp3524
g96
g97
ssg78
g3513
sg71
(lp3525
S':'
asbag64
(g85
g66
NtRp3526
(dp3527
g69
(dp3528
sg78
g3513
sg71
(lp3529
g64
(g65
g66
NtRp3530
(dp3531
g69
(dp3532
g77
I3
ssg78
g3526
sg71
(lp3533
S'<class wsgiref.util.FileWrapper at 0x106ffd9a8>'
p3534
asbasbasbag64
(g80
g66
NtRp3535
(dp3536
g69
(dp3537
sg78
g3067
sg71
(lp3538
g64
(g85
g66
NtRp3539
(dp3540
g69
(dp3541
g89
g90
ssg78
g3535
sg71
(lp3542
S'wsgi.input'
p3543
asbag64
(g85
g66
NtRp3544
(dp3545
g69
(dp3546
g96
g97
ssg78
g3535
sg71
(lp3547
S':'
asbag64
(g85
g66
NtRp3548
(dp3549
g69
(dp3550
sg78
g3535
sg71
(lp3551
g64
(g65
g66
NtRp3552
(dp3553
g69
(dp3554
g77
I3
ssg78
g3548
sg71
(lp3555
S'<cStringIO.StringO object at 0x10b7c10a0>'
p3556
asbasbasbag64
(g80
g66
NtRp3557
(dp3558
g69
(dp3559
sg78
g3067
sg71
(lp3560
g64
(g85
g66
NtRp3561
(dp3562
g69
(dp3563
g89
g90
ssg78
g3557
sg71
(lp3564
S'wsgi.multiprocess'
p3565
asbag64
(g85
g66
NtRp3566
(dp3567
g69
(dp3568
g96
g97
ssg78
g3557
sg71
(lp3569
S':'
asbag64
(g85
g66
NtRp3570
(dp3571
g69
(dp3572
sg78
g3557
sg71
(lp3573
g64
(g65
g66
NtRp3574
(dp3575
g69
(dp3576
g77
I3
ssg78
g3570
sg71
(lp3577
g1364
asbasbasbag64
(g80
g66
NtRp3578
(dp3579
g69
(dp3580
sg78
g3067
sg71
(lp3581
g64
(g85
g66
NtRp3582
(dp3583
g69
(dp3584
g89
g90
ssg78
g3578
sg71
(lp3585
S'wsgi.multithread'
p3586
asbag64
(g85
g66
NtRp3587
(dp3588
g69
(dp3589
g96
g97
ssg78
g3578
sg71
(lp3590
S':'
asbag64
(g85
g66
NtRp3591
(dp3592
g69
(dp3593
sg78
g3578
sg71
(lp3594
g64
(g65
g66
NtRp3595
(dp3596
g69
(dp3597
g77
I3
ssg78
g3591
sg71
(lp3598
g107
asbasbasbag64
(g80
g66
NtRp3599
(dp3600
g69
(dp3601
sg78
g3067
sg71
(lp3602
g64
(g85
g66
NtRp3603
(dp3604
g69
(dp3605
g89
g90
ssg78
g3599
sg71
(lp3606
S'wsgi.run_once'
p3607
asbag64
(g85
g66
NtRp3608
(dp3609
g69
(dp3610
g96
g97
ssg78
g3599
sg71
(lp3611
S':'
asbag64
(g85
g66
NtRp3612
(dp3613
g69
(dp3614
sg78
g3599
sg71
(lp3615
g64
(g65
g66
NtRp3616
(dp3617
g69
(dp3618
g77
I3
ssg78
g3612
sg71
(lp3619
g1364
asbasbasbag64
(g80
g66
NtRp3620
(dp3621
g69
(dp3622
sg78
g3067
sg71
(lp3623
g64
(g85
g66
NtRp3624
(dp3625
g69
(dp3626
g89
g90
ssg78
g3620
sg71
(lp3627
S'wsgi.url_scheme'
p3628
asbag64
(g85
g66
NtRp3629
(dp3630
g69
(dp3631
g96
g97
ssg78
g3620
sg71
(lp3632
S':'
asbag64
(g85
g66
NtRp3633
(dp3634
g69
(dp3635
sg78
g3620
sg71
(lp3636
g64
(g65
g66
NtRp3637
(dp3638
g69
(dp3639
g77
I3
ssg78
g3633
sg71
(lp3640
g2214
asbasbasbag64
(g80
g66
NtRp3641
(dp3642
g69
(dp3643
sg78
g3067
sg71
(lp3644
g64
(g85
g66
NtRp3645
(dp3646
g69
(dp3647
g89
g90
ssg78
g3641
sg71
(lp3648
S'wsgi.version'
p3649
asbag64
(g85
g66
NtRp3650
(dp3651
g69
(dp3652
g96
g97
ssg78
g3641
sg71
(lp3653
S':'
asbag64
(g85
g66
NtRp3654
(dp3655
g69
(dp3656
sg78
g3641
sg71
(lp3657
g64
(g65
g66
NtRp3658
(dp3659
g69
(dp3660
g77
I3
ssg78
g3654
sg71
(lp3661
S'1'
asbasbasbasbasbasbasbasbasbasbasbasbasbsS'frames'
p3662
(lp3663
(dp3664
S'file'
p3665
S'/Users/victorgirotto/Desktop/web2py-master/gluon/restricted.py'
p3666
sS'dump'
p3667
(dp3668
S'environment'
p3669
S"{'A': <class 'gluon.html.A'>, 'Auth': <class 'gluon.tools.Auth'>, 'B': <class 'gluon.html.B'>, 'BEAUTIFY': <class 'gluon.html.BEAUTIFY'>, 'BODY': <class 'gluon.html.BODY'>, 'BR': <class 'gluon.html.BR'>, 'BUTTON': <class 'gluon.html.BUTTON'>, 'CAT': <class 'gluon.html.CAT'>, 'CENTER': <class 'gluon.html.CENTER'>, 'CLEANUP': <class 'gluon.validators.CLEANUP'>, ...}"
p3670
sS'ccode'
p3671
S'<code object <module> at 0x10b8942b0, file "/Use...s/CartesianPlane/controllers/default.py", line 1>'
p3672
ssS'lnum'
p3673
I212
sS'lines'
p3674
(dp3675
I207
S'    try:'
p3676
sI208
S'        if isinstance(code, types.CodeType):'
p3677
sI209
S'            ccode = code'
p3678
sI210
S'        else:'
p3679
sI211
S'            ccode = compile2(code, layer)'
p3680
sI212
S'        exec ccode in environment'
p3681
sI213
S'    except HTTP:'
p3682
sI214
S'        raise'
p3683
sI215
S'    except RestrictedError:'
p3684
sI216
S'        # do not encapsulate (obfuscate) the original RestrictedError'
p3685
ssS'call'
p3686
S"(code='import os\\nimport socket\\nfrom xmlrpclib import Se...ata\\nresponse._vars=response._caller(loadOptions)\\n', environment={'A': <class 'gluon.html.A'>, 'Auth': <class 'gluon.tools.Auth'>, 'B': <class 'gluon.html.B'>, 'BEAUTIFY': <class 'gluon.html.BEAUTIFY'>, 'BODY': <class 'gluon.html.BODY'>, 'BR': <class 'gluon.html.BR'>, 'BUTTON': <class 'gluon.html.BUTTON'>, 'CAT': <class 'gluon.html.CAT'>, 'CENTER': <class 'gluon.html.CENTER'>, 'CLEANUP': <class 'gluon.validators.CLEANUP'>, ...}, layer='/Users/victorgirotto/Desktop/web2py-master/applications/CartesianPlane/controllers/default.py')"
p3687
sS'func'
p3688
S'restricted'
p3689
sa(dp3690
g3665
S'/Users/victorgirotto/Desktop/web2py-master/applications/CartesianPlane/controllers/default.py'
p3691
sg3667
(dp3692
sg3673
I64
sg3674
(dp3693
I54
S'@service.xmlrpc'
p3694
sI55
S'def executeEvent(data):'
p3695
sI56
S"    db.menuOptions2.update_or_insert(db.menuOptions2.name=='test', name='test', value=data)"
p3696
sI57
S"    websocket_send('http://' + __current_ip + ':' + __socket_port, data, 'mykey', __socket_group_name)"
p3697
sI58
S'    return data'
p3698
sI59
S''
sI60
S'@service.xmlrpc'
p3699
sI61
S'def executeSteps(data):'
p3700
sI62
S"    websocket_send('http://' + __current_ip + ':' + __socket_port, data, 'mykey', __socket_group_name)"
p3701
sI63
S'    return data'
p3702
ssg3686
S'()'
p3703
sg3688
S'<module>'
p3704
sa(dp3705
g3665
S'/Users/victorgirotto/Desktop/web2py-master/gluon/globals.py'
p3706
sg3667
(dp3707
S'self'
p3708
S'undefined'
p3709
sS'f'
S'<function loadOptions>'
p3710
ssg3673
I190
sg3674
(dp3711
I192
S'        self._custom_commit = None'
p3712
sI193
S'        self._custom_rollback = None'
p3713
sI194
S''
sI185
S'        self.menu = []             # used by the default view layout'
p3714
sI186
S'        self.files = []            # used by web2py_ajax.html'
p3715
sI187
S'        self.generic_patterns = []  # patterns to allow generic views'
p3716
sI188
S"        self.delimiters = ('{{', '}}')"
p3717
sI189
S'        self._vars = None'
p3718
sI190
S'        self._caller = lambda f: f()'
p3719
sI191
S'        self._view_environment = None'
p3720
ssg3686
S'(f=<function loadOptions>)'
p3721
sg3688
S'<lambda>'
p3722
sa(dp3723
g3665
S'/Users/victorgirotto/Desktop/web2py-master/applications/CartesianPlane/controllers/default.py'
p3724
sg3667
(dp3725
S'server.loadOptions'
p3726
S'<_Method instance>'
p3727
sS'global request'
p3728
S"<Storage {'function': 'loadOptions', 'body': <cS...ons/CartesianPlane/', 'post_vars': <Storage {}>}>"
p3729
sS'global server'
p3730
S'<ServerProxy for 127.0.0.1:8000/GeogebraInterface/default/call/xmlrpc>'
p3731
sS'global response'
p3732
S"<Storage {'body': <cStringIO.StringO object at 0...x10eef6cf8>, 'view': 'default/loadOptions.html'}>"
p3733
sS'response.json'
p3734
S"<bound method Response.json of <Storage {'body':...10eef6cf8>, 'view': 'default/loadOptions.html'}>>"
p3735
sS'request.vars'
p3736
S"<Storage {'trigger': 'robot'}>"
p3737
ssg3673
I31
sg3674
(dp3738
I32
S'    ##return(response.json(request.vars))'
p3739
sI33
S''
sI34
S'    ##'
p3740
sI35
S'    ##return server.loadOptions(request.vars)'
p3741
sI26
S'def applet():'
p3742
sI27
S'    return dict(applet=XML(open(filename).read()), ip=__current_ip, port=__socket_port, group_name=__socket_group_name)'
p3743
sI28
S''
sI29
S''
sI30
S'def loadOptions():'
p3744
sI31
S'    return server.loadOptions(response.json(request.vars))'
p3745
ssg3686
S'()'
p3746
sg3688
S'loadOptions'
p3747
sa(dp3748
g3665
S'/System/Library/Frameworks/Python.framework/Versions/2.7/lib/python2.7/xmlrpclib.py'
p3749
sg3667
(dp3750
sg3673
I1224
sg3674
(dp3751
sg3686
S'(self=<_Method instance>, *args=(\'{"trigger": "robot"}\',))'
p3752
sg3688
S'__call__'
p3753
sa(dp3754
g3665
S'/System/Library/Frameworks/Python.framework/Versions/2.7/lib/python2.7/xmlrpclib.py'
p3755
sg3667
(dp3756
sg3673
I1575
sg3674
(dp3757
sg3686
S'(self=<ServerProxy for 127.0.0.1:8000/GeogebraInterface/default/call/xmlrpc>, methodname=\'loadOptions\', params=(\'{"trigger": "robot"}\',))'
p3758
sg3688
S'__request'
p3759
sa(dp3760
g3665
S'/System/Library/Frameworks/Python.framework/Versions/2.7/lib/python2.7/xmlrpclib.py'
p3761
sg3667
(dp3762
sg3673
I1264
sg3674
(dp3763
sg3686
S'(self=<xmlrpclib.Transport instance>, host=\'127.0.0.1:8000\', handler=\'/GeogebraInterface/default/call/xmlrpc\', request_body="<?xml version=\'1.0\'?>\\n<methodCall>\\n<methodName>l...string></value>\\n</param>\\n</params>\\n</methodCall>\\n", verbose=0)'
p3764
sg3688
g63
sa(dp3765
g3665
S'/System/Library/Frameworks/Python.framework/Versions/2.7/lib/python2.7/xmlrpclib.py'
p3766
sg3667
(dp3767
sg3673
I1297
sg3674
(dp3768
sg3686
S'(self=<xmlrpclib.Transport instance>, host=\'127.0.0.1:8000\', handler=\'/GeogebraInterface/default/call/xmlrpc\', request_body="<?xml version=\'1.0\'?>\\n<methodCall>\\n<methodName>l...string></value>\\n</param>\\n</params>\\n</methodCall>\\n", verbose=0)'
p3769
sg3688
S'single_request'
p3770
sa(dp3771
g3665
S'/System/Library/Frameworks/Python.framework/Versions/2.7/lib/python2.7/xmlrpclib.py'
p3772
sg3667
(dp3773
sg3673
I1473
sg3674
(dp3774
sg3686
S'(self=<xmlrpclib.Transport instance>, response=<httplib.HTTPResponse instance>)'
p3775
sg3688
S'parse_response'
p3776
sa(dp3777
g3665
S'/System/Library/Frameworks/Python.framework/Versions/2.7/lib/python2.7/xmlrpclib.py'
p3778
sg3667
(dp3779
sg3673
I793
sg3674
(dp3780
sg3686
S'(self=<xmlrpclib.Unmarshaller instance>)'
p3781
sg3688
S'close'
p3782
sasS'pyver'
p3783
S'Python 2.7.2: /usr/bin/python'
p3784
sS'session'
p3785
g64
(g65
g66
NtRp3786
(dp3787
g69
(dp3788
sg71
(lp3789
g64
(g73
g66
NtRp3790
(dp3791
g69
(dp3792
g77
I5
ssg78
Nsg71
(lp3793
sbasbsS'etype'
p3794
S"<class 'xmlrpclib.Fault'>"
p3795
sS'date'
p3796
S'Thu Jan 24 17:10:55 2013'
p3797
sS'response'
p3798
g64
(g65
g66
NtRp3799
(dp3800
g69
(dp3801
sg71
(lp3802
g64
(g73
g66
NtRp3803
(dp3804
g69
(dp3805
g77
I5
ssg78
Nsg71
(lp3806
g64
(g80
g66
NtRp3807
(dp3808
g69
(dp3809
sg78
g3803
sg71
(lp3810
g64
(g85
g66
NtRp3811
(dp3812
g69
(dp3813
g89
g90
ssg78
g3807
sg71
(lp3814
g162
asbag64
(g85
g66
NtRp3815
(dp3816
g69
(dp3817
g96
g97
ssg78
g3807
sg71
(lp3818
S':'
asbag64
(g85
g66
NtRp3819
(dp3820
g69
(dp3821
sg78
g3807
sg71
(lp3822
g64
(g65
g66
NtRp3823
(dp3824
g69
(dp3825
g77
I5
ssg78
g3819
sg71
(lp3826
S'<cStringIO.StringO object at 0x10b7c17d8>'
p3827
asbasbasbag64
(g80
g66
NtRp3828
(dp3829
g69
(dp3830
sg78
g3803
sg71
(lp3831
g64
(g85
g66
NtRp3832
(dp3833
g69
(dp3834
g89
g90
ssg78
g3828
sg71
(lp3835
g250
asbag64
(g85
g66
NtRp3836
(dp3837
g69
(dp3838
g96
g97
ssg78
g3828
sg71
(lp3839
S':'
asbag64
(g85
g66
NtRp3840
(dp3841
g69
(dp3842
sg78
g3828
sg71
(lp3843
g64
(g65
g66
NtRp3844
(dp3845
g69
(dp3846
g77
I5
ssg78
g3840
sg71
(lp3847
g64
(g73
g66
NtRp3848
(dp3849
g69
(dp3850
g77
I4
ssg78
Nsg71
(lp3851
g64
(g80
g66
NtRp3852
(dp3853
g69
(dp3854
sg78
g3848
sg71
(lp3855
g64
(g85
g66
NtRp3856
(dp3857
g69
(dp3858
g89
g90
ssg78
g3852
sg71
(lp3859
S'session_id_cartesianplane'
p3860
asbag64
(g85
g66
NtRp3861
(dp3862
g69
(dp3863
g96
g97
ssg78
g3852
sg71
(lp3864
S':'
asbag64
(g85
g66
NtRp3865
(dp3866
g69
(dp3867
sg78
g3852
sg71
(lp3868
g64
(g65
g66
NtRp3869
(dp3870
g69
(dp3871
g77
I4
ssg78
g3865
sg71
(lp3872
S'127.0.0.1-21dcaef2-13a6-4878-8ca0-e163fb3cee1f'
p3873
ag64
(g73
g66
NtRp3874
(dp3875
g69
(dp3876
g77
I3
ssg78
Nsg71
(lp3877
g64
(g80
g66
NtRp3878
(dp3879
g69
(dp3880
sg78
g3874
sg71
(lp3881
g64
(g85
g66
NtRp3882
(dp3883
g69
(dp3884
g89
g90
ssg78
g3878
sg71
(lp3885
g301
asbag64
(g85
g66
NtRp3886
(dp3887
g69
(dp3888
g96
g97
ssg78
g3878
sg71
(lp3889
S':'
asbag64
(g85
g66
NtRp3890
(dp3891
g69
(dp3892
sg78
g3878
sg71
(lp3893
g64
(g65
g66
NtRp3894
(dp3895
g69
(dp3896
g77
I3
ssg78
g3890
sg71
(lp3897
S''
asbasbasbag64
(g80
g66
NtRp3898
(dp3899
g69
(dp3900
sg78
g3874
sg71
(lp3901
g64
(g85
g66
NtRp3902
(dp3903
g69
(dp3904
g89
g90
ssg78
g3898
sg71
(lp3905
g322
asbag64
(g85
g66
NtRp3906
(dp3907
g69
(dp3908
g96
g97
ssg78
g3898
sg71
(lp3909
S':'
asbag64
(g85
g66
NtRp3910
(dp3911
g69
(dp3912
sg78
g3898
sg71
(lp3913
g64
(g65
g66
NtRp3914
(dp3915
g69
(dp3916
g77
I3
ssg78
g3910
sg71
(lp3917
S''
asbasbasbag64
(g80
g66
NtRp3918
(dp3919
g69
(dp3920
sg78
g3874
sg71
(lp3921
g64
(g85
g66
NtRp3922
(dp3923
g69
(dp3924
g89
g90
ssg78
g3918
sg71
(lp3925
g343
asbag64
(g85
g66
NtRp3926
(dp3927
g69
(dp3928
g96
g97
ssg78
g3918
sg71
(lp3929
S':'
asbag64
(g85
g66
NtRp3930
(dp3931
g69
(dp3932
sg78
g3918
sg71
(lp3933
g64
(g65
g66
NtRp3934
(dp3935
g69
(dp3936
g77
I3
ssg78
g3930
sg71
(lp3937
S''
asbasbasbag64
(g80
g66
NtRp3938
(dp3939
g69
(dp3940
sg78
g3874
sg71
(lp3941
g64
(g85
g66
NtRp3942
(dp3943
g69
(dp3944
g89
g90
ssg78
g3938
sg71
(lp3945
g364
asbag64
(g85
g66
NtRp3946
(dp3947
g69
(dp3948
g96
g97
ssg78
g3938
sg71
(lp3949
S':'
asbag64
(g85
g66
NtRp3950
(dp3951
g69
(dp3952
sg78
g3938
sg71
(lp3953
g64
(g65
g66
NtRp3954
(dp3955
g69
(dp3956
g77
I3
ssg78
g3950
sg71
(lp3957
S''
asbasbasbag64
(g80
g66
NtRp3958
(dp3959
g69
(dp3960
sg78
g3874
sg71
(lp3961
g64
(g85
g66
NtRp3962
(dp3963
g69
(dp3964
g89
g90
ssg78
g3958
sg71
(lp3965
g385
asbag64
(g85
g66
NtRp3966
(dp3967
g69
(dp3968
g96
g97
ssg78
g3958
sg71
(lp3969
S':'
asbag64
(g85
g66
NtRp3970
(dp3971
g69
(dp3972
sg78
g3958
sg71
(lp3973
g64
(g65
g66
NtRp3974
(dp3975
g69
(dp3976
g77
I3
ssg78
g3970
sg71
(lp3977
S''
asbasbasbag64
(g80
g66
NtRp3978
(dp3979
g69
(dp3980
sg78
g3874
sg71
(lp3981
g64
(g85
g66
NtRp3982
(dp3983
g69
(dp3984
g89
g90
ssg78
g3978
sg71
(lp3985
g406
asbag64
(g85
g66
NtRp3986
(dp3987
g69
(dp3988
g96
g97
ssg78
g3978
sg71
(lp3989
S':'
asbag64
(g85
g66
NtRp3990
(dp3991
g69
(dp3992
sg78
g3978
sg71
(lp3993
g64
(g65
g66
NtRp3994
(dp3995
g69
(dp3996
g77
I3
ssg78
g3990
sg71
(lp3997
S'/'
asbasbasbag64
(g80
g66
NtRp3998
(dp3999
g69
(dp4000
sg78
g3874
sg71
(lp4001
g64
(g85
g66
NtRp4002
(dp4003
g69
(dp4004
g89
g90
ssg78
g3998
sg71
(lp4005
g427
asbag64
(g85
g66
NtRp4006
(dp4007
g69
(dp4008
g96
g97
ssg78
g3998
sg71
(lp4009
S':'
asbag64
(g85
g66
NtRp4010
(dp4011
g69
(dp4012
sg78
g3998
sg71
(lp4013
g64
(g65
g66
NtRp4014
(dp4015
g69
(dp4016
g77
I3
ssg78
g4010
sg71
(lp4017
S''
asbasbasbag64
(g80
g66
NtRp4018
(dp4019
g69
(dp4020
sg78
g3874
sg71
(lp4021
g64
(g85
g66
NtRp4022
(dp4023
g69
(dp4024
g89
g90
ssg78
g4018
sg71
(lp4025
g448
asbag64
(g85
g66
NtRp4026
(dp4027
g69
(dp4028
g96
g97
ssg78
g4018
sg71
(lp4029
S':'
asbag64
(g85
g66
NtRp4030
(dp4031
g69
(dp4032
sg78
g4018
sg71
(lp4033
g64
(g65
g66
NtRp4034
(dp4035
g69
(dp4036
g77
I3
ssg78
g4030
sg71
(lp4037
S''
asbasbasbasbasbasbasbasbasbasbasbag64
(g80
g66
NtRp4038
(dp4039
g69
(dp4040
sg78
g3803
sg71
(lp4041
g64
(g85
g66
NtRp4042
(dp4043
g69
(dp4044
g89
g90
ssg78
g4038
sg71
(lp4045
S'delimiters'
p4046
asbag64
(g85
g66
NtRp4047
(dp4048
g69
(dp4049
g96
g97
ssg78
g4038
sg71
(lp4050
S':'
asbag64
(g85
g66
NtRp4051
(dp4052
g69
(dp4053
sg78
g4038
sg71
(lp4054
g64
(g65
g66
NtRp4055
(dp4056
g69
(dp4057
g77
I5
ssg78
g4051
sg71
(lp4058
g64
(g73
g66
NtRp4059
(dp4060
g69
(dp4061
g77
I4
ssg78
Nsg71
(lp4062
g64
(g80
g66
NtRp4063
(dp4064
g69
(dp4065
sg78
g4059
sg71
(lp4066
g64
(g85
g66
NtRp4067
(dp4068
g69
(dp4069
sg78
g4063
sg71
(lp4070
g64
(g65
g66
NtRp4071
(dp4072
g69
(dp4073
g77
I4
ssg78
g4067
sg71
(lp4074
S'{{'
p4075
asbasbasbag64
(g80
g66
NtRp4076
(dp4077
g69
(dp4078
sg78
g4059
sg71
(lp4079
g64
(g85
g66
NtRp4080
(dp4081
g69
(dp4082
sg78
g4076
sg71
(lp4083
g64
(g65
g66
NtRp4084
(dp4085
g69
(dp4086
g77
I4
ssg78
g4080
sg71
(lp4087
S'}}'
p4088
asbasbasbasbasbasbasbag64
(g80
g66
NtRp4089
(dp4090
g69
(dp4091
sg78
g3803
sg71
(lp4092
g64
(g85
g66
NtRp4093
(dp4094
g69
(dp4095
g89
g90
ssg78
g4089
sg71
(lp4096
S'files'
p4097
asbag64
(g85
g66
NtRp4098
(dp4099
g69
(dp4100
g96
g97
ssg78
g4089
sg71
(lp4101
S':'
asbag64
(g85
g66
NtRp4102
(dp4103
g69
(dp4104
sg78
g4089
sg71
(lp4105
g64
(g65
g66
NtRp4106
(dp4107
g69
(dp4108
g77
I5
ssg78
g4102
sg71
(lp4109
g64
(g73
g66
NtRp4110
(dp4111
g69
(dp4112
g77
I4
ssg78
Nsg71
(lp4113
sbasbasbasbag64
(g80
g66
NtRp4114
(dp4115
g69
(dp4116
sg78
g3803
sg71
(lp4117
g64
(g85
g66
NtRp4118
(dp4119
g69
(dp4120
g89
g90
ssg78
g4114
sg71
(lp4121
S'flash'
p4122
asbag64
(g85
g66
NtRp4123
(dp4124
g69
(dp4125
g96
g97
ssg78
g4114
sg71
(lp4126
S':'
asbag64
(g85
g66
NtRp4127
(dp4128
g69
(dp4129
sg78
g4114
sg71
(lp4130
g64
(g65
g66
NtRp4131
(dp4132
g69
(dp4133
g77
I5
ssg78
g4127
sg71
(lp4134
S''
asbasbasbag64
(g80
g66
NtRp4135
(dp4136
g69
(dp4137
sg78
g3803
sg71
(lp4138
g64
(g85
g66
NtRp4139
(dp4140
g69
(dp4141
g89
g90
ssg78
g4135
sg71
(lp4142
S'generic_patterns'
p4143
asbag64
(g85
g66
NtRp4144
(dp4145
g69
(dp4146
g96
g97
ssg78
g4135
sg71
(lp4147
S':'
asbag64
(g85
g66
NtRp4148
(dp4149
g69
(dp4150
sg78
g4135
sg71
(lp4151
g64
(g65
g66
NtRp4152
(dp4153
g69
(dp4154
g77
I5
ssg78
g4148
sg71
(lp4155
g64
(g73
g66
NtRp4156
(dp4157
g69
(dp4158
g77
I4
ssg78
Nsg71
(lp4159
g64
(g80
g66
NtRp4160
(dp4161
g69
(dp4162
sg78
g4156
sg71
(lp4163
g64
(g85
g66
NtRp4164
(dp4165
g69
(dp4166
sg78
g4160
sg71
(lp4167
g64
(g65
g66
NtRp4168
(dp4169
g69
(dp4170
g77
I4
ssg78
g4164
sg71
(lp4171
S'*'
asbasbasbasbasbasbasbag64
(g80
g66
NtRp4172
(dp4173
g69
(dp4174
sg78
g3803
sg71
(lp4175
g64
(g85
g66
NtRp4176
(dp4177
g69
(dp4178
g89
g90
ssg78
g4172
sg71
(lp4179
S'google_analytics_id'
p4180
asbag64
(g85
g66
NtRp4181
(dp4182
g69
(dp4183
g96
g97
ssg78
g4172
sg71
(lp4184
S':'
asbag64
(g85
g66
NtRp4185
(dp4186
g69
(dp4187
sg78
g4172
sg71
(lp4188
g64
(g65
g66
NtRp4189
(dp4190
g69
(dp4191
g77
I5
ssg78
g4185
sg71
(lp4192
S'None'
p4193
asbasbasbag64
(g80
g66
NtRp4194
(dp4195
g69
(dp4196
sg78
g3803
sg71
(lp4197
g64
(g85
g66
NtRp4198
(dp4199
g69
(dp4200
g89
g90
ssg78
g4194
sg71
(lp4201
S'headers'
p4202
asbag64
(g85
g66
NtRp4203
(dp4204
g69
(dp4205
g96
g97
ssg78
g4194
sg71
(lp4206
S':'
asbag64
(g85
g66
NtRp4207
(dp4208
g69
(dp4209
sg78
g4194
sg71
(lp4210
g64
(g65
g66
NtRp4211
(dp4212
g69
(dp4213
g77
I5
ssg78
g4207
sg71
(lp4214
g64
(g73
g66
NtRp4215
(dp4216
g69
(dp4217
g77
I4
ssg78
Nsg71
(lp4218
g64
(g80
g66
NtRp4219
(dp4220
g69
(dp4221
sg78
g4215
sg71
(lp4222
g64
(g85
g66
NtRp4223
(dp4224
g69
(dp4225
g89
g90
ssg78
g4219
sg71
(lp4226
S'X-Powered-By'
p4227
asbag64
(g85
g66
NtRp4228
(dp4229
g69
(dp4230
g96
g97
ssg78
g4219
sg71
(lp4231
S':'
asbag64
(g85
g66
NtRp4232
(dp4233
g69
(dp4234
sg78
g4219
sg71
(lp4235
g64
(g65
g66
NtRp4236
(dp4237
g69
(dp4238
g77
I4
ssg78
g4232
sg71
(lp4239
S'web2py'
p4240
asbasbasbasbasbasbasbag64
(g80
g66
NtRp4241
(dp4242
g69
(dp4243
sg78
g3803
sg71
(lp4244
g64
(g85
g66
NtRp4245
(dp4246
g69
(dp4247
g89
g90
ssg78
g4241
sg71
(lp4248
S'menu'
p4249
asbag64
(g85
g66
NtRp4250
(dp4251
g69
(dp4252
g96
g97
ssg78
g4241
sg71
(lp4253
S':'
asbag64
(g85
g66
NtRp4254
(dp4255
g69
(dp4256
sg78
g4241
sg71
(lp4257
g64
(g65
g66
NtRp4258
(dp4259
g69
(dp4260
g77
I5
ssg78
g4254
sg71
(lp4261
g64
(g73
g66
NtRp4262
(dp4263
g69
(dp4264
g77
I4
ssg78
Nsg71
(lp4265
g64
(g80
g66
NtRp4266
(dp4267
g69
(dp4268
sg78
g4262
sg71
(lp4269
g64
(g85
g66
NtRp4270
(dp4271
g69
(dp4272
sg78
g4266
sg71
(lp4273
g64
(g65
g66
NtRp4274
(dp4275
g69
(dp4276
g77
I4
ssg78
g4270
sg71
(lp4277
g64
(g73
g66
NtRp4278
(dp4279
g69
(dp4280
g77
I3
ssg78
Nsg71
(lp4281
g64
(g80
g66
NtRp4282
(dp4283
g69
(dp4284
sg78
g4278
sg71
(lp4285
g64
(g85
g66
NtRp4286
(dp4287
g69
(dp4288
sg78
g4282
sg71
(lp4289
g64
(g65
g66
NtRp4290
(dp4291
g69
(dp4292
g77
I3
ssg78
g4286
sg71
(lp4293
cgluon.languages
lazyT_unpickle
p4294
(S's\x04\x00\x00\x00Home'
tRp4295
asbasbasbag64
(g80
g66
NtRp4296
(dp4297
g69
(dp4298
sg78
g4278
sg71
(lp4299
g64
(g85
g66
NtRp4300
(dp4301
g69
(dp4302
sg78
g4296
sg71
(lp4303
g64
(g65
g66
NtRp4304
(dp4305
g69
(dp4306
g77
I3
ssg78
g4300
sg71
(lp4307
g1364
asbasbasbag64
(g80
g66
NtRp4308
(dp4309
g69
(dp4310
sg78
g4278
sg71
(lp4311
g64
(g85
g66
NtRp4312
(dp4313
g69
(dp4314
sg78
g4308
sg71
(lp4315
g64
(g65
g66
NtRp4316
(dp4317
g69
(dp4318
g77
I3
ssg78
g4312
sg71
(lp4319
S'/CartesianPlane/default/index'
p4320
asbasbasbag64
(g80
g66
NtRp4321
(dp4322
g69
(dp4323
sg78
g4278
sg71
(lp4324
g64
(g85
g66
NtRp4325
(dp4326
g69
(dp4327
sg78
g4321
sg71
(lp4328
g64
(g65
g66
NtRp4329
(dp4330
g69
(dp4331
g77
I3
ssg78
g4325
sg71
(lp4332
g64
(g73
g66
NtRp4333
(dp4334
g69
(dp4335
g77
I2
ssg78
Nsg71
(lp4336
sbasbasbasbasbasbasbasbag64
(g80
g66
NtRp4337
(dp4338
g69
(dp4339
sg78
g4262
sg71
(lp4340
g64
(g85
g66
NtRp4341
(dp4342
g69
(dp4343
sg78
g4337
sg71
(lp4344
g64
(g65
g66
NtRp4345
(dp4346
g69
(dp4347
g77
I4
ssg78
g4341
sg71
(lp4348
g64
(g73
g66
NtRp4349
(dp4350
g69
(dp4351
g77
I3
ssg78
Nsg71
(lp4352
g64
(g80
g66
NtRp4353
(dp4354
g69
(dp4355
sg78
g4349
sg71
(lp4356
g64
(g85
g66
NtRp4357
(dp4358
g69
(dp4359
sg78
g4353
sg71
(lp4360
g64
(g65
g66
NtRp4361
(dp4362
g69
(dp4363
g77
I3
ssg78
g4357
sg71
(lp4364
g64
(cgluon.html
SPAN
p4365
g66
NtRp4366
(dp4367
g69
(dp4368
S'_class'
p4369
S'highlighted'
p4370
ssg78
Nsg71
(lp4371
g4240
asbasbasbasbag64
(g80
g66
NtRp4372
(dp4373
g69
(dp4374
sg78
g4349
sg71
(lp4375
g64
(g85
g66
NtRp4376
(dp4377
g69
(dp4378
sg78
g4372
sg71
(lp4379
g64
(g65
g66
NtRp4380
(dp4381
g69
(dp4382
g77
I3
ssg78
g4376
sg71
(lp4383
g1364
asbasbasbag64
(g80
g66
NtRp4384
(dp4385
g69
(dp4386
sg78
g4349
sg71
(lp4387
g64
(g85
g66
NtRp4388
(dp4389
g69
(dp4390
sg78
g4384
sg71
(lp4391
g64
(g65
g66
NtRp4392
(dp4393
g69
(dp4394
g77
I3
ssg78
g4388
sg71
(lp4395
S'http://web2py.com'
p4396
asbasbasbag64
(g80
g66
NtRp4397
(dp4398
g69
(dp4399
sg78
g4349
sg71
(lp4400
g64
(g85
g66
NtRp4401
(dp4402
g69
(dp4403
sg78
g4397
sg71
(lp4404
g64
(g65
g66
NtRp4405
(dp4406
g69
(dp4407
g77
I3
ssg78
g4401
sg71
(lp4408
g64
(g73
g66
NtRp4409
(dp4410
g69
(dp4411
g77
I2
ssg78
Nsg71
(lp4412
g64
(g80
g66
NtRp4413
(dp4414
g69
(dp4415
sg78
g4409
sg71
(lp4416
g64
(g85
g66
NtRp4417
(dp4418
g69
(dp4419
sg78
g4413
sg71
(lp4420
g64
(g65
g66
NtRp4421
(dp4422
g69
(dp4423
g77
I2
ssg78
g4417
sg71
(lp4424
g64
(g73
g66
NtRp4425
(dp4426
g69
(dp4427
g77
I1
ssg78
Nsg71
(lp4428
g64
(g80
g66
NtRp4429
(dp4430
g69
(dp4431
sg78
g4425
sg71
(lp4432
g64
(g85
g66
NtRp4433
(dp4434
g69
(dp4435
sg78
g4429
sg71
(lp4436
g64
(g65
g66
NtRp4437
(dp4438
g69
(dp4439
g77
I1
ssg78
g4433
sg71
(lp4440
g4294
(S's\x08\x00\x00\x00My Sites'
tRp4441
asbasbasbag64
(g80
g66
NtRp4442
(dp4443
g69
(dp4444
sg78
g4425
sg71
(lp4445
g64
(g85
g66
NtRp4446
(dp4447
g69
(dp4448
sg78
g4442
sg71
(lp4449
g64
(g65
g66
NtRp4450
(dp4451
g69
(dp4452
g77
I1
ssg78
g4446
sg71
(lp4453
I00
asbasbasbag64
(g80
g66
NtRp4454
(dp4455
g69
(dp4456
sg78
g4425
sg71
(lp4457
g64
(g85
g66
NtRp4458
(dp4459
g69
(dp4460
sg78
g4454
sg71
(lp4461
g64
(g65
g66
NtRp4462
(dp4463
g69
(dp4464
g77
I1
ssg78
g4458
sg71
(lp4465
S'/admin/default/site'
p4466
asbasbasbasbasbasbasbag64
(g80
g66
NtRp4467
(dp4468
g69
(dp4469
sg78
g4409
sg71
(lp4470
g64
(g85
g66
NtRp4471
(dp4472
g69
(dp4473
sg78
g4467
sg71
(lp4474
g64
(g65
g66
NtRp4475
(dp4476
g69
(dp4477
g77
I2
ssg78
g4471
sg71
(lp4478
g64
(g73
g66
NtRp4479
(dp4480
g69
(dp4481
g77
I1
ssg78
Nsg71
(lp4482
g64
(g80
g66
NtRp4483
(dp4484
g69
(dp4485
sg78
g4479
sg71
(lp4486
g64
(g85
g66
NtRp4487
(dp4488
g69
(dp4489
sg78
g4483
sg71
(lp4490
g64
(g65
g66
NtRp4491
(dp4492
g69
(dp4493
g77
I1
ssg78
g4487
sg71
(lp4494
g4294
(S's\x08\x00\x00\x00This App'
tRp4495
asbasbasbag64
(g80
g66
NtRp4496
(dp4497
g69
(dp4498
sg78
g4479
sg71
(lp4499
g64
(g85
g66
NtRp4500
(dp4501
g69
(dp4502
sg78
g4496
sg71
(lp4503
g64
(g65
g66
NtRp4504
(dp4505
g69
(dp4506
g77
I1
ssg78
g4500
sg71
(lp4507
I00
asbasbasbag64
(g80
g66
NtRp4508
(dp4509
g69
(dp4510
sg78
g4479
sg71
(lp4511
g64
(g85
g66
NtRp4512
(dp4513
g69
(dp4514
sg78
g4508
sg71
(lp4515
g64
(g65
g66
NtRp4516
(dp4517
g69
(dp4518
g77
I1
ssg78
g4512
sg71
(lp4519
S'/admin/default/design/CartesianPlane'
p4520
asbasbasbag64
(g80
g66
NtRp4521
(dp4522
g69
(dp4523
sg78
g4479
sg71
(lp4524
g64
(g85
g66
NtRp4525
(dp4526
g69
(dp4527
sg78
g4521
sg71
(lp4528
g64
(g65
g66
NtRp4529
(dp4530
g69
(dp4531
g77
I1
ssg78
g4525
sg71
(lp4532
(lp4533
(g4294
(S's\x0b\x00\x00\x00Controlador'
tRp4534
I00
S'/admin/default/edit/CartesianPlane/controllers/default.py'
tp4535
a(g4294
(S's\x0e\x00\x00\x00Visualiza\xc3\xa7\xc3\xa3o'
tRp4536
I00
S'/admin/default/edit/CartesianPlane/views/default/loadOptions.html'
tp4537
a(g4294
(S's\x06\x00\x00\x00Layout'
tRp4538
I00
S'/admin/default/edit/CartesianPlane/views/layout.html'
tp4539
a(g4294
(S's\n\x00\x00\x00Stylesheet'
tRp4540
I00
S'/admin/default/edit/CartesianPlane/static/css/web2py.css'
tp4541
a(g4294
(S's\t\x00\x00\x00Modelo BD'
tRp4542
I00
S'/admin/default/edit/CartesianPlane/models/db.py'
tp4543
a(g4294
(S's\x0e\x00\x00\x00Modelo de Menu'
tRp4544
I00
S'/admin/default/edit/CartesianPlane/models/menu.py'
tp4545
a(g4294
(S's\x0e\x00\x00\x00banco de dados'
tRp4546
I00
S'/CartesianPlane/appadmin/index'
tp4547
a(g4294
(S's\x06\x00\x00\x00Errors'
tRp4548
I00
S'/admin/default/errors/CartesianPlane'
tp4549
a(g4294
(S's\x05\x00\x00\x00About'
tRp4550
I00
S'/admin/default/about/CartesianPlane'
tp4551
aasbasbasbasbasbasbasbag64
(g80
g66
NtRp4552
(dp4553
g69
(dp4554
sg78
g4409
sg71
(lp4555
g64
(g85
g66
NtRp4556
(dp4557
g69
(dp4558
sg78
g4552
sg71
(lp4559
g64
(g65
g66
NtRp4560
(dp4561
g69
(dp4562
g77
I2
ssg78
g4556
sg71
(lp4563
g64
(g73
g66
NtRp4564
(dp4565
g69
(dp4566
g77
I1
ssg78
Nsg71
(lp4567
g64
(g80
g66
NtRp4568
(dp4569
g69
(dp4570
sg78
g4564
sg71
(lp4571
g64
(g85
g66
NtRp4572
(dp4573
g69
(dp4574
sg78
g4568
sg71
(lp4575
g64
(g65
g66
NtRp4576
(dp4577
g69
(dp4578
g77
I1
ssg78
g4572
sg71
(lp4579
S'web2py.com'
p4580
asbasbasbag64
(g80
g66
NtRp4581
(dp4582
g69
(dp4583
sg78
g4564
sg71
(lp4584
g64
(g85
g66
NtRp4585
(dp4586
g69
(dp4587
sg78
g4581
sg71
(lp4588
g64
(g65
g66
NtRp4589
(dp4590
g69
(dp4591
g77
I1
ssg78
g4585
sg71
(lp4592
I00
asbasbasbag64
(g80
g66
NtRp4593
(dp4594
g69
(dp4595
sg78
g4564
sg71
(lp4596
g64
(g85
g66
NtRp4597
(dp4598
g69
(dp4599
sg78
g4593
sg71
(lp4600
g64
(g65
g66
NtRp4601
(dp4602
g69
(dp4603
g77
I1
ssg78
g4597
sg71
(lp4604
S'http://www.web2py.com'
p4605
asbasbasbag64
(g80
g66
NtRp4606
(dp4607
g69
(dp4608
sg78
g4564
sg71
(lp4609
g64
(g85
g66
NtRp4610
(dp4611
g69
(dp4612
sg78
g4606
sg71
(lp4613
g64
(g65
g66
NtRp4614
(dp4615
g69
(dp4616
g77
I1
ssg78
g4610
sg71
(lp4617
(lp4618
(g4294
(S's\x08\x00\x00\x00Download'
tRp4619
I00
S'http://www.web2py.com/examples/default/download'
p4620
tp4621
a(g4294
(S's\x07\x00\x00\x00Support'
tRp4622
I00
S'http://www.web2py.com/examples/default/support'
p4623
tp4624
a(g4294
(S's\x04\x00\x00\x00Demo'
tRp4625
I00
S'http://web2py.com/demo_admin'
p4626
tp4627
a(g4294
(S's\x0e\x00\x00\x00Quick Examples'
tRp4628
I00
S'http://web2py.com/examples/default/examples'
p4629
tp4630
a(g4294
(S's\x03\x00\x00\x00FAQ'
tRp4631
I00
S'http://web2py.com/AlterEgo'
p4632
tp4633
a(g4294
(S's\x06\x00\x00\x00Videos'
tRp4634
I00
S'http://www.web2py.com/examples/default/videos/'
p4635
tp4636
a(g4294
(S's\x11\x00\x00\x00Free Applications'
tRp4637
I00
S'http://web2py.com/appliances'
p4638
tp4639
a(g4294
(S's\x07\x00\x00\x00Plugins'
tRp4640
I00
S'http://web2py.com/plugins'
p4641
tp4642
a(g4294
(S's\x07\x00\x00\x00Layouts'
tRp4643
I00
S'http://web2py.com/layouts'
p4644
tp4645
a(g4294
(S's\x07\x00\x00\x00Recipes'
tRp4646
I00
S'http://web2pyslices.com/'
p4647
tp4648
a(g4294
(S's\x08\x00\x00\x00Semantic'
tRp4649
I00
S'http://web2py.com/semantic'
p4650
tp4651
aasbasbasbasbasbasbasbag64
(g80
g66
NtRp4652
(dp4653
g69
(dp4654
sg78
g4409
sg71
(lp4655
g64
(g85
g66
NtRp4656
(dp4657
g69
(dp4658
sg78
g4652
sg71
(lp4659
g64
(g65
g66
NtRp4660
(dp4661
g69
(dp4662
g77
I2
ssg78
g4656
sg71
(lp4663
g64
(g73
g66
NtRp4664
(dp4665
g69
(dp4666
g77
I1
ssg78
Nsg71
(lp4667
g64
(g80
g66
NtRp4668
(dp4669
g69
(dp4670
sg78
g4664
sg71
(lp4671
g64
(g85
g66
NtRp4672
(dp4673
g69
(dp4674
sg78
g4668
sg71
(lp4675
g64
(g65
g66
NtRp4676
(dp4677
g69
(dp4678
g77
I1
ssg78
g4672
sg71
(lp4679
g4294
(S's\r\x00\x00\x00Documentation'
tRp4680
asbasbasbag64
(g80
g66
NtRp4681
(dp4682
g69
(dp4683
sg78
g4664
sg71
(lp4684
g64
(g85
g66
NtRp4685
(dp4686
g69
(dp4687
sg78
g4681
sg71
(lp4688
g64
(g65
g66
NtRp4689
(dp4690
g69
(dp4691
g77
I1
ssg78
g4685
sg71
(lp4692
I00
asbasbasbag64
(g80
g66
NtRp4693
(dp4694
g69
(dp4695
sg78
g4664
sg71
(lp4696
g64
(g85
g66
NtRp4697
(dp4698
g69
(dp4699
sg78
g4693
sg71
(lp4700
g64
(g65
g66
NtRp4701
(dp4702
g69
(dp4703
g77
I1
ssg78
g4697
sg71
(lp4704
S'http://www.web2py.com/book'
p4705
asbasbasbag64
(g80
g66
NtRp4706
(dp4707
g69
(dp4708
sg78
g4664
sg71
(lp4709
g64
(g85
g66
NtRp4710
(dp4711
g69
(dp4712
sg78
g4706
sg71
(lp4713
g64
(g65
g66
NtRp4714
(dp4715
g69
(dp4716
g77
I1
ssg78
g4710
sg71
(lp4717
(lp4718
(g4294
(S's\x07\x00\x00\x00Preface'
tRp4719
I00
S'http://www.web2py.com/book/default/chapter/00'
p4720
tp4721
a(g4294
(S's\x0c\x00\x00\x00Introduction'
tRp4722
I00
S'http://www.web2py.com/book/default/chapter/01'
p4723
tp4724
a(g4294
(S's\x06\x00\x00\x00Python'
tRp4725
I00
S'http://www.web2py.com/book/default/chapter/02'
p4726
tp4727
a(g4294
(S's\x08\x00\x00\x00Overview'
tRp4728
I00
S'http://www.web2py.com/book/default/chapter/03'
p4729
tp4730
a(g4294
(S's\x08\x00\x00\x00The Core'
tRp4731
I00
S'http://www.web2py.com/book/default/chapter/04'
p4732
tp4733
a(g4294
(S's\t\x00\x00\x00The Views'
tRp4734
I00
S'http://www.web2py.com/book/default/chapter/05'
p4735
tp4736
a(g4294
(S's\x0e\x00\x00\x00banco de dados'
tRp4737
I00
S'http://www.web2py.com/book/default/chapter/06'
p4738
tp4739
a(g4294
(S's\x14\x00\x00\x00Forms and Validators'
tRp4740
I00
S'http://www.web2py.com/book/default/chapter/07'
p4741
tp4742
a(g4294
(S's\r\x00\x00\x00Email and SMS'
tRp4743
I00
S'http://www.web2py.com/book/default/chapter/08'
p4744
tp4745
a(g4294
(S's\x0e\x00\x00\x00Access Control'
tRp4746
I00
S'http://www.web2py.com/book/default/chapter/09'
p4747
tp4748
a(g4294
(S's\x08\x00\x00\x00Services'
tRp4749
I00
S'http://www.web2py.com/book/default/chapter/10'
p4750
tp4751
a(g4294
(S's\x0c\x00\x00\x00Ajax Recipes'
tRp4752
I00
S'http://www.web2py.com/book/default/chapter/11'
p4753
tp4754
a(g4294
(S's\x16\x00\x00\x00Components and Plugins'
tRp4755
I00
S'http://www.web2py.com/book/default/chapter/12'
p4756
tp4757
a(g4294
(S's\x12\x00\x00\x00Deployment Recipes'
tRp4758
I00
S'http://www.web2py.com/book/default/chapter/13'
p4759
tp4760
a(g4294
(S's\r\x00\x00\x00Other Recipes'
tRp4761
I00
S'http://www.web2py.com/book/default/chapter/14'
p4762
tp4763
a(g4294
(S's\r\x00\x00\x00Buy this book'
tRp4764
I00
S'http://stores.lulu.com/web2py'
p4765
tp4766
aasbasbasbasbasbasbasbag64
(g80
g66
NtRp4767
(dp4768
g69
(dp4769
sg78
g4409
sg71
(lp4770
g64
(g85
g66
NtRp4771
(dp4772
g69
(dp4773
sg78
g4767
sg71
(lp4774
g64
(g65
g66
NtRp4775
(dp4776
g69
(dp4777
g77
I2
ssg78
g4771
sg71
(lp4778
g64
(g73
g66
NtRp4779
(dp4780
g69
(dp4781
g77
I1
ssg78
Nsg71
(lp4782
g64
(g80
g66
NtRp4783
(dp4784
g69
(dp4785
sg78
g4779
sg71
(lp4786
g64
(g85
g66
NtRp4787
(dp4788
g69
(dp4789
sg78
g4783
sg71
(lp4790
g64
(g65
g66
NtRp4791
(dp4792
g69
(dp4793
g77
I1
ssg78
g4787
sg71
(lp4794
g4294
(S's\t\x00\x00\x00Community'
tRp4795
asbasbasbag64
(g80
g66
NtRp4796
(dp4797
g69
(dp4798
sg78
g4779
sg71
(lp4799
g64
(g85
g66
NtRp4800
(dp4801
g69
(dp4802
sg78
g4796
sg71
(lp4803
g64
(g65
g66
NtRp4804
(dp4805
g69
(dp4806
g77
I1
ssg78
g4800
sg71
(lp4807
I00
asbasbasbag64
(g80
g66
NtRp4808
(dp4809
g69
(dp4810
sg78
g4779
sg71
(lp4811
g64
(g85
g66
NtRp4812
(dp4813
g69
(dp4814
sg78
g4808
sg71
(lp4815
g64
(g65
g66
NtRp4816
(dp4817
g69
(dp4818
g77
I1
ssg78
g4812
sg71
(lp4819
Nasbasbasbag64
(g80
g66
NtRp4820
(dp4821
g69
(dp4822
sg78
g4779
sg71
(lp4823
g64
(g85
g66
NtRp4824
(dp4825
g69
(dp4826
sg78
g4820
sg71
(lp4827
g64
(g65
g66
NtRp4828
(dp4829
g69
(dp4830
g77
I1
ssg78
g4824
sg71
(lp4831
(lp4832
(g4294
(S's\x06\x00\x00\x00Groups'
tRp4833
I00
S'http://www.web2py.com/examples/default/usergroups'
p4834
tp4835
a(g4294
(S's\x07\x00\x00\x00Twitter'
tRp4836
I00
S'http://twitter.com/web2py'
p4837
tp4838
a(g4294
(S's\t\x00\x00\x00Live Chat'
tRp4839
I00
S'http://webchat.freenode.net/?channels=web2py'
p4840
tp4841
aasbasbasbasbasbasbasbag64
(g80
g66
NtRp4842
(dp4843
g69
(dp4844
sg78
g4409
sg71
(lp4845
g64
(g85
g66
NtRp4846
(dp4847
g69
(dp4848
sg78
g4842
sg71
(lp4849
g64
(g65
g66
NtRp4850
(dp4851
g69
(dp4852
g77
I2
ssg78
g4846
sg71
(lp4853
g64
(g73
g66
NtRp4854
(dp4855
g69
(dp4856
g77
I1
ssg78
Nsg71
(lp4857
g64
(g80
g66
NtRp4858
(dp4859
g69
(dp4860
sg78
g4854
sg71
(lp4861
g64
(g85
g66
NtRp4862
(dp4863
g69
(dp4864
sg78
g4858
sg71
(lp4865
g64
(g65
g66
NtRp4866
(dp4867
g69
(dp4868
g77
I1
ssg78
g4862
sg71
(lp4869
g4294
(S's\x07\x00\x00\x00Plugins'
tRp4870
asbasbasbag64
(g80
g66
NtRp4871
(dp4872
g69
(dp4873
sg78
g4854
sg71
(lp4874
g64
(g85
g66
NtRp4875
(dp4876
g69
(dp4877
sg78
g4871
sg71
(lp4878
g64
(g65
g66
NtRp4879
(dp4880
g69
(dp4881
g77
I1
ssg78
g4875
sg71
(lp4882
I00
asbasbasbag64
(g80
g66
NtRp4883
(dp4884
g69
(dp4885
sg78
g4854
sg71
(lp4886
g64
(g85
g66
NtRp4887
(dp4888
g69
(dp4889
sg78
g4883
sg71
(lp4890
g64
(g65
g66
NtRp4891
(dp4892
g69
(dp4893
g77
I1
ssg78
g4887
sg71
(lp4894
Nasbasbasbag64
(g80
g66
NtRp4895
(dp4896
g69
(dp4897
sg78
g4854
sg71
(lp4898
g64
(g85
g66
NtRp4899
(dp4900
g69
(dp4901
sg78
g4895
sg71
(lp4902
g64
(g65
g66
NtRp4903
(dp4904
g69
(dp4905
g77
I1
ssg78
g4899
sg71
(lp4906
(lp4907
(S'plugin_wiki'
p4908
I00
S'http://web2py.com/examples/default/download'
p4909
tp4910
a(g4294
(S's\r\x00\x00\x00Other Plugins'
tRp4911
I00
g4641
tp4912
a(g4294
(S's\x0e\x00\x00\x00Layout Plugins'
tRp4913
I00
g4644
tp4914
aasbasbasbasbasbasbasbasbasbasbasbasbasbasbasbasbasbasbasbag64
(g80
g66
NtRp4915
(dp4916
g69
(dp4917
sg78
g3803
sg71
(lp4918
g64
(g85
g66
NtRp4919
(dp4920
g69
(dp4921
g89
g90
ssg78
g4915
sg71
(lp4922
S'meta'
p4923
asbag64
(g85
g66
NtRp4924
(dp4925
g69
(dp4926
g96
g97
ssg78
g4915
sg71
(lp4927
S':'
asbag64
(g85
g66
NtRp4928
(dp4929
g69
(dp4930
sg78
g4915
sg71
(lp4931
g64
(g65
g66
NtRp4932
(dp4933
g69
(dp4934
g77
I5
ssg78
g4928
sg71
(lp4935
g64
(g73
g66
NtRp4936
(dp4937
g69
(dp4938
g77
I4
ssg78
Nsg71
(lp4939
g64
(g80
g66
NtRp4940
(dp4941
g69
(dp4942
sg78
g4936
sg71
(lp4943
g64
(g85
g66
NtRp4944
(dp4945
g69
(dp4946
g89
g90
ssg78
g4940
sg71
(lp4947
S'author'
p4948
asbag64
(g85
g66
NtRp4949
(dp4950
g69
(dp4951
g96
g97
ssg78
g4940
sg71
(lp4952
S':'
asbag64
(g85
g66
NtRp4953
(dp4954
g69
(dp4955
sg78
g4940
sg71
(lp4956
g64
(g65
g66
NtRp4957
(dp4958
g69
(dp4959
g77
I4
ssg78
g4953
sg71
(lp4960
S'Your Name <you@example.com>'
p4961
asbasbasbag64
(g80
g66
NtRp4962
(dp4963
g69
(dp4964
sg78
g4936
sg71
(lp4965
g64
(g85
g66
NtRp4966
(dp4967
g69
(dp4968
g89
g90
ssg78
g4962
sg71
(lp4969
S'description'
p4970
asbag64
(g85
g66
NtRp4971
(dp4972
g69
(dp4973
g96
g97
ssg78
g4962
sg71
(lp4974
S':'
asbag64
(g85
g66
NtRp4975
(dp4976
g69
(dp4977
sg78
g4962
sg71
(lp4978
g64
(g65
g66
NtRp4979
(dp4980
g69
(dp4981
g77
I4
ssg78
g4975
sg71
(lp4982
S'a cool new app'
p4983
asbasbasbag64
(g80
g66
NtRp4984
(dp4985
g69
(dp4986
sg78
g4936
sg71
(lp4987
g64
(g85
g66
NtRp4988
(dp4989
g69
(dp4990
g89
g90
ssg78
g4984
sg71
(lp4991
S'generator'
p4992
asbag64
(g85
g66
NtRp4993
(dp4994
g69
(dp4995
g96
g97
ssg78
g4984
sg71
(lp4996
S':'
asbag64
(g85
g66
NtRp4997
(dp4998
g69
(dp4999
sg78
g4984
sg71
(lp5000
g64
(g65
g66
NtRp5001
(dp5002
g69
(dp5003
g77
I4
ssg78
g4997
sg71
(lp5004
S'Web2py Web Framework'
p5005
asbasbasbag64
(g80
g66
NtRp5006
(dp5007
g69
(dp5008
sg78
g4936
sg71
(lp5009
g64
(g85
g66
NtRp5010
(dp5011
g69
(dp5012
g89
g90
ssg78
g5006
sg71
(lp5013
S'keywords'
p5014
asbag64
(g85
g66
NtRp5015
(dp5016
g69
(dp5017
g96
g97
ssg78
g5006
sg71
(lp5018
S':'
asbag64
(g85
g66
NtRp5019
(dp5020
g69
(dp5021
sg78
g5006
sg71
(lp5022
g64
(g65
g66
NtRp5023
(dp5024
g69
(dp5025
g77
I4
ssg78
g5019
sg71
(lp5026
S'web2py, python, framework'
p5027
asbasbasbasbasbasbasbag64
(g80
g66
NtRp5028
(dp5029
g69
(dp5030
sg78
g3803
sg71
(lp5031
g64
(g85
g66
NtRp5032
(dp5033
g69
(dp5034
g89
g90
ssg78
g5028
sg71
(lp5035
S'models_to_run'
p5036
asbag64
(g85
g66
NtRp5037
(dp5038
g69
(dp5039
g96
g97
ssg78
g5028
sg71
(lp5040
S':'
asbag64
(g85
g66
NtRp5041
(dp5042
g69
(dp5043
sg78
g5028
sg71
(lp5044
g64
(g65
g66
NtRp5045
(dp5046
g69
(dp5047
g77
I5
ssg78
g5041
sg71
(lp5048
g64
(g73
g66
NtRp5049
(dp5050
g69
(dp5051
g77
I4
ssg78
Nsg71
(lp5052
g64
(g80
g66
NtRp5053
(dp5054
g69
(dp5055
sg78
g5049
sg71
(lp5056
g64
(g85
g66
NtRp5057
(dp5058
g69
(dp5059
sg78
g5053
sg71
(lp5060
g64
(g65
g66
NtRp5061
(dp5062
g69
(dp5063
g77
I4
ssg78
g5057
sg71
(lp5064
S'^\\w+\\.py$'
p5065
asbasbasbag64
(g80
g66
NtRp5066
(dp5067
g69
(dp5068
sg78
g5049
sg71
(lp5069
g64
(g85
g66
NtRp5070
(dp5071
g69
(dp5072
sg78
g5066
sg71
(lp5073
g64
(g65
g66
NtRp5074
(dp5075
g69
(dp5076
g77
I4
ssg78
g5070
sg71
(lp5077
S'^default/\\w+\\.py$'
p5078
asbasbasbag64
(g80
g66
NtRp5079
(dp5080
g69
(dp5081
sg78
g5049
sg71
(lp5082
g64
(g85
g66
NtRp5083
(dp5084
g69
(dp5085
sg78
g5079
sg71
(lp5086
g64
(g65
g66
NtRp5087
(dp5088
g69
(dp5089
g77
I4
ssg78
g5083
sg71
(lp5090
S'^default/loadOptions/\\w+\\.py$'
p5091
asbasbasbasbasbasbasbag64
(g80
g66
NtRp5092
(dp5093
g69
(dp5094
sg78
g3803
sg71
(lp5095
g64
(g85
g66
NtRp5096
(dp5097
g69
(dp5098
g89
g90
ssg78
g5092
sg71
(lp5099
S'postprocessing'
p5100
asbag64
(g85
g66
NtRp5101
(dp5102
g69
(dp5103
g96
g97
ssg78
g5092
sg71
(lp5104
S':'
asbag64
(g85
g66
NtRp5105
(dp5106
g69
(dp5107
sg78
g5092
sg71
(lp5108
g64
(g65
g66
NtRp5109
(dp5110
g69
(dp5111
g77
I5
ssg78
g5105
sg71
(lp5112
g64
(g73
g66
NtRp5113
(dp5114
g69
(dp5115
g77
I4
ssg78
Nsg71
(lp5116
sbasbasbasbag64
(g80
g66
NtRp5117
(dp5118
g69
(dp5119
sg78
g3803
sg71
(lp5120
g64
(g85
g66
NtRp5121
(dp5122
g69
(dp5123
g89
g90
ssg78
g5117
sg71
(lp5124
S'session_cookie_expires'
p5125
asbag64
(g85
g66
NtRp5126
(dp5127
g69
(dp5128
g96
g97
ssg78
g5117
sg71
(lp5129
S':'
asbag64
(g85
g66
NtRp5130
(dp5131
g69
(dp5132
sg78
g5117
sg71
(lp5133
g64
(g65
g66
NtRp5134
(dp5135
g69
(dp5136
g77
I5
ssg78
g5130
sg71
(lp5137
S'None'
p5138
asbasbasbag64
(g80
g66
NtRp5139
(dp5140
g69
(dp5141
sg78
g3803
sg71
(lp5142
g64
(g85
g66
NtRp5143
(dp5144
g69
(dp5145
g89
g90
ssg78
g5139
sg71
(lp5146
S'session_data_name'
p5147
asbag64
(g85
g66
NtRp5148
(dp5149
g69
(dp5150
g96
g97
ssg78
g5139
sg71
(lp5151
S':'
asbag64
(g85
g66
NtRp5152
(dp5153
g69
(dp5154
sg78
g5139
sg71
(lp5155
g64
(g65
g66
NtRp5156
(dp5157
g69
(dp5158
g77
I5
ssg78
g5152
sg71
(lp5159
S'session_data_cartesianplane'
p5160
asbasbasbag64
(g80
g66
NtRp5161
(dp5162
g69
(dp5163
sg78
g3803
sg71
(lp5164
g64
(g85
g66
NtRp5165
(dp5166
g69
(dp5167
g89
g90
ssg78
g5161
sg71
(lp5168
S'session_filename'
p5169
asbag64
(g85
g66
NtRp5170
(dp5171
g69
(dp5172
g96
g97
ssg78
g5161
sg71
(lp5173
S':'
asbag64
(g85
g66
NtRp5174
(dp5175
g69
(dp5176
sg78
g5161
sg71
(lp5177
g64
(g65
g66
NtRp5178
(dp5179
g69
(dp5180
g77
I5
ssg78
g5174
sg71
(lp5181
S'/Users/victorgirotto/Desktop/web2py-master/applications/CartesianPlane/sessions/127.0.0.1-21dcaef2-13a6-4878-8ca0-e163fb3cee1f'
p5182
asbasbasbag64
(g80
g66
NtRp5183
(dp5184
g69
(dp5185
sg78
g3803
sg71
(lp5186
g64
(g85
g66
NtRp5187
(dp5188
g69
(dp5189
g89
g90
ssg78
g5183
sg71
(lp5190
S'session_id'
p5191
asbag64
(g85
g66
NtRp5192
(dp5193
g69
(dp5194
g96
g97
ssg78
g5183
sg71
(lp5195
S':'
asbag64
(g85
g66
NtRp5196
(dp5197
g69
(dp5198
sg78
g5183
sg71
(lp5199
g64
(g65
g66
NtRp5200
(dp5201
g69
(dp5202
g77
I5
ssg78
g5196
sg71
(lp5203
g3873
asbasbasbag64
(g80
g66
NtRp5204
(dp5205
g69
(dp5206
sg78
g3803
sg71
(lp5207
g64
(g85
g66
NtRp5208
(dp5209
g69
(dp5210
g89
g90
ssg78
g5204
sg71
(lp5211
S'session_id_name'
p5212
asbag64
(g85
g66
NtRp5213
(dp5214
g69
(dp5215
g96
g97
ssg78
g5204
sg71
(lp5216
S':'
asbag64
(g85
g66
NtRp5217
(dp5218
g69
(dp5219
sg78
g5204
sg71
(lp5220
g64
(g65
g66
NtRp5221
(dp5222
g69
(dp5223
g77
I5
ssg78
g5217
sg71
(lp5224
g3860
asbasbasbag64
(g80
g66
NtRp5225
(dp5226
g69
(dp5227
sg78
g3803
sg71
(lp5228
g64
(g85
g66
NtRp5229
(dp5230
g69
(dp5231
g89
g90
ssg78
g5225
sg71
(lp5232
S'session_new'
p5233
asbag64
(g85
g66
NtRp5234
(dp5235
g69
(dp5236
g96
g97
ssg78
g5225
sg71
(lp5237
S':'
asbag64
(g85
g66
NtRp5238
(dp5239
g69
(dp5240
sg78
g5225
sg71
(lp5241
g64
(g65
g66
NtRp5242
(dp5243
g69
(dp5244
g77
I5
ssg78
g5238
sg71
(lp5245
g107
asbasbasbag64
(g80
g66
NtRp5246
(dp5247
g69
(dp5248
sg78
g3803
sg71
(lp5249
g64
(g85
g66
NtRp5250
(dp5251
g69
(dp5252
g89
g90
ssg78
g5246
sg71
(lp5253
S'session_storage_type'
p5254
asbag64
(g85
g66
NtRp5255
(dp5256
g69
(dp5257
g96
g97
ssg78
g5246
sg71
(lp5258
S':'
asbag64
(g85
g66
NtRp5259
(dp5260
g69
(dp5261
sg78
g5246
sg71
(lp5262
g64
(g65
g66
NtRp5263
(dp5264
g69
(dp5265
g77
I5
ssg78
g5259
sg71
(lp5266
g3665
asbasbasbag64
(g80
g66
NtRp5267
(dp5268
g69
(dp5269
sg78
g3803
sg71
(lp5270
g64
(g85
g66
NtRp5271
(dp5272
g69
(dp5273
g89
g90
ssg78
g5267
sg71
(lp5274
S'status'
p5275
asbag64
(g85
g66
NtRp5276
(dp5277
g69
(dp5278
g96
g97
ssg78
g5267
sg71
(lp5279
S':'
asbag64
(g85
g66
NtRp5280
(dp5281
g69
(dp5282
sg78
g5267
sg71
(lp5283
g64
(g65
g66
NtRp5284
(dp5285
g69
(dp5286
g77
I5
ssg78
g5280
sg71
(lp5287
S'200'
p5288
asbasbasbag64
(g80
g66
NtRp5289
(dp5290
g69
(dp5291
sg78
g3803
sg71
(lp5292
g64
(g85
g66
NtRp5293
(dp5294
g69
(dp5295
g89
g90
ssg78
g5289
sg71
(lp5296
S'subtitle'
p5297
asbag64
(g85
g66
NtRp5298
(dp5299
g69
(dp5300
g96
g97
ssg78
g5289
sg71
(lp5301
S':'
asbag64
(g85
g66
NtRp5302
(dp5303
g69
(dp5304
sg78
g5289
sg71
(lp5305
g64
(g65
g66
NtRp5306
(dp5307
g69
(dp5308
g77
I5
ssg78
g5302
sg71
(lp5309
g4294
(S's\x0f\x00\x00\x00Personalize-me!'
tRp5310
asbasbasbag64
(g80
g66
NtRp5311
(dp5312
g69
(dp5313
sg78
g3803
sg71
(lp5314
g64
(g85
g66
NtRp5315
(dp5316
g69
(dp5317
g89
g90
ssg78
g5311
sg71
(lp5318
S'title'
p5319
asbag64
(g85
g66
NtRp5320
(dp5321
g69
(dp5322
g96
g97
ssg78
g5311
sg71
(lp5323
S':'
asbag64
(g85
g66
NtRp5324
(dp5325
g69
(dp5326
sg78
g5311
sg71
(lp5327
g64
(g65
g66
NtRp5328
(dp5329
g69
(dp5330
g77
I5
ssg78
g5324
sg71
(lp5331
S'Cartesianplane'
p5332
asbasbasbag64
(g80
g66
NtRp5333
(dp5334
g69
(dp5335
sg78
g3803
sg71
(lp5336
g64
(g85
g66
NtRp5337
(dp5338
g69
(dp5339
g89
g90
ssg78
g5333
sg71
(lp5340
S'view'
p5341
asbag64
(g85
g66
NtRp5342
(dp5343
g69
(dp5344
g96
g97
ssg78
g5333
sg71
(lp5345
S':'
asbag64
(g85
g66
NtRp5346
(dp5347
g69
(dp5348
sg78
g5333
sg71
(lp5349
g64
(g65
g66
NtRp5350
(dp5351
g69
(dp5352
g77
I5
ssg78
g5346
sg71
(lp5353
S'default/loadOptions.html'
p5354
asbasbasbasbasbsS'locals'
p5355
(dp5356
S'self'
p5357
S'<xmlrpclib.Unmarshaller instance>'
p5358
sssS'traceback'
p5359
S'Traceback (most recent call last):\n  File "/Users/victorgirotto/Desktop/web2py-master/gluon/restricted.py", line 212, in restricted\n    exec ccode in environment\n  File "/Users/victorgirotto/Desktop/web2py-master/applications/CartesianPlane/controllers/default.py", line 64, in <module>\n  File "/Users/victorgirotto/Desktop/web2py-master/gluon/globals.py", line 190, in <lambda>\n    self._caller = lambda f: f()\n  File "/Users/victorgirotto/Desktop/web2py-master/applications/CartesianPlane/controllers/default.py", line 31, in loadOptions\n    return server.loadOptions(response.json(request.vars))\n  File "/System/Library/Frameworks/Python.framework/Versions/2.7/lib/python2.7/xmlrpclib.py", line 1224, in __call__\n  File "/System/Library/Frameworks/Python.framework/Versions/2.7/lib/python2.7/xmlrpclib.py", line 1575, in __request\n  File "/System/Library/Frameworks/Python.framework/Versions/2.7/lib/python2.7/xmlrpclib.py", line 1264, in request\n  File "/System/Library/Frameworks/Python.framework/Versions/2.7/lib/python2.7/xmlrpclib.py", line 1297, in single_request\n  File "/System/Library/Frameworks/Python.framework/Versions/2.7/lib/python2.7/xmlrpclib.py", line 1473, in parse_response\n  File "/System/Library/Frameworks/Python.framework/Versions/2.7/lib/python2.7/xmlrpclib.py", line 793, in close\nFault: <Fault 1: "<class \'sqlite3.OperationalError\'>:database is locked">\n'
p5360
s.