(dp1
S'output'
p2
S"<type 'exceptions.IOError'> [Errno 2] No such file or directory: '/Users/victorgirotto/Desktop/web2py-master/applications/CartesianPlane/static/geoapp.html'"
p3
sS'layer'
p4
S'/Users/victorgirotto/Desktop/web2py-master/applications/CartesianPlane/controllers/default.py'
p5
sS'code'
p6
S'import os\nimport socket\nfrom xmlrpclib import ServerProxy\nfrom gluon.shell import exec_environment\nfrom gluon.contrib.websocket_messaging import websocket_send\n\nfilename = os.path.join(request.folder, \'static\', \'geoapp.html\')\nserver = ServerProxy(\'http://127.0.0.1:8000/GeogebraInterface/default/call/xmlrpc\')\n\n__current_ip = \'127.0.0.1\'\n# __current_ip = \'169.254.67.33\'\n__socket_group_name = \'applet\'\n__socket_port = \'8888\'\n\n# -*- coding: utf-8 -*-\n### required - do no delete\ndef user(): return dict(form=auth())\ndef download(): return response.download(request,db)\ndef call(): \n    session.forget()\n    return service()\n### end requires\ndef index():\n    return dict()\n    \ndef applet():\n    return dict(applet=XML(open(filename).read()), ip=__current_ip, port=__socket_port, group_name=__socket_group_name)\n\n    \ndef loadOptions():\n    return server.loadOptions(response.json(request.vars))\n    ##return(response.json(request.vars))\n    \n    ##\n    ##return server.loadOptions(request.vars)\n    ##s.update(value="3")\n    ##return server.loadOptions()\n\n    \ndef echo():\n    return "Hello World"\n   \ndef program():\n    return dict()\n\ndef error():\n    return dict()\n\n## the server polls for an update to the current step\ndef pollForEvent():\n    return db(db.menuOptions2.name == \'test\').select()[0].value\n\n## executes the current step on the server\n@service.xmlrpc\ndef executeEvent(data):\n    db.menuOptions2.update_or_insert(db.menuOptions2.name==\'test\', name=\'test\', value=data)\n    websocket_send(\'http://\' + __current_ip + \':\' + __socket_port, data, \'mykey\', __socket_group_name)\n    return data\n\n@service.xmlrpc\ndef executeSteps(data):\n    websocket_send(\'http://\' + __current_ip + \':\' + __socket_port, data, \'mykey\', __socket_group_name)\n    return data\nresponse._vars=response._caller(applet)\n'
p7
sS'snapshot'
p8
(dp9
S'exception'
p10
(dp11
S'__getslice__'
p12
S"<method-wrapper '__getslice__' of exceptions.IOError object>"
p13
sS'__str__'
p14
S"<method-wrapper '__str__' of exceptions.IOError object>"
p15
sS'__reduce__'
p16
S'<built-in method __reduce__ of exceptions.IOError object>'
p17
sS'__dict__'
p18
S'{}'
p19
sS'__sizeof__'
p20
S'<built-in method __sizeof__ of exceptions.IOError object>'
p21
sS'__init__'
p22
S"<method-wrapper '__init__' of exceptions.IOError object>"
p23
sS'__setattr__'
p24
S"<method-wrapper '__setattr__' of exceptions.IOError object>"
p25
sS'__reduce_ex__'
p26
S'<built-in method __reduce_ex__ of exceptions.IOError object>'
p27
sS'__new__'
p28
S'<built-in method __new__ of type object>'
p29
sS'errno'
p30
S'2'
sS'__format__'
p31
S'<built-in method __format__ of exceptions.IOError object>'
p32
sS'__class__'
p33
S"<type 'exceptions.IOError'>"
p34
sS'filename'
p35
S"'/Users/victorgirotto/Desktop/web2py-master/applications/CartesianPlane/static/geoapp.html'"
p36
sS'__doc__'
p37
S"'I/O operation failed.'"
p38
sS'__getitem__'
p39
S"<method-wrapper '__getitem__' of exceptions.IOError object>"
p40
sS'__setstate__'
p41
S'<built-in method __setstate__ of exceptions.IOError object>'
p42
sS'__getattribute__'
p43
S"<method-wrapper '__getattribute__' of exceptions.IOError object>"
p44
sS'args'
p45
S"(2, 'No such file or directory')"
p46
sS'__subclasshook__'
p47
S'<built-in method __subclasshook__ of type object>'
p48
sS'__unicode__'
p49
S'<built-in method __unicode__ of exceptions.IOError object>'
p50
sS'strerror'
p51
S"'No such file or directory'"
p52
sS'__delattr__'
p53
S"<method-wrapper '__delattr__' of exceptions.IOError object>"
p54
sS'__repr__'
p55
S"<method-wrapper '__repr__' of exceptions.IOError object>"
p56
sS'__hash__'
p57
S"<method-wrapper '__hash__' of exceptions.IOError object>"
p58
ssS'evalue'
p59
S"[Errno 2] No such file or directory: '/Users/victorgirotto/Desktop/web2py-master/applications/CartesianPlane/static/geoapp.html'"
p60
sS'request'
p61
ccopy_reg
_reconstructor
p62
(cgluon.html
BEAUTIFY
p63
c__builtin__
object
p64
NtRp65
(dp66
S'attributes'
p67
(dp68
sS'components'
p69
(lp70
g62
(cgluon.html
TABLE
p71
g64
NtRp72
(dp73
g67
(dp74
S'level'
p75
I5
ssS'parent'
p76
Nsg69
(lp77
g62
(cgluon.html
TR
p78
g64
NtRp79
(dp80
g67
(dp81
sg76
g72
sg69
(lp82
g62
(cgluon.html
TD
p83
g64
NtRp84
(dp85
g67
(dp86
S'_style'
p87
S'font-weight:bold;vertical-align:top'
p88
ssg76
g79
sg69
(lp89
S'ajax'
p90
asbag62
(g83
g64
NtRp91
(dp92
g67
(dp93
S'_valign'
p94
S'top'
p95
ssg76
g79
sg69
(lp96
S':'
asbag62
(g83
g64
NtRp97
(dp98
g67
(dp99
sg76
g79
sg69
(lp100
g62
(g63
g64
NtRp101
(dp102
g67
(dp103
g75
I5
ssg76
g97
sg69
(lp104
S'False'
p105
asbasbasbag62
(g78
g64
NtRp106
(dp107
g67
(dp108
sg76
g72
sg69
(lp109
g62
(g83
g64
NtRp110
(dp111
g67
(dp112
g87
g88
ssg76
g106
sg69
(lp113
S'application'
p114
asbag62
(g83
g64
NtRp115
(dp116
g67
(dp117
g94
g95
ssg76
g106
sg69
(lp118
S':'
asbag62
(g83
g64
NtRp119
(dp120
g67
(dp121
sg76
g106
sg69
(lp122
g62
(g63
g64
NtRp123
(dp124
g67
(dp125
g75
I5
ssg76
g119
sg69
(lp126
S'CartesianPlane'
p127
asbasbasbag62
(g78
g64
NtRp128
(dp129
g67
(dp130
sg76
g72
sg69
(lp131
g62
(g83
g64
NtRp132
(dp133
g67
(dp134
g87
g88
ssg76
g128
sg69
(lp135
g45
asbag62
(g83
g64
NtRp136
(dp137
g67
(dp138
g94
g95
ssg76
g128
sg69
(lp139
S':'
asbag62
(g83
g64
NtRp140
(dp141
g67
(dp142
sg76
g128
sg69
(lp143
g62
(g63
g64
NtRp144
(dp145
g67
(dp146
g75
I5
ssg76
g140
sg69
(lp147
g62
(g71
g64
NtRp148
(dp149
g67
(dp150
g75
I4
ssg76
Nsg69
(lp151
sbasbasbasbag62
(g78
g64
NtRp152
(dp153
g67
(dp154
sg76
g72
sg69
(lp155
g62
(g83
g64
NtRp156
(dp157
g67
(dp158
g87
g88
ssg76
g152
sg69
(lp159
S'body'
p160
asbag62
(g83
g64
NtRp161
(dp162
g67
(dp163
g94
g95
ssg76
g152
sg69
(lp164
S':'
asbag62
(g83
g64
NtRp165
(dp166
g67
(dp167
sg76
g152
sg69
(lp168
g62
(g63
g64
NtRp169
(dp170
g67
(dp171
g75
I5
ssg76
g165
sg69
(lp172
S'<cStringIO.StringO object at 0x10ef20688>'
p173
asbasbasbag62
(g78
g64
NtRp174
(dp175
g67
(dp176
sg76
g72
sg69
(lp177
g62
(g83
g64
NtRp178
(dp179
g67
(dp180
g87
g88
ssg76
g174
sg69
(lp181
S'cid'
p182
asbag62
(g83
g64
NtRp183
(dp184
g67
(dp185
g94
g95
ssg76
g174
sg69
(lp186
S':'
asbag62
(g83
g64
NtRp187
(dp188
g67
(dp189
sg76
g174
sg69
(lp190
g62
(g63
g64
NtRp191
(dp192
g67
(dp193
g75
I5
ssg76
g187
sg69
(lp194
S'None'
p195
asbasbasbag62
(g78
g64
NtRp196
(dp197
g67
(dp198
sg76
g72
sg69
(lp199
g62
(g83
g64
NtRp200
(dp201
g67
(dp202
g87
g88
ssg76
g196
sg69
(lp203
S'client'
p204
asbag62
(g83
g64
NtRp205
(dp206
g67
(dp207
g94
g95
ssg76
g196
sg69
(lp208
S':'
asbag62
(g83
g64
NtRp209
(dp210
g67
(dp211
sg76
g196
sg69
(lp212
g62
(g63
g64
NtRp213
(dp214
g67
(dp215
g75
I5
ssg76
g209
sg69
(lp216
S'127.0.0.1'
p217
asbasbasbag62
(g78
g64
NtRp218
(dp219
g67
(dp220
sg76
g72
sg69
(lp221
g62
(g83
g64
NtRp222
(dp223
g67
(dp224
g87
g88
ssg76
g218
sg69
(lp225
S'controller'
p226
asbag62
(g83
g64
NtRp227
(dp228
g67
(dp229
g94
g95
ssg76
g218
sg69
(lp230
S':'
asbag62
(g83
g64
NtRp231
(dp232
g67
(dp233
sg76
g218
sg69
(lp234
g62
(g63
g64
NtRp235
(dp236
g67
(dp237
g75
I5
ssg76
g231
sg69
(lp238
S'default'
p239
asbasbasbag62
(g78
g64
NtRp240
(dp241
g67
(dp242
sg76
g72
sg69
(lp243
g62
(g83
g64
NtRp244
(dp245
g67
(dp246
g87
g88
ssg76
g240
sg69
(lp247
S'cookies'
p248
asbag62
(g83
g64
NtRp249
(dp250
g67
(dp251
g94
g95
ssg76
g240
sg69
(lp252
S':'
asbag62
(g83
g64
NtRp253
(dp254
g67
(dp255
sg76
g240
sg69
(lp256
g62
(g63
g64
NtRp257
(dp258
g67
(dp259
g75
I5
ssg76
g253
sg69
(lp260
g62
(g71
g64
NtRp261
(dp262
g67
(dp263
g75
I4
ssg76
Nsg69
(lp264
g62
(g78
g64
NtRp265
(dp266
g67
(dp267
sg76
g261
sg69
(lp268
g62
(g83
g64
NtRp269
(dp270
g67
(dp271
g87
g88
ssg76
g265
sg69
(lp272
S'session_id_admin'
p273
asbag62
(g83
g64
NtRp274
(dp275
g67
(dp276
g94
g95
ssg76
g265
sg69
(lp277
S':'
asbag62
(g83
g64
NtRp278
(dp279
g67
(dp280
sg76
g265
sg69
(lp281
g62
(g63
g64
NtRp282
(dp283
g67
(dp284
g75
I4
ssg76
g278
sg69
(lp285
S'127.0.0.1-a7fdf2f3-ac80-4d35-8b63-06907936ff34'
p286
ag62
(g71
g64
NtRp287
(dp288
g67
(dp289
g75
I3
ssg76
Nsg69
(lp290
g62
(g78
g64
NtRp291
(dp292
g67
(dp293
sg76
g287
sg69
(lp294
g62
(g83
g64
NtRp295
(dp296
g67
(dp297
g87
g88
ssg76
g291
sg69
(lp298
S'comment'
p299
asbag62
(g83
g64
NtRp300
(dp301
g67
(dp302
g94
g95
ssg76
g291
sg69
(lp303
S':'
asbag62
(g83
g64
NtRp304
(dp305
g67
(dp306
sg76
g291
sg69
(lp307
g62
(g63
g64
NtRp308
(dp309
g67
(dp310
g75
I3
ssg76
g304
sg69
(lp311
S''
asbasbasbag62
(g78
g64
NtRp312
(dp313
g67
(dp314
sg76
g287
sg69
(lp315
g62
(g83
g64
NtRp316
(dp317
g67
(dp318
g87
g88
ssg76
g312
sg69
(lp319
S'domain'
p320
asbag62
(g83
g64
NtRp321
(dp322
g67
(dp323
g94
g95
ssg76
g312
sg69
(lp324
S':'
asbag62
(g83
g64
NtRp325
(dp326
g67
(dp327
sg76
g312
sg69
(lp328
g62
(g63
g64
NtRp329
(dp330
g67
(dp331
g75
I3
ssg76
g325
sg69
(lp332
S''
asbasbasbag62
(g78
g64
NtRp333
(dp334
g67
(dp335
sg76
g287
sg69
(lp336
g62
(g83
g64
NtRp337
(dp338
g67
(dp339
g87
g88
ssg76
g333
sg69
(lp340
S'expires'
p341
asbag62
(g83
g64
NtRp342
(dp343
g67
(dp344
g94
g95
ssg76
g333
sg69
(lp345
S':'
asbag62
(g83
g64
NtRp346
(dp347
g67
(dp348
sg76
g333
sg69
(lp349
g62
(g63
g64
NtRp350
(dp351
g67
(dp352
g75
I3
ssg76
g346
sg69
(lp353
S''
asbasbasbag62
(g78
g64
NtRp354
(dp355
g67
(dp356
sg76
g287
sg69
(lp357
g62
(g83
g64
NtRp358
(dp359
g67
(dp360
g87
g88
ssg76
g354
sg69
(lp361
S'httponly'
p362
asbag62
(g83
g64
NtRp363
(dp364
g67
(dp365
g94
g95
ssg76
g354
sg69
(lp366
S':'
asbag62
(g83
g64
NtRp367
(dp368
g67
(dp369
sg76
g354
sg69
(lp370
g62
(g63
g64
NtRp371
(dp372
g67
(dp373
g75
I3
ssg76
g367
sg69
(lp374
S''
asbasbasbag62
(g78
g64
NtRp375
(dp376
g67
(dp377
sg76
g287
sg69
(lp378
g62
(g83
g64
NtRp379
(dp380
g67
(dp381
g87
g88
ssg76
g375
sg69
(lp382
S'max-age'
p383
asbag62
(g83
g64
NtRp384
(dp385
g67
(dp386
g94
g95
ssg76
g375
sg69
(lp387
S':'
asbag62
(g83
g64
NtRp388
(dp389
g67
(dp390
sg76
g375
sg69
(lp391
g62
(g63
g64
NtRp392
(dp393
g67
(dp394
g75
I3
ssg76
g388
sg69
(lp395
S''
asbasbasbag62
(g78
g64
NtRp396
(dp397
g67
(dp398
sg76
g287
sg69
(lp399
g62
(g83
g64
NtRp400
(dp401
g67
(dp402
g87
g88
ssg76
g396
sg69
(lp403
S'path'
p404
asbag62
(g83
g64
NtRp405
(dp406
g67
(dp407
g94
g95
ssg76
g396
sg69
(lp408
S':'
asbag62
(g83
g64
NtRp409
(dp410
g67
(dp411
sg76
g396
sg69
(lp412
g62
(g63
g64
NtRp413
(dp414
g67
(dp415
g75
I3
ssg76
g409
sg69
(lp416
S''
asbasbasbag62
(g78
g64
NtRp417
(dp418
g67
(dp419
sg76
g287
sg69
(lp420
g62
(g83
g64
NtRp421
(dp422
g67
(dp423
g87
g88
ssg76
g417
sg69
(lp424
S'secure'
p425
asbag62
(g83
g64
NtRp426
(dp427
g67
(dp428
g94
g95
ssg76
g417
sg69
(lp429
S':'
asbag62
(g83
g64
NtRp430
(dp431
g67
(dp432
sg76
g417
sg69
(lp433
g62
(g63
g64
NtRp434
(dp435
g67
(dp436
g75
I3
ssg76
g430
sg69
(lp437
S''
asbasbasbag62
(g78
g64
NtRp438
(dp439
g67
(dp440
sg76
g287
sg69
(lp441
g62
(g83
g64
NtRp442
(dp443
g67
(dp444
g87
g88
ssg76
g438
sg69
(lp445
S'version'
p446
asbag62
(g83
g64
NtRp447
(dp448
g67
(dp449
g94
g95
ssg76
g438
sg69
(lp450
S':'
asbag62
(g83
g64
NtRp451
(dp452
g67
(dp453
sg76
g438
sg69
(lp454
g62
(g63
g64
NtRp455
(dp456
g67
(dp457
g75
I3
ssg76
g451
sg69
(lp458
S''
asbasbasbasbasbasbasbag62
(g78
g64
NtRp459
(dp460
g67
(dp461
sg76
g261
sg69
(lp462
g62
(g83
g64
NtRp463
(dp464
g67
(dp465
g87
g88
ssg76
g459
sg69
(lp466
S'session_id_cartesianplane'
p467
asbag62
(g83
g64
NtRp468
(dp469
g67
(dp470
g94
g95
ssg76
g459
sg69
(lp471
S':'
asbag62
(g83
g64
NtRp472
(dp473
g67
(dp474
sg76
g459
sg69
(lp475
g62
(g63
g64
NtRp476
(dp477
g67
(dp478
g75
I4
ssg76
g472
sg69
(lp479
S'127.0.0.1-992cdbcb-1606-456a-9718-5f1d21463d11'
p480
ag62
(g71
g64
NtRp481
(dp482
g67
(dp483
g75
I3
ssg76
Nsg69
(lp484
g62
(g78
g64
NtRp485
(dp486
g67
(dp487
sg76
g481
sg69
(lp488
g62
(g83
g64
NtRp489
(dp490
g67
(dp491
g87
g88
ssg76
g485
sg69
(lp492
g299
asbag62
(g83
g64
NtRp493
(dp494
g67
(dp495
g94
g95
ssg76
g485
sg69
(lp496
S':'
asbag62
(g83
g64
NtRp497
(dp498
g67
(dp499
sg76
g485
sg69
(lp500
g62
(g63
g64
NtRp501
(dp502
g67
(dp503
g75
I3
ssg76
g497
sg69
(lp504
S''
asbasbasbag62
(g78
g64
NtRp505
(dp506
g67
(dp507
sg76
g481
sg69
(lp508
g62
(g83
g64
NtRp509
(dp510
g67
(dp511
g87
g88
ssg76
g505
sg69
(lp512
g320
asbag62
(g83
g64
NtRp513
(dp514
g67
(dp515
g94
g95
ssg76
g505
sg69
(lp516
S':'
asbag62
(g83
g64
NtRp517
(dp518
g67
(dp519
sg76
g505
sg69
(lp520
g62
(g63
g64
NtRp521
(dp522
g67
(dp523
g75
I3
ssg76
g517
sg69
(lp524
S''
asbasbasbag62
(g78
g64
NtRp525
(dp526
g67
(dp527
sg76
g481
sg69
(lp528
g62
(g83
g64
NtRp529
(dp530
g67
(dp531
g87
g88
ssg76
g525
sg69
(lp532
g341
asbag62
(g83
g64
NtRp533
(dp534
g67
(dp535
g94
g95
ssg76
g525
sg69
(lp536
S':'
asbag62
(g83
g64
NtRp537
(dp538
g67
(dp539
sg76
g525
sg69
(lp540
g62
(g63
g64
NtRp541
(dp542
g67
(dp543
g75
I3
ssg76
g537
sg69
(lp544
S''
asbasbasbag62
(g78
g64
NtRp545
(dp546
g67
(dp547
sg76
g481
sg69
(lp548
g62
(g83
g64
NtRp549
(dp550
g67
(dp551
g87
g88
ssg76
g545
sg69
(lp552
g362
asbag62
(g83
g64
NtRp553
(dp554
g67
(dp555
g94
g95
ssg76
g545
sg69
(lp556
S':'
asbag62
(g83
g64
NtRp557
(dp558
g67
(dp559
sg76
g545
sg69
(lp560
g62
(g63
g64
NtRp561
(dp562
g67
(dp563
g75
I3
ssg76
g557
sg69
(lp564
S''
asbasbasbag62
(g78
g64
NtRp565
(dp566
g67
(dp567
sg76
g481
sg69
(lp568
g62
(g83
g64
NtRp569
(dp570
g67
(dp571
g87
g88
ssg76
g565
sg69
(lp572
g383
asbag62
(g83
g64
NtRp573
(dp574
g67
(dp575
g94
g95
ssg76
g565
sg69
(lp576
S':'
asbag62
(g83
g64
NtRp577
(dp578
g67
(dp579
sg76
g565
sg69
(lp580
g62
(g63
g64
NtRp581
(dp582
g67
(dp583
g75
I3
ssg76
g577
sg69
(lp584
S''
asbasbasbag62
(g78
g64
NtRp585
(dp586
g67
(dp587
sg76
g481
sg69
(lp588
g62
(g83
g64
NtRp589
(dp590
g67
(dp591
g87
g88
ssg76
g585
sg69
(lp592
g404
asbag62
(g83
g64
NtRp593
(dp594
g67
(dp595
g94
g95
ssg76
g585
sg69
(lp596
S':'
asbag62
(g83
g64
NtRp597
(dp598
g67
(dp599
sg76
g585
sg69
(lp600
g62
(g63
g64
NtRp601
(dp602
g67
(dp603
g75
I3
ssg76
g597
sg69
(lp604
S''
asbasbasbag62
(g78
g64
NtRp605
(dp606
g67
(dp607
sg76
g481
sg69
(lp608
g62
(g83
g64
NtRp609
(dp610
g67
(dp611
g87
g88
ssg76
g605
sg69
(lp612
g425
asbag62
(g83
g64
NtRp613
(dp614
g67
(dp615
g94
g95
ssg76
g605
sg69
(lp616
S':'
asbag62
(g83
g64
NtRp617
(dp618
g67
(dp619
sg76
g605
sg69
(lp620
g62
(g63
g64
NtRp621
(dp622
g67
(dp623
g75
I3
ssg76
g617
sg69
(lp624
S''
asbasbasbag62
(g78
g64
NtRp625
(dp626
g67
(dp627
sg76
g481
sg69
(lp628
g62
(g83
g64
NtRp629
(dp630
g67
(dp631
g87
g88
ssg76
g625
sg69
(lp632
g446
asbag62
(g83
g64
NtRp633
(dp634
g67
(dp635
g94
g95
ssg76
g625
sg69
(lp636
S':'
asbag62
(g83
g64
NtRp637
(dp638
g67
(dp639
sg76
g625
sg69
(lp640
g62
(g63
g64
NtRp641
(dp642
g67
(dp643
g75
I3
ssg76
g637
sg69
(lp644
S''
asbasbasbasbasbasbasbag62
(g78
g64
NtRp645
(dp646
g67
(dp647
sg76
g261
sg69
(lp648
g62
(g83
g64
NtRp649
(dp650
g67
(dp651
g87
g88
ssg76
g645
sg69
(lp652
S'session_id_geogebrainterface'
p653
asbag62
(g83
g64
NtRp654
(dp655
g67
(dp656
g94
g95
ssg76
g645
sg69
(lp657
S':'
asbag62
(g83
g64
NtRp658
(dp659
g67
(dp660
sg76
g645
sg69
(lp661
g62
(g63
g64
NtRp662
(dp663
g67
(dp664
g75
I4
ssg76
g658
sg69
(lp665
S'127.0.0.1-46d10ee9-e5d6-460d-b9ce-d929c702141a'
p666
ag62
(g71
g64
NtRp667
(dp668
g67
(dp669
g75
I3
ssg76
Nsg69
(lp670
g62
(g78
g64
NtRp671
(dp672
g67
(dp673
sg76
g667
sg69
(lp674
g62
(g83
g64
NtRp675
(dp676
g67
(dp677
g87
g88
ssg76
g671
sg69
(lp678
g299
asbag62
(g83
g64
NtRp679
(dp680
g67
(dp681
g94
g95
ssg76
g671
sg69
(lp682
S':'
asbag62
(g83
g64
NtRp683
(dp684
g67
(dp685
sg76
g671
sg69
(lp686
g62
(g63
g64
NtRp687
(dp688
g67
(dp689
g75
I3
ssg76
g683
sg69
(lp690
S''
asbasbasbag62
(g78
g64
NtRp691
(dp692
g67
(dp693
sg76
g667
sg69
(lp694
g62
(g83
g64
NtRp695
(dp696
g67
(dp697
g87
g88
ssg76
g691
sg69
(lp698
g320
asbag62
(g83
g64
NtRp699
(dp700
g67
(dp701
g94
g95
ssg76
g691
sg69
(lp702
S':'
asbag62
(g83
g64
NtRp703
(dp704
g67
(dp705
sg76
g691
sg69
(lp706
g62
(g63
g64
NtRp707
(dp708
g67
(dp709
g75
I3
ssg76
g703
sg69
(lp710
S''
asbasbasbag62
(g78
g64
NtRp711
(dp712
g67
(dp713
sg76
g667
sg69
(lp714
g62
(g83
g64
NtRp715
(dp716
g67
(dp717
g87
g88
ssg76
g711
sg69
(lp718
g341
asbag62
(g83
g64
NtRp719
(dp720
g67
(dp721
g94
g95
ssg76
g711
sg69
(lp722
S':'
asbag62
(g83
g64
NtRp723
(dp724
g67
(dp725
sg76
g711
sg69
(lp726
g62
(g63
g64
NtRp727
(dp728
g67
(dp729
g75
I3
ssg76
g723
sg69
(lp730
S''
asbasbasbag62
(g78
g64
NtRp731
(dp732
g67
(dp733
sg76
g667
sg69
(lp734
g62
(g83
g64
NtRp735
(dp736
g67
(dp737
g87
g88
ssg76
g731
sg69
(lp738
g362
asbag62
(g83
g64
NtRp739
(dp740
g67
(dp741
g94
g95
ssg76
g731
sg69
(lp742
S':'
asbag62
(g83
g64
NtRp743
(dp744
g67
(dp745
sg76
g731
sg69
(lp746
g62
(g63
g64
NtRp747
(dp748
g67
(dp749
g75
I3
ssg76
g743
sg69
(lp750
S''
asbasbasbag62
(g78
g64
NtRp751
(dp752
g67
(dp753
sg76
g667
sg69
(lp754
g62
(g83
g64
NtRp755
(dp756
g67
(dp757
g87
g88
ssg76
g751
sg69
(lp758
g383
asbag62
(g83
g64
NtRp759
(dp760
g67
(dp761
g94
g95
ssg76
g751
sg69
(lp762
S':'
asbag62
(g83
g64
NtRp763
(dp764
g67
(dp765
sg76
g751
sg69
(lp766
g62
(g63
g64
NtRp767
(dp768
g67
(dp769
g75
I3
ssg76
g763
sg69
(lp770
S''
asbasbasbag62
(g78
g64
NtRp771
(dp772
g67
(dp773
sg76
g667
sg69
(lp774
g62
(g83
g64
NtRp775
(dp776
g67
(dp777
g87
g88
ssg76
g771
sg69
(lp778
g404
asbag62
(g83
g64
NtRp779
(dp780
g67
(dp781
g94
g95
ssg76
g771
sg69
(lp782
S':'
asbag62
(g83
g64
NtRp783
(dp784
g67
(dp785
sg76
g771
sg69
(lp786
g62
(g63
g64
NtRp787
(dp788
g67
(dp789
g75
I3
ssg76
g783
sg69
(lp790
S''
asbasbasbag62
(g78
g64
NtRp791
(dp792
g67
(dp793
sg76
g667
sg69
(lp794
g62
(g83
g64
NtRp795
(dp796
g67
(dp797
g87
g88
ssg76
g791
sg69
(lp798
g425
asbag62
(g83
g64
NtRp799
(dp800
g67
(dp801
g94
g95
ssg76
g791
sg69
(lp802
S':'
asbag62
(g83
g64
NtRp803
(dp804
g67
(dp805
sg76
g791
sg69
(lp806
g62
(g63
g64
NtRp807
(dp808
g67
(dp809
g75
I3
ssg76
g803
sg69
(lp810
S''
asbasbasbag62
(g78
g64
NtRp811
(dp812
g67
(dp813
sg76
g667
sg69
(lp814
g62
(g83
g64
NtRp815
(dp816
g67
(dp817
g87
g88
ssg76
g811
sg69
(lp818
g446
asbag62
(g83
g64
NtRp819
(dp820
g67
(dp821
g94
g95
ssg76
g811
sg69
(lp822
S':'
asbag62
(g83
g64
NtRp823
(dp824
g67
(dp825
sg76
g811
sg69
(lp826
g62
(g63
g64
NtRp827
(dp828
g67
(dp829
g75
I3
ssg76
g823
sg69
(lp830
S''
asbasbasbasbasbasbasbag62
(g78
g64
NtRp831
(dp832
g67
(dp833
sg76
g261
sg69
(lp834
g62
(g83
g64
NtRp835
(dp836
g67
(dp837
g87
g88
ssg76
g831
sg69
(lp838
S'session_id_mobileinterface'
p839
asbag62
(g83
g64
NtRp840
(dp841
g67
(dp842
g94
g95
ssg76
g831
sg69
(lp843
S':'
asbag62
(g83
g64
NtRp844
(dp845
g67
(dp846
sg76
g831
sg69
(lp847
g62
(g63
g64
NtRp848
(dp849
g67
(dp850
g75
I4
ssg76
g844
sg69
(lp851
S'127.0.0.1-429e0887-8cde-4c72-a39b-ab60f8ccb9f8'
p852
ag62
(g71
g64
NtRp853
(dp854
g67
(dp855
g75
I3
ssg76
Nsg69
(lp856
g62
(g78
g64
NtRp857
(dp858
g67
(dp859
sg76
g853
sg69
(lp860
g62
(g83
g64
NtRp861
(dp862
g67
(dp863
g87
g88
ssg76
g857
sg69
(lp864
g299
asbag62
(g83
g64
NtRp865
(dp866
g67
(dp867
g94
g95
ssg76
g857
sg69
(lp868
S':'
asbag62
(g83
g64
NtRp869
(dp870
g67
(dp871
sg76
g857
sg69
(lp872
g62
(g63
g64
NtRp873
(dp874
g67
(dp875
g75
I3
ssg76
g869
sg69
(lp876
S''
asbasbasbag62
(g78
g64
NtRp877
(dp878
g67
(dp879
sg76
g853
sg69
(lp880
g62
(g83
g64
NtRp881
(dp882
g67
(dp883
g87
g88
ssg76
g877
sg69
(lp884
g320
asbag62
(g83
g64
NtRp885
(dp886
g67
(dp887
g94
g95
ssg76
g877
sg69
(lp888
S':'
asbag62
(g83
g64
NtRp889
(dp890
g67
(dp891
sg76
g877
sg69
(lp892
g62
(g63
g64
NtRp893
(dp894
g67
(dp895
g75
I3
ssg76
g889
sg69
(lp896
S''
asbasbasbag62
(g78
g64
NtRp897
(dp898
g67
(dp899
sg76
g853
sg69
(lp900
g62
(g83
g64
NtRp901
(dp902
g67
(dp903
g87
g88
ssg76
g897
sg69
(lp904
g341
asbag62
(g83
g64
NtRp905
(dp906
g67
(dp907
g94
g95
ssg76
g897
sg69
(lp908
S':'
asbag62
(g83
g64
NtRp909
(dp910
g67
(dp911
sg76
g897
sg69
(lp912
g62
(g63
g64
NtRp913
(dp914
g67
(dp915
g75
I3
ssg76
g909
sg69
(lp916
S''
asbasbasbag62
(g78
g64
NtRp917
(dp918
g67
(dp919
sg76
g853
sg69
(lp920
g62
(g83
g64
NtRp921
(dp922
g67
(dp923
g87
g88
ssg76
g917
sg69
(lp924
g362
asbag62
(g83
g64
NtRp925
(dp926
g67
(dp927
g94
g95
ssg76
g917
sg69
(lp928
S':'
asbag62
(g83
g64
NtRp929
(dp930
g67
(dp931
sg76
g917
sg69
(lp932
g62
(g63
g64
NtRp933
(dp934
g67
(dp935
g75
I3
ssg76
g929
sg69
(lp936
S''
asbasbasbag62
(g78
g64
NtRp937
(dp938
g67
(dp939
sg76
g853
sg69
(lp940
g62
(g83
g64
NtRp941
(dp942
g67
(dp943
g87
g88
ssg76
g937
sg69
(lp944
g383
asbag62
(g83
g64
NtRp945
(dp946
g67
(dp947
g94
g95
ssg76
g937
sg69
(lp948
S':'
asbag62
(g83
g64
NtRp949
(dp950
g67
(dp951
sg76
g937
sg69
(lp952
g62
(g63
g64
NtRp953
(dp954
g67
(dp955
g75
I3
ssg76
g949
sg69
(lp956
S''
asbasbasbag62
(g78
g64
NtRp957
(dp958
g67
(dp959
sg76
g853
sg69
(lp960
g62
(g83
g64
NtRp961
(dp962
g67
(dp963
g87
g88
ssg76
g957
sg69
(lp964
g404
asbag62
(g83
g64
NtRp965
(dp966
g67
(dp967
g94
g95
ssg76
g957
sg69
(lp968
S':'
asbag62
(g83
g64
NtRp969
(dp970
g67
(dp971
sg76
g957
sg69
(lp972
g62
(g63
g64
NtRp973
(dp974
g67
(dp975
g75
I3
ssg76
g969
sg69
(lp976
S''
asbasbasbag62
(g78
g64
NtRp977
(dp978
g67
(dp979
sg76
g853
sg69
(lp980
g62
(g83
g64
NtRp981
(dp982
g67
(dp983
g87
g88
ssg76
g977
sg69
(lp984
g425
asbag62
(g83
g64
NtRp985
(dp986
g67
(dp987
g94
g95
ssg76
g977
sg69
(lp988
S':'
asbag62
(g83
g64
NtRp989
(dp990
g67
(dp991
sg76
g977
sg69
(lp992
g62
(g63
g64
NtRp993
(dp994
g67
(dp995
g75
I3
ssg76
g989
sg69
(lp996
S''
asbasbasbag62
(g78
g64
NtRp997
(dp998
g67
(dp999
sg76
g853
sg69
(lp1000
g62
(g83
g64
NtRp1001
(dp1002
g67
(dp1003
g87
g88
ssg76
g997
sg69
(lp1004
g446
asbag62
(g83
g64
NtRp1005
(dp1006
g67
(dp1007
g94
g95
ssg76
g997
sg69
(lp1008
S':'
asbag62
(g83
g64
NtRp1009
(dp1010
g67
(dp1011
sg76
g997
sg69
(lp1012
g62
(g63
g64
NtRp1013
(dp1014
g67
(dp1015
g75
I3
ssg76
g1009
sg69
(lp1016
S''
asbasbasbasbasbasbasbag62
(g78
g64
NtRp1017
(dp1018
g67
(dp1019
sg76
g261
sg69
(lp1020
g62
(g83
g64
NtRp1021
(dp1022
g67
(dp1023
g87
g88
ssg76
g1017
sg69
(lp1024
S'session_id_welcome'
p1025
asbag62
(g83
g64
NtRp1026
(dp1027
g67
(dp1028
g94
g95
ssg76
g1017
sg69
(lp1029
S':'
asbag62
(g83
g64
NtRp1030
(dp1031
g67
(dp1032
sg76
g1017
sg69
(lp1033
g62
(g63
g64
NtRp1034
(dp1035
g67
(dp1036
g75
I4
ssg76
g1030
sg69
(lp1037
S'127.0.0.1-406c2727-b8ee-4551-a6bf-871ff0a38423'
p1038
ag62
(g71
g64
NtRp1039
(dp1040
g67
(dp1041
g75
I3
ssg76
Nsg69
(lp1042
g62
(g78
g64
NtRp1043
(dp1044
g67
(dp1045
sg76
g1039
sg69
(lp1046
g62
(g83
g64
NtRp1047
(dp1048
g67
(dp1049
g87
g88
ssg76
g1043
sg69
(lp1050
g299
asbag62
(g83
g64
NtRp1051
(dp1052
g67
(dp1053
g94
g95
ssg76
g1043
sg69
(lp1054
S':'
asbag62
(g83
g64
NtRp1055
(dp1056
g67
(dp1057
sg76
g1043
sg69
(lp1058
g62
(g63
g64
NtRp1059
(dp1060
g67
(dp1061
g75
I3
ssg76
g1055
sg69
(lp1062
S''
asbasbasbag62
(g78
g64
NtRp1063
(dp1064
g67
(dp1065
sg76
g1039
sg69
(lp1066
g62
(g83
g64
NtRp1067
(dp1068
g67
(dp1069
g87
g88
ssg76
g1063
sg69
(lp1070
g320
asbag62
(g83
g64
NtRp1071
(dp1072
g67
(dp1073
g94
g95
ssg76
g1063
sg69
(lp1074
S':'
asbag62
(g83
g64
NtRp1075
(dp1076
g67
(dp1077
sg76
g1063
sg69
(lp1078
g62
(g63
g64
NtRp1079
(dp1080
g67
(dp1081
g75
I3
ssg76
g1075
sg69
(lp1082
S''
asbasbasbag62
(g78
g64
NtRp1083
(dp1084
g67
(dp1085
sg76
g1039
sg69
(lp1086
g62
(g83
g64
NtRp1087
(dp1088
g67
(dp1089
g87
g88
ssg76
g1083
sg69
(lp1090
g341
asbag62
(g83
g64
NtRp1091
(dp1092
g67
(dp1093
g94
g95
ssg76
g1083
sg69
(lp1094
S':'
asbag62
(g83
g64
NtRp1095
(dp1096
g67
(dp1097
sg76
g1083
sg69
(lp1098
g62
(g63
g64
NtRp1099
(dp1100
g67
(dp1101
g75
I3
ssg76
g1095
sg69
(lp1102
S''
asbasbasbag62
(g78
g64
NtRp1103
(dp1104
g67
(dp1105
sg76
g1039
sg69
(lp1106
g62
(g83
g64
NtRp1107
(dp1108
g67
(dp1109
g87
g88
ssg76
g1103
sg69
(lp1110
g362
asbag62
(g83
g64
NtRp1111
(dp1112
g67
(dp1113
g94
g95
ssg76
g1103
sg69
(lp1114
S':'
asbag62
(g83
g64
NtRp1115
(dp1116
g67
(dp1117
sg76
g1103
sg69
(lp1118
g62
(g63
g64
NtRp1119
(dp1120
g67
(dp1121
g75
I3
ssg76
g1115
sg69
(lp1122
S''
asbasbasbag62
(g78
g64
NtRp1123
(dp1124
g67
(dp1125
sg76
g1039
sg69
(lp1126
g62
(g83
g64
NtRp1127
(dp1128
g67
(dp1129
g87
g88
ssg76
g1123
sg69
(lp1130
g383
asbag62
(g83
g64
NtRp1131
(dp1132
g67
(dp1133
g94
g95
ssg76
g1123
sg69
(lp1134
S':'
asbag62
(g83
g64
NtRp1135
(dp1136
g67
(dp1137
sg76
g1123
sg69
(lp1138
g62
(g63
g64
NtRp1139
(dp1140
g67
(dp1141
g75
I3
ssg76
g1135
sg69
(lp1142
S''
asbasbasbag62
(g78
g64
NtRp1143
(dp1144
g67
(dp1145
sg76
g1039
sg69
(lp1146
g62
(g83
g64
NtRp1147
(dp1148
g67
(dp1149
g87
g88
ssg76
g1143
sg69
(lp1150
g404
asbag62
(g83
g64
NtRp1151
(dp1152
g67
(dp1153
g94
g95
ssg76
g1143
sg69
(lp1154
S':'
asbag62
(g83
g64
NtRp1155
(dp1156
g67
(dp1157
sg76
g1143
sg69
(lp1158
g62
(g63
g64
NtRp1159
(dp1160
g67
(dp1161
g75
I3
ssg76
g1155
sg69
(lp1162
S''
asbasbasbag62
(g78
g64
NtRp1163
(dp1164
g67
(dp1165
sg76
g1039
sg69
(lp1166
g62
(g83
g64
NtRp1167
(dp1168
g67
(dp1169
g87
g88
ssg76
g1163
sg69
(lp1170
g425
asbag62
(g83
g64
NtRp1171
(dp1172
g67
(dp1173
g94
g95
ssg76
g1163
sg69
(lp1174
S':'
asbag62
(g83
g64
NtRp1175
(dp1176
g67
(dp1177
sg76
g1163
sg69
(lp1178
g62
(g63
g64
NtRp1179
(dp1180
g67
(dp1181
g75
I3
ssg76
g1175
sg69
(lp1182
S''
asbasbasbag62
(g78
g64
NtRp1183
(dp1184
g67
(dp1185
sg76
g1039
sg69
(lp1186
g62
(g83
g64
NtRp1187
(dp1188
g67
(dp1189
g87
g88
ssg76
g1183
sg69
(lp1190
g446
asbag62
(g83
g64
NtRp1191
(dp1192
g67
(dp1193
g94
g95
ssg76
g1183
sg69
(lp1194
S':'
asbag62
(g83
g64
NtRp1195
(dp1196
g67
(dp1197
sg76
g1183
sg69
(lp1198
g62
(g63
g64
NtRp1199
(dp1200
g67
(dp1201
g75
I3
ssg76
g1195
sg69
(lp1202
S''
asbasbasbasbasbasbasbasbasbasbasbag62
(g78
g64
NtRp1203
(dp1204
g67
(dp1205
sg76
g72
sg69
(lp1206
g62
(g83
g64
NtRp1207
(dp1208
g67
(dp1209
g87
g88
ssg76
g1203
sg69
(lp1210
S'env'
p1211
asbag62
(g83
g64
NtRp1212
(dp1213
g67
(dp1214
g94
g95
ssg76
g1203
sg69
(lp1215
S':'
asbag62
(g83
g64
NtRp1216
(dp1217
g67
(dp1218
sg76
g1203
sg69
(lp1219
g62
(g63
g64
NtRp1220
(dp1221
g67
(dp1222
g75
I5
ssg76
g1216
sg69
(lp1223
g62
(g71
g64
NtRp1224
(dp1225
g67
(dp1226
g75
I4
ssg76
Nsg69
(lp1227
g62
(g78
g64
NtRp1228
(dp1229
g67
(dp1230
sg76
g1224
sg69
(lp1231
g62
(g83
g64
NtRp1232
(dp1233
g67
(dp1234
g87
g88
ssg76
g1228
sg69
(lp1235
S'app_folders'
p1236
asbag62
(g83
g64
NtRp1237
(dp1238
g67
(dp1239
g94
g95
ssg76
g1228
sg69
(lp1240
S':'
asbag62
(g83
g64
NtRp1241
(dp1242
g67
(dp1243
sg76
g1228
sg69
(lp1244
g62
(g63
g64
NtRp1245
(dp1246
g67
(dp1247
g75
I4
ssg76
g1241
sg69
(lp1248
S"set(['/Users/victorgirotto/Desktop/web2py-master/applications/MobileInterface/', '/Users/victorgirotto/Desktop/web2py-master/applications/welcome/', '/Users/victorgirotto/Desktop/web2py-master/applications/CartesianPlane/', '/Users/victorgirotto/Desktop/web2py-master/applications/GeogebraInterface/', '/Users/victorgirotto/Desktop/web2py-master/applications/admin/'])"
p1249
asbasbasbag62
(g78
g64
NtRp1250
(dp1251
g67
(dp1252
sg76
g1224
sg69
(lp1253
g62
(g83
g64
NtRp1254
(dp1255
g67
(dp1256
g87
g88
ssg76
g1250
sg69
(lp1257
S'applications_parent'
p1258
asbag62
(g83
g64
NtRp1259
(dp1260
g67
(dp1261
g94
g95
ssg76
g1250
sg69
(lp1262
S':'
asbag62
(g83
g64
NtRp1263
(dp1264
g67
(dp1265
sg76
g1250
sg69
(lp1266
g62
(g63
g64
NtRp1267
(dp1268
g67
(dp1269
g75
I4
ssg76
g1263
sg69
(lp1270
S'/Users/victorgirotto/Desktop/web2py-master'
p1271
asbasbasbag62
(g78
g64
NtRp1272
(dp1273
g67
(dp1274
sg76
g1224
sg69
(lp1275
g62
(g83
g64
NtRp1276
(dp1277
g67
(dp1278
g87
g88
ssg76
g1272
sg69
(lp1279
S'cmd_args'
p1280
asbag62
(g83
g64
NtRp1281
(dp1282
g67
(dp1283
g94
g95
ssg76
g1272
sg69
(lp1284
S':'
asbag62
(g83
g64
NtRp1285
(dp1286
g67
(dp1287
sg76
g1272
sg69
(lp1288
g62
(g63
g64
NtRp1289
(dp1290
g67
(dp1291
g75
I4
ssg76
g1285
sg69
(lp1292
g62
(g71
g64
NtRp1293
(dp1294
g67
(dp1295
g75
I3
ssg76
Nsg69
(lp1296
sbasbasbasbag62
(g78
g64
NtRp1297
(dp1298
g67
(dp1299
sg76
g1224
sg69
(lp1300
g62
(g83
g64
NtRp1301
(dp1302
g67
(dp1303
g87
g88
ssg76
g1297
sg69
(lp1304
S'cmd_options'
p1305
asbag62
(g83
g64
NtRp1306
(dp1307
g67
(dp1308
g94
g95
ssg76
g1297
sg69
(lp1309
S':'
asbag62
(g83
g64
NtRp1310
(dp1311
g67
(dp1312
sg76
g1297
sg69
(lp1313
g62
(g63
g64
NtRp1314
(dp1315
g67
(dp1316
g75
I4
ssg76
g1310
sg69
(lp1317
S"<Values at 0x10705ccb0: {'verbose': False, 'ip': '127.0.0.1', 'with_scheduler': False, 'ips': ['10.211.55.2', '10.37.129.2', '10.142.224.219'], 'shutdown_timeout': 5, 'taskbar': False, 'port': 8000, 'maxthreads': None, 'softcron': False, 'server_name': 'MacBook-Pro-de-Victor.local', 'bpython': False, 'nogui': False, 'pid_filename': 'httpserver.pid', 'extcron': False, 'runcron': False, 'run_system_tests': False, 'test': None, 'folder': '/Users/victorgirotto/Desktop/web2py-master', 'config': '', 'minthreads': None, 'winservice': '', 'shell': None, 'run': '', 'log_filename': 'httpserver.log', 'debuglevel': 30, 'args': [''], 'socket_timeout': 5, 'ssl_ca_certificate': None, 'scheduler': None, 'profiler_filename': None, 'ssl_private_key': '', 'scheduler_groups': None, 'password': '<ask>', 'request_queue_size': 5, 'ssl_certificate': '', 'cronjob': False, 'numthreads': None, 'quiet': False, 'interfaces': None, 'import_models': False, 'timeout': 10, 'plain': False, 'nobanner': False}>"
p1318
asbasbasbag62
(g78
g64
NtRp1319
(dp1320
g67
(dp1321
sg76
g1224
sg69
(lp1322
g62
(g83
g64
NtRp1323
(dp1324
g67
(dp1325
g87
g88
ssg76
g1319
sg69
(lp1326
S'db_sessions'
p1327
asbag62
(g83
g64
NtRp1328
(dp1329
g67
(dp1330
g94
g95
ssg76
g1319
sg69
(lp1331
S':'
asbag62
(g83
g64
NtRp1332
(dp1333
g67
(dp1334
sg76
g1319
sg69
(lp1335
g62
(g63
g64
NtRp1336
(dp1337
g67
(dp1338
g75
I4
ssg76
g1332
sg69
(lp1339
S'set([])'
p1340
asbasbasbag62
(g78
g64
NtRp1341
(dp1342
g67
(dp1343
sg76
g1224
sg69
(lp1344
g62
(g83
g64
NtRp1345
(dp1346
g67
(dp1347
g87
g88
ssg76
g1341
sg69
(lp1348
S'debugging'
p1349
asbag62
(g83
g64
NtRp1350
(dp1351
g67
(dp1352
g94
g95
ssg76
g1341
sg69
(lp1353
S':'
asbag62
(g83
g64
NtRp1354
(dp1355
g67
(dp1356
sg76
g1341
sg69
(lp1357
g62
(g63
g64
NtRp1358
(dp1359
g67
(dp1360
g75
I4
ssg76
g1354
sg69
(lp1361
g105
asbasbasbag62
(g78
g64
NtRp1362
(dp1363
g67
(dp1364
sg76
g1224
sg69
(lp1365
g62
(g83
g64
NtRp1366
(dp1367
g67
(dp1368
g87
g88
ssg76
g1362
sg69
(lp1369
S'gluon_parent'
p1370
asbag62
(g83
g64
NtRp1371
(dp1372
g67
(dp1373
g94
g95
ssg76
g1362
sg69
(lp1374
S':'
asbag62
(g83
g64
NtRp1375
(dp1376
g67
(dp1377
sg76
g1362
sg69
(lp1378
g62
(g63
g64
NtRp1379
(dp1380
g67
(dp1381
g75
I4
ssg76
g1375
sg69
(lp1382
S'/Users/victorgirotto/Desktop/web2py-master'
p1383
asbasbasbag62
(g78
g64
NtRp1384
(dp1385
g67
(dp1386
sg76
g1224
sg69
(lp1387
g62
(g83
g64
NtRp1388
(dp1389
g67
(dp1390
g87
g88
ssg76
g1384
sg69
(lp1391
S'http_accept'
p1392
asbag62
(g83
g64
NtRp1393
(dp1394
g67
(dp1395
g94
g95
ssg76
g1384
sg69
(lp1396
S':'
asbag62
(g83
g64
NtRp1397
(dp1398
g67
(dp1399
sg76
g1384
sg69
(lp1400
g62
(g63
g64
NtRp1401
(dp1402
g67
(dp1403
g75
I4
ssg76
g1397
sg69
(lp1404
S'text/html,application/xhtml+xml,application/xml;q=0.9,*/*;q=0.8'
p1405
asbasbasbag62
(g78
g64
NtRp1406
(dp1407
g67
(dp1408
sg76
g1224
sg69
(lp1409
g62
(g83
g64
NtRp1410
(dp1411
g67
(dp1412
g87
g88
ssg76
g1406
sg69
(lp1413
S'http_accept_encoding'
p1414
asbag62
(g83
g64
NtRp1415
(dp1416
g67
(dp1417
g94
g95
ssg76
g1406
sg69
(lp1418
S':'
asbag62
(g83
g64
NtRp1419
(dp1420
g67
(dp1421
sg76
g1406
sg69
(lp1422
g62
(g63
g64
NtRp1423
(dp1424
g67
(dp1425
g75
I4
ssg76
g1419
sg69
(lp1426
S'gzip, deflate'
p1427
asbasbasbag62
(g78
g64
NtRp1428
(dp1429
g67
(dp1430
sg76
g1224
sg69
(lp1431
g62
(g83
g64
NtRp1432
(dp1433
g67
(dp1434
g87
g88
ssg76
g1428
sg69
(lp1435
S'http_accept_language'
p1436
asbag62
(g83
g64
NtRp1437
(dp1438
g67
(dp1439
g94
g95
ssg76
g1428
sg69
(lp1440
S':'
asbag62
(g83
g64
NtRp1441
(dp1442
g67
(dp1443
sg76
g1428
sg69
(lp1444
g62
(g63
g64
NtRp1445
(dp1446
g67
(dp1447
g75
I4
ssg76
g1441
sg69
(lp1448
S'pt-br'
p1449
asbasbasbag62
(g78
g64
NtRp1450
(dp1451
g67
(dp1452
sg76
g1224
sg69
(lp1453
g62
(g83
g64
NtRp1454
(dp1455
g67
(dp1456
g87
g88
ssg76
g1450
sg69
(lp1457
S'http_connection'
p1458
asbag62
(g83
g64
NtRp1459
(dp1460
g67
(dp1461
g94
g95
ssg76
g1450
sg69
(lp1462
S':'
asbag62
(g83
g64
NtRp1463
(dp1464
g67
(dp1465
sg76
g1450
sg69
(lp1466
g62
(g63
g64
NtRp1467
(dp1468
g67
(dp1469
g75
I4
ssg76
g1463
sg69
(lp1470
S'keep-alive'
p1471
asbasbasbag62
(g78
g64
NtRp1472
(dp1473
g67
(dp1474
sg76
g1224
sg69
(lp1475
g62
(g83
g64
NtRp1476
(dp1477
g67
(dp1478
g87
g88
ssg76
g1472
sg69
(lp1479
S'http_cookie'
p1480
asbag62
(g83
g64
NtRp1481
(dp1482
g67
(dp1483
g94
g95
ssg76
g1472
sg69
(lp1484
S':'
asbag62
(g83
g64
NtRp1485
(dp1486
g67
(dp1487
sg76
g1472
sg69
(lp1488
g62
(g63
g64
NtRp1489
(dp1490
g67
(dp1491
g75
I4
ssg76
g1485
sg69
(lp1492
S'session_id_cartesianplane=127.0.0.1-992cdbcb-1606-456a-9718-5f1d21463d11; session_id_admin=127.0.0.1-a7fdf2f3-ac80-4d35-8b63-06907936ff34; session_id_mobileinterface=127.0.0.1-429e0887-8cde-4c72-a39b-ab60f8ccb9f8; session_id_welcome=127.0.0.1-406c2727-b8ee-4551-a6bf-871ff0a38423; session_id_geogebrainterface=127.0.0.1-46d10ee9-e5d6-460d-b9ce-d929c702141a'
p1493
asbasbasbag62
(g78
g64
NtRp1494
(dp1495
g67
(dp1496
sg76
g1224
sg69
(lp1497
g62
(g83
g64
NtRp1498
(dp1499
g67
(dp1500
g87
g88
ssg76
g1494
sg69
(lp1501
S'http_host'
p1502
asbag62
(g83
g64
NtRp1503
(dp1504
g67
(dp1505
g94
g95
ssg76
g1494
sg69
(lp1506
S':'
asbag62
(g83
g64
NtRp1507
(dp1508
g67
(dp1509
sg76
g1494
sg69
(lp1510
g62
(g63
g64
NtRp1511
(dp1512
g67
(dp1513
g75
I4
ssg76
g1507
sg69
(lp1514
S'localhost:8000'
p1515
asbasbasbag62
(g78
g64
NtRp1516
(dp1517
g67
(dp1518
sg76
g1224
sg69
(lp1519
g62
(g83
g64
NtRp1520
(dp1521
g67
(dp1522
g87
g88
ssg76
g1516
sg69
(lp1523
S'http_user_agent'
p1524
asbag62
(g83
g64
NtRp1525
(dp1526
g67
(dp1527
g94
g95
ssg76
g1516
sg69
(lp1528
S':'
asbag62
(g83
g64
NtRp1529
(dp1530
g67
(dp1531
sg76
g1516
sg69
(lp1532
g62
(g63
g64
NtRp1533
(dp1534
g67
(dp1535
g75
I4
ssg76
g1529
sg69
(lp1536
S'Mozilla/5.0 (Macintosh; Intel Mac OS X 10_8_2) AppleWebKit/536.26.17 (KHTML, like Gecko) Version/6.0.2 Safari/536.26.17'
p1537
asbasbasbag62
(g78
g64
NtRp1538
(dp1539
g67
(dp1540
sg76
g1224
sg69
(lp1541
g62
(g83
g64
NtRp1542
(dp1543
g67
(dp1544
g87
g88
ssg76
g1538
sg69
(lp1545
S'is_jython'
p1546
asbag62
(g83
g64
NtRp1547
(dp1548
g67
(dp1549
g94
g95
ssg76
g1538
sg69
(lp1550
S':'
asbag62
(g83
g64
NtRp1551
(dp1552
g67
(dp1553
sg76
g1538
sg69
(lp1554
g62
(g63
g64
NtRp1555
(dp1556
g67
(dp1557
g75
I4
ssg76
g1551
sg69
(lp1558
g105
asbasbasbag62
(g78
g64
NtRp1559
(dp1560
g67
(dp1561
sg76
g1224
sg69
(lp1562
g62
(g83
g64
NtRp1563
(dp1564
g67
(dp1565
g87
g88
ssg76
g1559
sg69
(lp1566
S'is_pypy'
p1567
asbag62
(g83
g64
NtRp1568
(dp1569
g67
(dp1570
g94
g95
ssg76
g1559
sg69
(lp1571
S':'
asbag62
(g83
g64
NtRp1572
(dp1573
g67
(dp1574
sg76
g1559
sg69
(lp1575
g62
(g63
g64
NtRp1576
(dp1577
g67
(dp1578
g75
I4
ssg76
g1572
sg69
(lp1579
g105
asbasbasbag62
(g78
g64
NtRp1580
(dp1581
g67
(dp1582
sg76
g1224
sg69
(lp1583
g62
(g83
g64
NtRp1584
(dp1585
g67
(dp1586
g87
g88
ssg76
g1580
sg69
(lp1587
S'local_hosts'
p1588
asbag62
(g83
g64
NtRp1589
(dp1590
g67
(dp1591
g94
g95
ssg76
g1580
sg69
(lp1592
S':'
asbag62
(g83
g64
NtRp1593
(dp1594
g67
(dp1595
sg76
g1580
sg69
(lp1596
g62
(g63
g64
NtRp1597
(dp1598
g67
(dp1599
g75
I4
ssg76
g1593
sg69
(lp1600
g62
(g71
g64
NtRp1601
(dp1602
g67
(dp1603
g75
I3
ssg76
Nsg69
(lp1604
g62
(g78
g64
NtRp1605
(dp1606
g67
(dp1607
sg76
g1601
sg69
(lp1608
g62
(g83
g64
NtRp1609
(dp1610
g67
(dp1611
sg76
g1605
sg69
(lp1612
g62
(g63
g64
NtRp1613
(dp1614
g67
(dp1615
g75
I3
ssg76
g1609
sg69
(lp1616
S'127.0.0.1'
p1617
asbasbasbag62
(g78
g64
NtRp1618
(dp1619
g67
(dp1620
sg76
g1601
sg69
(lp1621
g62
(g83
g64
NtRp1622
(dp1623
g67
(dp1624
sg76
g1618
sg69
(lp1625
g62
(g63
g64
NtRp1626
(dp1627
g67
(dp1628
g75
I3
ssg76
g1622
sg69
(lp1629
S'::ffff:127.0.0.1'
p1630
asbasbasbag62
(g78
g64
NtRp1631
(dp1632
g67
(dp1633
sg76
g1601
sg69
(lp1634
g62
(g83
g64
NtRp1635
(dp1636
g67
(dp1637
sg76
g1631
sg69
(lp1638
g62
(g63
g64
NtRp1639
(dp1640
g67
(dp1641
g75
I3
ssg76
g1635
sg69
(lp1642
S'MacBook-Pro-de-Victor.local'
p1643
asbasbasbag62
(g78
g64
NtRp1644
(dp1645
g67
(dp1646
sg76
g1601
sg69
(lp1647
g62
(g83
g64
NtRp1648
(dp1649
g67
(dp1650
sg76
g1644
sg69
(lp1651
g62
(g63
g64
NtRp1652
(dp1653
g67
(dp1654
g75
I3
ssg76
g1648
sg69
(lp1655
S'MacBook-Pro-de-Victor.local'
p1656
asbasbasbag62
(g78
g64
NtRp1657
(dp1658
g67
(dp1659
sg76
g1601
sg69
(lp1660
g62
(g83
g64
NtRp1661
(dp1662
g67
(dp1663
sg76
g1657
sg69
(lp1664
g62
(g63
g64
NtRp1665
(dp1666
g67
(dp1667
g75
I3
ssg76
g1661
sg69
(lp1668
S'10.211.55.2'
p1669
asbasbasbasbasbasbasbag62
(g78
g64
NtRp1670
(dp1671
g67
(dp1672
sg76
g1224
sg69
(lp1673
g62
(g83
g64
NtRp1674
(dp1675
g67
(dp1676
g87
g88
ssg76
g1670
sg69
(lp1677
S'path_info'
p1678
asbag62
(g83
g64
NtRp1679
(dp1680
g67
(dp1681
g94
g95
ssg76
g1670
sg69
(lp1682
S':'
asbag62
(g83
g64
NtRp1683
(dp1684
g67
(dp1685
sg76
g1670
sg69
(lp1686
g62
(g63
g64
NtRp1687
(dp1688
g67
(dp1689
g75
I4
ssg76
g1683
sg69
(lp1690
S'/CartesianPlane/default/applet'
p1691
asbasbasbag62
(g78
g64
NtRp1692
(dp1693
g67
(dp1694
sg76
g1224
sg69
(lp1695
g62
(g83
g64
NtRp1696
(dp1697
g67
(dp1698
g87
g88
ssg76
g1692
sg69
(lp1699
S'query_string'
p1700
asbag62
(g83
g64
NtRp1701
(dp1702
g67
(dp1703
g94
g95
ssg76
g1692
sg69
(lp1704
S':'
asbag62
(g83
g64
NtRp1705
(dp1706
g67
(dp1707
sg76
g1692
sg69
(lp1708
g62
(g63
g64
NtRp1709
(dp1710
g67
(dp1711
g75
I4
ssg76
g1705
sg69
(lp1712
S''
asbasbasbag62
(g78
g64
NtRp1713
(dp1714
g67
(dp1715
sg76
g1224
sg69
(lp1716
g62
(g83
g64
NtRp1717
(dp1718
g67
(dp1719
g87
g88
ssg76
g1713
sg69
(lp1720
S'remote_addr'
p1721
asbag62
(g83
g64
NtRp1722
(dp1723
g67
(dp1724
g94
g95
ssg76
g1713
sg69
(lp1725
S':'
asbag62
(g83
g64
NtRp1726
(dp1727
g67
(dp1728
sg76
g1713
sg69
(lp1729
g62
(g63
g64
NtRp1730
(dp1731
g67
(dp1732
g75
I4
ssg76
g1726
sg69
(lp1733
g217
asbasbasbag62
(g78
g64
NtRp1734
(dp1735
g67
(dp1736
sg76
g1224
sg69
(lp1737
g62
(g83
g64
NtRp1738
(dp1739
g67
(dp1740
g87
g88
ssg76
g1734
sg69
(lp1741
S'remote_port'
p1742
asbag62
(g83
g64
NtRp1743
(dp1744
g67
(dp1745
g94
g95
ssg76
g1734
sg69
(lp1746
S':'
asbag62
(g83
g64
NtRp1747
(dp1748
g67
(dp1749
sg76
g1734
sg69
(lp1750
g62
(g63
g64
NtRp1751
(dp1752
g67
(dp1753
g75
I4
ssg76
g1747
sg69
(lp1754
S'57236'
p1755
asbasbasbag62
(g78
g64
NtRp1756
(dp1757
g67
(dp1758
sg76
g1224
sg69
(lp1759
g62
(g83
g64
NtRp1760
(dp1761
g67
(dp1762
g87
g88
ssg76
g1756
sg69
(lp1763
S'request_method'
p1764
asbag62
(g83
g64
NtRp1765
(dp1766
g67
(dp1767
g94
g95
ssg76
g1756
sg69
(lp1768
S':'
asbag62
(g83
g64
NtRp1769
(dp1770
g67
(dp1771
sg76
g1756
sg69
(lp1772
g62
(g63
g64
NtRp1773
(dp1774
g67
(dp1775
g75
I4
ssg76
g1769
sg69
(lp1776
S'GET'
p1777
asbasbasbag62
(g78
g64
NtRp1778
(dp1779
g67
(dp1780
sg76
g1224
sg69
(lp1781
g62
(g83
g64
NtRp1782
(dp1783
g67
(dp1784
g87
g88
ssg76
g1778
sg69
(lp1785
S'request_uri'
p1786
asbag62
(g83
g64
NtRp1787
(dp1788
g67
(dp1789
g94
g95
ssg76
g1778
sg69
(lp1790
S':'
asbag62
(g83
g64
NtRp1791
(dp1792
g67
(dp1793
sg76
g1778
sg69
(lp1794
g62
(g63
g64
NtRp1795
(dp1796
g67
(dp1797
g75
I4
ssg76
g1791
sg69
(lp1798
g1691
asbasbasbag62
(g78
g64
NtRp1799
(dp1800
g67
(dp1801
sg76
g1224
sg69
(lp1802
g62
(g83
g64
NtRp1803
(dp1804
g67
(dp1805
g87
g88
ssg76
g1799
sg69
(lp1806
S'script_name'
p1807
asbag62
(g83
g64
NtRp1808
(dp1809
g67
(dp1810
g94
g95
ssg76
g1799
sg69
(lp1811
S':'
asbag62
(g83
g64
NtRp1812
(dp1813
g67
(dp1814
sg76
g1799
sg69
(lp1815
g62
(g63
g64
NtRp1816
(dp1817
g67
(dp1818
g75
I4
ssg76
g1812
sg69
(lp1819
S''
asbasbasbag62
(g78
g64
NtRp1820
(dp1821
g67
(dp1822
sg76
g1224
sg69
(lp1823
g62
(g83
g64
NtRp1824
(dp1825
g67
(dp1826
g87
g88
ssg76
g1820
sg69
(lp1827
S'server_name'
p1828
asbag62
(g83
g64
NtRp1829
(dp1830
g67
(dp1831
g94
g95
ssg76
g1820
sg69
(lp1832
S':'
asbag62
(g83
g64
NtRp1833
(dp1834
g67
(dp1835
sg76
g1820
sg69
(lp1836
g62
(g63
g64
NtRp1837
(dp1838
g67
(dp1839
g75
I4
ssg76
g1833
sg69
(lp1840
g1656
asbasbasbag62
(g78
g64
NtRp1841
(dp1842
g67
(dp1843
sg76
g1224
sg69
(lp1844
g62
(g83
g64
NtRp1845
(dp1846
g67
(dp1847
g87
g88
ssg76
g1841
sg69
(lp1848
S'server_port'
p1849
asbag62
(g83
g64
NtRp1850
(dp1851
g67
(dp1852
g94
g95
ssg76
g1841
sg69
(lp1853
S':'
asbag62
(g83
g64
NtRp1854
(dp1855
g67
(dp1856
sg76
g1841
sg69
(lp1857
g62
(g63
g64
NtRp1858
(dp1859
g67
(dp1860
g75
I4
ssg76
g1854
sg69
(lp1861
S'8000'
p1862
asbasbasbag62
(g78
g64
NtRp1863
(dp1864
g67
(dp1865
sg76
g1224
sg69
(lp1866
g62
(g83
g64
NtRp1867
(dp1868
g67
(dp1869
g87
g88
ssg76
g1863
sg69
(lp1870
S'server_protocol'
p1871
asbag62
(g83
g64
NtRp1872
(dp1873
g67
(dp1874
g94
g95
ssg76
g1863
sg69
(lp1875
S':'
asbag62
(g83
g64
NtRp1876
(dp1877
g67
(dp1878
sg76
g1863
sg69
(lp1879
g62
(g63
g64
NtRp1880
(dp1881
g67
(dp1882
g75
I4
ssg76
g1876
sg69
(lp1883
S'HTTP/1.1'
p1884
asbasbasbag62
(g78
g64
NtRp1885
(dp1886
g67
(dp1887
sg76
g1224
sg69
(lp1888
g62
(g83
g64
NtRp1889
(dp1890
g67
(dp1891
g87
g88
ssg76
g1885
sg69
(lp1892
S'server_software'
p1893
asbag62
(g83
g64
NtRp1894
(dp1895
g67
(dp1896
g94
g95
ssg76
g1885
sg69
(lp1897
S':'
asbag62
(g83
g64
NtRp1898
(dp1899
g67
(dp1900
sg76
g1885
sg69
(lp1901
g62
(g63
g64
NtRp1902
(dp1903
g67
(dp1904
g75
I4
ssg76
g1898
sg69
(lp1905
S'Rocket 1.2.5'
p1906
asbasbasbag62
(g78
g64
NtRp1907
(dp1908
g67
(dp1909
sg76
g1224
sg69
(lp1910
g62
(g83
g64
NtRp1911
(dp1912
g67
(dp1913
g87
g88
ssg76
g1907
sg69
(lp1914
S'web2py_path'
p1915
asbag62
(g83
g64
NtRp1916
(dp1917
g67
(dp1918
g94
g95
ssg76
g1907
sg69
(lp1919
S':'
asbag62
(g83
g64
NtRp1920
(dp1921
g67
(dp1922
sg76
g1907
sg69
(lp1923
g62
(g63
g64
NtRp1924
(dp1925
g67
(dp1926
g75
I4
ssg76
g1920
sg69
(lp1927
g1271
asbasbasbag62
(g78
g64
NtRp1928
(dp1929
g67
(dp1930
sg76
g1224
sg69
(lp1931
g62
(g83
g64
NtRp1932
(dp1933
g67
(dp1934
g87
g88
ssg76
g1928
sg69
(lp1935
S'web2py_version'
p1936
asbag62
(g83
g64
NtRp1937
(dp1938
g67
(dp1939
g94
g95
ssg76
g1928
sg69
(lp1940
S':'
asbag62
(g83
g64
NtRp1941
(dp1942
g67
(dp1943
sg76
g1928
sg69
(lp1944
g62
(g63
g64
NtRp1945
(dp1946
g67
(dp1947
g75
I4
ssg76
g1941
sg69
(lp1948
g62
(g71
g64
NtRp1949
(dp1950
g67
(dp1951
g75
I3
ssg76
Nsg69
(lp1952
g62
(g78
g64
NtRp1953
(dp1954
g67
(dp1955
sg76
g1949
sg69
(lp1956
g62
(g83
g64
NtRp1957
(dp1958
g67
(dp1959
sg76
g1953
sg69
(lp1960
g62
(g63
g64
NtRp1961
(dp1962
g67
(dp1963
g75
I3
ssg76
g1957
sg69
(lp1964
S'2'
asbasbasbag62
(g78
g64
NtRp1965
(dp1966
g67
(dp1967
sg76
g1949
sg69
(lp1968
g62
(g83
g64
NtRp1969
(dp1970
g67
(dp1971
sg76
g1965
sg69
(lp1972
g62
(g63
g64
NtRp1973
(dp1974
g67
(dp1975
g75
I3
ssg76
g1969
sg69
(lp1976
S'2'
asbasbasbag62
(g78
g64
NtRp1977
(dp1978
g67
(dp1979
sg76
g1949
sg69
(lp1980
g62
(g83
g64
NtRp1981
(dp1982
g67
(dp1983
sg76
g1977
sg69
(lp1984
g62
(g63
g64
NtRp1985
(dp1986
g67
(dp1987
g75
I3
ssg76
g1981
sg69
(lp1988
S'1'
asbasbasbag62
(g78
g64
NtRp1989
(dp1990
g67
(dp1991
sg76
g1949
sg69
(lp1992
g62
(g83
g64
NtRp1993
(dp1994
g67
(dp1995
sg76
g1989
sg69
(lp1996
g62
(g63
g64
NtRp1997
(dp1998
g67
(dp1999
g75
I3
ssg76
g1993
sg69
(lp2000
S'datetime.datetime(2012, 11, 4, 20, 45, 19)'
p2001
asbasbasbag62
(g78
g64
NtRp2002
(dp2003
g67
(dp2004
sg76
g1949
sg69
(lp2005
g62
(g83
g64
NtRp2006
(dp2007
g67
(dp2008
sg76
g2002
sg69
(lp2009
g62
(g63
g64
NtRp2010
(dp2011
g67
(dp2012
g75
I3
ssg76
g2006
sg69
(lp2013
S'stable'
p2014
asbasbasbasbasbasbasbag62
(g78
g64
NtRp2015
(dp2016
g67
(dp2017
sg76
g1224
sg69
(lp2018
g62
(g83
g64
NtRp2019
(dp2020
g67
(dp2021
g87
g88
ssg76
g2015
sg69
(lp2022
S'wsgi_errors'
p2023
asbag62
(g83
g64
NtRp2024
(dp2025
g67
(dp2026
g94
g95
ssg76
g2015
sg69
(lp2027
S':'
asbag62
(g83
g64
NtRp2028
(dp2029
g67
(dp2030
sg76
g2015
sg69
(lp2031
g62
(g63
g64
NtRp2032
(dp2033
g67
(dp2034
g75
I4
ssg76
g2028
sg69
(lp2035
S"<open file '<stderr>', mode 'w' at 0x10628b270>"
p2036
asbasbasbag62
(g78
g64
NtRp2037
(dp2038
g67
(dp2039
sg76
g1224
sg69
(lp2040
g62
(g83
g64
NtRp2041
(dp2042
g67
(dp2043
g87
g88
ssg76
g2037
sg69
(lp2044
S'wsgi_file_wrapper'
p2045
asbag62
(g83
g64
NtRp2046
(dp2047
g67
(dp2048
g94
g95
ssg76
g2037
sg69
(lp2049
S':'
asbag62
(g83
g64
NtRp2050
(dp2051
g67
(dp2052
sg76
g2037
sg69
(lp2053
g62
(g63
g64
NtRp2054
(dp2055
g67
(dp2056
g75
I4
ssg76
g2050
sg69
(lp2057
S'<class wsgiref.util.FileWrapper at 0x106ffd9a8>'
p2058
asbasbasbag62
(g78
g64
NtRp2059
(dp2060
g67
(dp2061
sg76
g1224
sg69
(lp2062
g62
(g83
g64
NtRp2063
(dp2064
g67
(dp2065
g87
g88
ssg76
g2059
sg69
(lp2066
S'wsgi_input'
p2067
asbag62
(g83
g64
NtRp2068
(dp2069
g67
(dp2070
g94
g95
ssg76
g2059
sg69
(lp2071
S':'
asbag62
(g83
g64
NtRp2072
(dp2073
g67
(dp2074
sg76
g2059
sg69
(lp2075
g62
(g63
g64
NtRp2076
(dp2077
g67
(dp2078
g75
I4
ssg76
g2072
sg69
(lp2079
S'<socket._fileobject object at 0x10b7867d0>'
p2080
asbasbasbag62
(g78
g64
NtRp2081
(dp2082
g67
(dp2083
sg76
g1224
sg69
(lp2084
g62
(g83
g64
NtRp2085
(dp2086
g67
(dp2087
g87
g88
ssg76
g2081
sg69
(lp2088
S'wsgi_multiprocess'
p2089
asbag62
(g83
g64
NtRp2090
(dp2091
g67
(dp2092
g94
g95
ssg76
g2081
sg69
(lp2093
S':'
asbag62
(g83
g64
NtRp2094
(dp2095
g67
(dp2096
sg76
g2081
sg69
(lp2097
g62
(g63
g64
NtRp2098
(dp2099
g67
(dp2100
g75
I4
ssg76
g2094
sg69
(lp2101
g105
asbasbasbag62
(g78
g64
NtRp2102
(dp2103
g67
(dp2104
sg76
g1224
sg69
(lp2105
g62
(g83
g64
NtRp2106
(dp2107
g67
(dp2108
g87
g88
ssg76
g2102
sg69
(lp2109
S'wsgi_multithread'
p2110
asbag62
(g83
g64
NtRp2111
(dp2112
g67
(dp2113
g94
g95
ssg76
g2102
sg69
(lp2114
S':'
asbag62
(g83
g64
NtRp2115
(dp2116
g67
(dp2117
sg76
g2102
sg69
(lp2118
g62
(g63
g64
NtRp2119
(dp2120
g67
(dp2121
g75
I4
ssg76
g2115
sg69
(lp2122
S'True'
p2123
asbasbasbag62
(g78
g64
NtRp2124
(dp2125
g67
(dp2126
sg76
g1224
sg69
(lp2127
g62
(g83
g64
NtRp2128
(dp2129
g67
(dp2130
g87
g88
ssg76
g2124
sg69
(lp2131
S'wsgi_run_once'
p2132
asbag62
(g83
g64
NtRp2133
(dp2134
g67
(dp2135
g94
g95
ssg76
g2124
sg69
(lp2136
S':'
asbag62
(g83
g64
NtRp2137
(dp2138
g67
(dp2139
sg76
g2124
sg69
(lp2140
g62
(g63
g64
NtRp2141
(dp2142
g67
(dp2143
g75
I4
ssg76
g2137
sg69
(lp2144
g105
asbasbasbag62
(g78
g64
NtRp2145
(dp2146
g67
(dp2147
sg76
g1224
sg69
(lp2148
g62
(g83
g64
NtRp2149
(dp2150
g67
(dp2151
g87
g88
ssg76
g2145
sg69
(lp2152
S'wsgi_url_scheme'
p2153
asbag62
(g83
g64
NtRp2154
(dp2155
g67
(dp2156
g94
g95
ssg76
g2145
sg69
(lp2157
S':'
asbag62
(g83
g64
NtRp2158
(dp2159
g67
(dp2160
sg76
g2145
sg69
(lp2161
g62
(g63
g64
NtRp2162
(dp2163
g67
(dp2164
g75
I4
ssg76
g2158
sg69
(lp2165
S'http'
p2166
asbasbasbag62
(g78
g64
NtRp2167
(dp2168
g67
(dp2169
sg76
g1224
sg69
(lp2170
g62
(g83
g64
NtRp2171
(dp2172
g67
(dp2173
g87
g88
ssg76
g2167
sg69
(lp2174
S'wsgi_version'
p2175
asbag62
(g83
g64
NtRp2176
(dp2177
g67
(dp2178
g94
g95
ssg76
g2167
sg69
(lp2179
S':'
asbag62
(g83
g64
NtRp2180
(dp2181
g67
(dp2182
sg76
g2167
sg69
(lp2183
g62
(g63
g64
NtRp2184
(dp2185
g67
(dp2186
g75
I4
ssg76
g2180
sg69
(lp2187
g62
(g71
g64
NtRp2188
(dp2189
g67
(dp2190
g75
I3
ssg76
Nsg69
(lp2191
g62
(g78
g64
NtRp2192
(dp2193
g67
(dp2194
sg76
g2188
sg69
(lp2195
g62
(g83
g64
NtRp2196
(dp2197
g67
(dp2198
sg76
g2192
sg69
(lp2199
g62
(g63
g64
NtRp2200
(dp2201
g67
(dp2202
g75
I3
ssg76
g2196
sg69
(lp2203
S'1'
asbasbasbag62
(g78
g64
NtRp2204
(dp2205
g67
(dp2206
sg76
g2188
sg69
(lp2207
g62
(g83
g64
NtRp2208
(dp2209
g67
(dp2210
sg76
g2204
sg69
(lp2211
g62
(g63
g64
NtRp2212
(dp2213
g67
(dp2214
g75
I3
ssg76
g2208
sg69
(lp2215
S'0'
asbasbasbasbasbasbasbasbasbasbasbag62
(g78
g64
NtRp2216
(dp2217
g67
(dp2218
sg76
g72
sg69
(lp2219
g62
(g83
g64
NtRp2220
(dp2221
g67
(dp2222
g87
g88
ssg76
g2216
sg69
(lp2223
S'extension'
p2224
asbag62
(g83
g64
NtRp2225
(dp2226
g67
(dp2227
g94
g95
ssg76
g2216
sg69
(lp2228
S':'
asbag62
(g83
g64
NtRp2229
(dp2230
g67
(dp2231
sg76
g2216
sg69
(lp2232
g62
(g63
g64
NtRp2233
(dp2234
g67
(dp2235
g75
I5
ssg76
g2229
sg69
(lp2236
S'html'
p2237
asbasbasbag62
(g78
g64
NtRp2238
(dp2239
g67
(dp2240
sg76
g72
sg69
(lp2241
g62
(g83
g64
NtRp2242
(dp2243
g67
(dp2244
g87
g88
ssg76
g2238
sg69
(lp2245
S'folder'
p2246
asbag62
(g83
g64
NtRp2247
(dp2248
g67
(dp2249
g94
g95
ssg76
g2238
sg69
(lp2250
S':'
asbag62
(g83
g64
NtRp2251
(dp2252
g67
(dp2253
sg76
g2238
sg69
(lp2254
g62
(g63
g64
NtRp2255
(dp2256
g67
(dp2257
g75
I5
ssg76
g2251
sg69
(lp2258
S'/Users/victorgirotto/Desktop/web2py-master/applications/CartesianPlane/'
p2259
asbasbasbag62
(g78
g64
NtRp2260
(dp2261
g67
(dp2262
sg76
g72
sg69
(lp2263
g62
(g83
g64
NtRp2264
(dp2265
g67
(dp2266
g87
g88
ssg76
g2260
sg69
(lp2267
S'function'
p2268
asbag62
(g83
g64
NtRp2269
(dp2270
g67
(dp2271
g94
g95
ssg76
g2260
sg69
(lp2272
S':'
asbag62
(g83
g64
NtRp2273
(dp2274
g67
(dp2275
sg76
g2260
sg69
(lp2276
g62
(g63
g64
NtRp2277
(dp2278
g67
(dp2279
g75
I5
ssg76
g2273
sg69
(lp2280
S'applet'
p2281
asbasbasbag62
(g78
g64
NtRp2282
(dp2283
g67
(dp2284
sg76
g72
sg69
(lp2285
g62
(g83
g64
NtRp2286
(dp2287
g67
(dp2288
g87
g88
ssg76
g2282
sg69
(lp2289
S'get_vars'
p2290
asbag62
(g83
g64
NtRp2291
(dp2292
g67
(dp2293
g94
g95
ssg76
g2282
sg69
(lp2294
S':'
asbag62
(g83
g64
NtRp2295
(dp2296
g67
(dp2297
sg76
g2282
sg69
(lp2298
g62
(g63
g64
NtRp2299
(dp2300
g67
(dp2301
g75
I5
ssg76
g2295
sg69
(lp2302
g62
(g71
g64
NtRp2303
(dp2304
g67
(dp2305
g75
I4
ssg76
Nsg69
(lp2306
sbasbasbasbag62
(g78
g64
NtRp2307
(dp2308
g67
(dp2309
sg76
g72
sg69
(lp2310
g62
(g83
g64
NtRp2311
(dp2312
g67
(dp2313
g87
g88
ssg76
g2307
sg69
(lp2314
S'global_settings'
p2315
asbag62
(g83
g64
NtRp2316
(dp2317
g67
(dp2318
g94
g95
ssg76
g2307
sg69
(lp2319
S':'
asbag62
(g83
g64
NtRp2320
(dp2321
g67
(dp2322
sg76
g2307
sg69
(lp2323
g62
(g63
g64
NtRp2324
(dp2325
g67
(dp2326
g75
I5
ssg76
g2320
sg69
(lp2327
g62
(g71
g64
NtRp2328
(dp2329
g67
(dp2330
g75
I4
ssg76
Nsg69
(lp2331
g62
(g78
g64
NtRp2332
(dp2333
g67
(dp2334
sg76
g2328
sg69
(lp2335
g62
(g83
g64
NtRp2336
(dp2337
g67
(dp2338
g87
g88
ssg76
g2332
sg69
(lp2339
g1236
asbag62
(g83
g64
NtRp2340
(dp2341
g67
(dp2342
g94
g95
ssg76
g2332
sg69
(lp2343
S':'
asbag62
(g83
g64
NtRp2344
(dp2345
g67
(dp2346
sg76
g2332
sg69
(lp2347
g62
(g63
g64
NtRp2348
(dp2349
g67
(dp2350
g75
I4
ssg76
g2344
sg69
(lp2351
S"set(['/Users/victorgirotto/Desktop/web2py-master/applications/MobileInterface/', '/Users/victorgirotto/Desktop/web2py-master/applications/welcome/', '/Users/victorgirotto/Desktop/web2py-master/applications/CartesianPlane/', '/Users/victorgirotto/Desktop/web2py-master/applications/GeogebraInterface/', '/Users/victorgirotto/Desktop/web2py-master/applications/admin/'])"
p2352
asbasbasbag62
(g78
g64
NtRp2353
(dp2354
g67
(dp2355
sg76
g2328
sg69
(lp2356
g62
(g83
g64
NtRp2357
(dp2358
g67
(dp2359
g87
g88
ssg76
g2353
sg69
(lp2360
g1258
asbag62
(g83
g64
NtRp2361
(dp2362
g67
(dp2363
g94
g95
ssg76
g2353
sg69
(lp2364
S':'
asbag62
(g83
g64
NtRp2365
(dp2366
g67
(dp2367
sg76
g2353
sg69
(lp2368
g62
(g63
g64
NtRp2369
(dp2370
g67
(dp2371
g75
I4
ssg76
g2365
sg69
(lp2372
g1271
asbasbasbag62
(g78
g64
NtRp2373
(dp2374
g67
(dp2375
sg76
g2328
sg69
(lp2376
g62
(g83
g64
NtRp2377
(dp2378
g67
(dp2379
g87
g88
ssg76
g2373
sg69
(lp2380
g1280
asbag62
(g83
g64
NtRp2381
(dp2382
g67
(dp2383
g94
g95
ssg76
g2373
sg69
(lp2384
S':'
asbag62
(g83
g64
NtRp2385
(dp2386
g67
(dp2387
sg76
g2373
sg69
(lp2388
g62
(g63
g64
NtRp2389
(dp2390
g67
(dp2391
g75
I4
ssg76
g2385
sg69
(lp2392
g62
(g71
g64
NtRp2393
(dp2394
g67
(dp2395
g75
I3
ssg76
Nsg69
(lp2396
sbasbasbasbag62
(g78
g64
NtRp2397
(dp2398
g67
(dp2399
sg76
g2328
sg69
(lp2400
g62
(g83
g64
NtRp2401
(dp2402
g67
(dp2403
g87
g88
ssg76
g2397
sg69
(lp2404
g1305
asbag62
(g83
g64
NtRp2405
(dp2406
g67
(dp2407
g94
g95
ssg76
g2397
sg69
(lp2408
S':'
asbag62
(g83
g64
NtRp2409
(dp2410
g67
(dp2411
sg76
g2397
sg69
(lp2412
g62
(g63
g64
NtRp2413
(dp2414
g67
(dp2415
g75
I4
ssg76
g2409
sg69
(lp2416
S"<Values at 0x10705ccb0: {'verbose': False, 'ip': '127.0.0.1', 'with_scheduler': False, 'ips': ['10.211.55.2', '10.37.129.2', '10.142.224.219'], 'shutdown_timeout': 5, 'taskbar': False, 'port': 8000, 'maxthreads': None, 'softcron': False, 'server_name': 'MacBook-Pro-de-Victor.local', 'bpython': False, 'nogui': False, 'pid_filename': 'httpserver.pid', 'extcron': False, 'runcron': False, 'run_system_tests': False, 'test': None, 'folder': '/Users/victorgirotto/Desktop/web2py-master', 'config': '', 'minthreads': None, 'winservice': '', 'shell': None, 'run': '', 'log_filename': 'httpserver.log', 'debuglevel': 30, 'args': [''], 'socket_timeout': 5, 'ssl_ca_certificate': None, 'scheduler': None, 'profiler_filename': None, 'ssl_private_key': '', 'scheduler_groups': None, 'password': '<ask>', 'request_queue_size': 5, 'ssl_certificate': '', 'cronjob': False, 'numthreads': None, 'quiet': False, 'interfaces': None, 'import_models': False, 'timeout': 10, 'plain': False, 'nobanner': False}>"
p2417
asbasbasbag62
(g78
g64
NtRp2418
(dp2419
g67
(dp2420
sg76
g2328
sg69
(lp2421
g62
(g83
g64
NtRp2422
(dp2423
g67
(dp2424
g87
g88
ssg76
g2418
sg69
(lp2425
g1327
asbag62
(g83
g64
NtRp2426
(dp2427
g67
(dp2428
g94
g95
ssg76
g2418
sg69
(lp2429
S':'
asbag62
(g83
g64
NtRp2430
(dp2431
g67
(dp2432
sg76
g2418
sg69
(lp2433
g62
(g63
g64
NtRp2434
(dp2435
g67
(dp2436
g75
I4
ssg76
g2430
sg69
(lp2437
S'set([])'
p2438
asbasbasbag62
(g78
g64
NtRp2439
(dp2440
g67
(dp2441
sg76
g2328
sg69
(lp2442
g62
(g83
g64
NtRp2443
(dp2444
g67
(dp2445
g87
g88
ssg76
g2439
sg69
(lp2446
g1349
asbag62
(g83
g64
NtRp2447
(dp2448
g67
(dp2449
g94
g95
ssg76
g2439
sg69
(lp2450
S':'
asbag62
(g83
g64
NtRp2451
(dp2452
g67
(dp2453
sg76
g2439
sg69
(lp2454
g62
(g63
g64
NtRp2455
(dp2456
g67
(dp2457
g75
I4
ssg76
g2451
sg69
(lp2458
g105
asbasbasbag62
(g78
g64
NtRp2459
(dp2460
g67
(dp2461
sg76
g2328
sg69
(lp2462
g62
(g83
g64
NtRp2463
(dp2464
g67
(dp2465
g87
g88
ssg76
g2459
sg69
(lp2466
g1370
asbag62
(g83
g64
NtRp2467
(dp2468
g67
(dp2469
g94
g95
ssg76
g2459
sg69
(lp2470
S':'
asbag62
(g83
g64
NtRp2471
(dp2472
g67
(dp2473
sg76
g2459
sg69
(lp2474
g62
(g63
g64
NtRp2475
(dp2476
g67
(dp2477
g75
I4
ssg76
g2471
sg69
(lp2478
g1383
asbasbasbag62
(g78
g64
NtRp2479
(dp2480
g67
(dp2481
sg76
g2328
sg69
(lp2482
g62
(g83
g64
NtRp2483
(dp2484
g67
(dp2485
g87
g88
ssg76
g2479
sg69
(lp2486
g1546
asbag62
(g83
g64
NtRp2487
(dp2488
g67
(dp2489
g94
g95
ssg76
g2479
sg69
(lp2490
S':'
asbag62
(g83
g64
NtRp2491
(dp2492
g67
(dp2493
sg76
g2479
sg69
(lp2494
g62
(g63
g64
NtRp2495
(dp2496
g67
(dp2497
g75
I4
ssg76
g2491
sg69
(lp2498
g105
asbasbasbag62
(g78
g64
NtRp2499
(dp2500
g67
(dp2501
sg76
g2328
sg69
(lp2502
g62
(g83
g64
NtRp2503
(dp2504
g67
(dp2505
g87
g88
ssg76
g2499
sg69
(lp2506
g1567
asbag62
(g83
g64
NtRp2507
(dp2508
g67
(dp2509
g94
g95
ssg76
g2499
sg69
(lp2510
S':'
asbag62
(g83
g64
NtRp2511
(dp2512
g67
(dp2513
sg76
g2499
sg69
(lp2514
g62
(g63
g64
NtRp2515
(dp2516
g67
(dp2517
g75
I4
ssg76
g2511
sg69
(lp2518
g105
asbasbasbag62
(g78
g64
NtRp2519
(dp2520
g67
(dp2521
sg76
g2328
sg69
(lp2522
g62
(g83
g64
NtRp2523
(dp2524
g67
(dp2525
g87
g88
ssg76
g2519
sg69
(lp2526
g1588
asbag62
(g83
g64
NtRp2527
(dp2528
g67
(dp2529
g94
g95
ssg76
g2519
sg69
(lp2530
S':'
asbag62
(g83
g64
NtRp2531
(dp2532
g67
(dp2533
sg76
g2519
sg69
(lp2534
g62
(g63
g64
NtRp2535
(dp2536
g67
(dp2537
g75
I4
ssg76
g2531
sg69
(lp2538
g62
(g71
g64
NtRp2539
(dp2540
g67
(dp2541
g75
I3
ssg76
Nsg69
(lp2542
g62
(g78
g64
NtRp2543
(dp2544
g67
(dp2545
sg76
g2539
sg69
(lp2546
g62
(g83
g64
NtRp2547
(dp2548
g67
(dp2549
sg76
g2543
sg69
(lp2550
g62
(g63
g64
NtRp2551
(dp2552
g67
(dp2553
g75
I3
ssg76
g2547
sg69
(lp2554
g1617
asbasbasbag62
(g78
g64
NtRp2555
(dp2556
g67
(dp2557
sg76
g2539
sg69
(lp2558
g62
(g83
g64
NtRp2559
(dp2560
g67
(dp2561
sg76
g2555
sg69
(lp2562
g62
(g63
g64
NtRp2563
(dp2564
g67
(dp2565
g75
I3
ssg76
g2559
sg69
(lp2566
g1630
asbasbasbag62
(g78
g64
NtRp2567
(dp2568
g67
(dp2569
sg76
g2539
sg69
(lp2570
g62
(g83
g64
NtRp2571
(dp2572
g67
(dp2573
sg76
g2567
sg69
(lp2574
g62
(g63
g64
NtRp2575
(dp2576
g67
(dp2577
g75
I3
ssg76
g2571
sg69
(lp2578
g1643
asbasbasbag62
(g78
g64
NtRp2579
(dp2580
g67
(dp2581
sg76
g2539
sg69
(lp2582
g62
(g83
g64
NtRp2583
(dp2584
g67
(dp2585
sg76
g2579
sg69
(lp2586
g62
(g63
g64
NtRp2587
(dp2588
g67
(dp2589
g75
I3
ssg76
g2583
sg69
(lp2590
g1656
asbasbasbag62
(g78
g64
NtRp2591
(dp2592
g67
(dp2593
sg76
g2539
sg69
(lp2594
g62
(g83
g64
NtRp2595
(dp2596
g67
(dp2597
sg76
g2591
sg69
(lp2598
g62
(g63
g64
NtRp2599
(dp2600
g67
(dp2601
g75
I3
ssg76
g2595
sg69
(lp2602
g1669
asbasbasbasbasbasbasbag62
(g78
g64
NtRp2603
(dp2604
g67
(dp2605
sg76
g2328
sg69
(lp2606
g62
(g83
g64
NtRp2607
(dp2608
g67
(dp2609
g87
g88
ssg76
g2603
sg69
(lp2610
g1936
asbag62
(g83
g64
NtRp2611
(dp2612
g67
(dp2613
g94
g95
ssg76
g2603
sg69
(lp2614
S':'
asbag62
(g83
g64
NtRp2615
(dp2616
g67
(dp2617
sg76
g2603
sg69
(lp2618
g62
(g63
g64
NtRp2619
(dp2620
g67
(dp2621
g75
I4
ssg76
g2615
sg69
(lp2622
g62
(g71
g64
NtRp2623
(dp2624
g67
(dp2625
g75
I3
ssg76
Nsg69
(lp2626
g62
(g78
g64
NtRp2627
(dp2628
g67
(dp2629
sg76
g2623
sg69
(lp2630
g62
(g83
g64
NtRp2631
(dp2632
g67
(dp2633
sg76
g2627
sg69
(lp2634
g62
(g63
g64
NtRp2635
(dp2636
g67
(dp2637
g75
I3
ssg76
g2631
sg69
(lp2638
S'2'
asbasbasbag62
(g78
g64
NtRp2639
(dp2640
g67
(dp2641
sg76
g2623
sg69
(lp2642
g62
(g83
g64
NtRp2643
(dp2644
g67
(dp2645
sg76
g2639
sg69
(lp2646
g62
(g63
g64
NtRp2647
(dp2648
g67
(dp2649
g75
I3
ssg76
g2643
sg69
(lp2650
S'2'
asbasbasbag62
(g78
g64
NtRp2651
(dp2652
g67
(dp2653
sg76
g2623
sg69
(lp2654
g62
(g83
g64
NtRp2655
(dp2656
g67
(dp2657
sg76
g2651
sg69
(lp2658
g62
(g63
g64
NtRp2659
(dp2660
g67
(dp2661
g75
I3
ssg76
g2655
sg69
(lp2662
S'1'
asbasbasbag62
(g78
g64
NtRp2663
(dp2664
g67
(dp2665
sg76
g2623
sg69
(lp2666
g62
(g83
g64
NtRp2667
(dp2668
g67
(dp2669
sg76
g2663
sg69
(lp2670
g62
(g63
g64
NtRp2671
(dp2672
g67
(dp2673
g75
I3
ssg76
g2667
sg69
(lp2674
S'datetime.datetime(2012, 11, 4, 20, 45, 19)'
p2675
asbasbasbag62
(g78
g64
NtRp2676
(dp2677
g67
(dp2678
sg76
g2623
sg69
(lp2679
g62
(g83
g64
NtRp2680
(dp2681
g67
(dp2682
sg76
g2676
sg69
(lp2683
g62
(g63
g64
NtRp2684
(dp2685
g67
(dp2686
g75
I3
ssg76
g2680
sg69
(lp2687
g2014
asbasbasbasbasbasbasbasbasbasbasbag62
(g78
g64
NtRp2688
(dp2689
g67
(dp2690
sg76
g72
sg69
(lp2691
g62
(g83
g64
NtRp2692
(dp2693
g67
(dp2694
g87
g88
ssg76
g2688
sg69
(lp2695
S'is_https'
p2696
asbag62
(g83
g64
NtRp2697
(dp2698
g67
(dp2699
g94
g95
ssg76
g2688
sg69
(lp2700
S':'
asbag62
(g83
g64
NtRp2701
(dp2702
g67
(dp2703
sg76
g2688
sg69
(lp2704
g62
(g63
g64
NtRp2705
(dp2706
g67
(dp2707
g75
I5
ssg76
g2701
sg69
(lp2708
g105
asbasbasbag62
(g78
g64
NtRp2709
(dp2710
g67
(dp2711
sg76
g72
sg69
(lp2712
g62
(g83
g64
NtRp2713
(dp2714
g67
(dp2715
g87
g88
ssg76
g2709
sg69
(lp2716
S'is_local'
p2717
asbag62
(g83
g64
NtRp2718
(dp2719
g67
(dp2720
g94
g95
ssg76
g2709
sg69
(lp2721
S':'
asbag62
(g83
g64
NtRp2722
(dp2723
g67
(dp2724
sg76
g2709
sg69
(lp2725
g62
(g63
g64
NtRp2726
(dp2727
g67
(dp2728
g75
I5
ssg76
g2722
sg69
(lp2729
g2123
asbasbasbag62
(g78
g64
NtRp2730
(dp2731
g67
(dp2732
sg76
g72
sg69
(lp2733
g62
(g83
g64
NtRp2734
(dp2735
g67
(dp2736
g87
g88
ssg76
g2730
sg69
(lp2737
S'is_restful'
p2738
asbag62
(g83
g64
NtRp2739
(dp2740
g67
(dp2741
g94
g95
ssg76
g2730
sg69
(lp2742
S':'
asbag62
(g83
g64
NtRp2743
(dp2744
g67
(dp2745
sg76
g2730
sg69
(lp2746
g62
(g63
g64
NtRp2747
(dp2748
g67
(dp2749
g75
I5
ssg76
g2743
sg69
(lp2750
g105
asbasbasbag62
(g78
g64
NtRp2751
(dp2752
g67
(dp2753
sg76
g72
sg69
(lp2754
g62
(g83
g64
NtRp2755
(dp2756
g67
(dp2757
g87
g88
ssg76
g2751
sg69
(lp2758
S'now'
p2759
asbag62
(g83
g64
NtRp2760
(dp2761
g67
(dp2762
g94
g95
ssg76
g2751
sg69
(lp2763
S':'
asbag62
(g83
g64
NtRp2764
(dp2765
g67
(dp2766
sg76
g2751
sg69
(lp2767
g62
(g63
g64
NtRp2768
(dp2769
g67
(dp2770
g75
I5
ssg76
g2764
sg69
(lp2771
S'datetime.datetime(2013, 1, 24, 17, 7, 22, 634470)'
p2772
asbasbasbag62
(g78
g64
NtRp2773
(dp2774
g67
(dp2775
sg76
g72
sg69
(lp2776
g62
(g83
g64
NtRp2777
(dp2778
g67
(dp2779
g87
g88
ssg76
g2773
sg69
(lp2780
S'post_vars'
p2781
asbag62
(g83
g64
NtRp2782
(dp2783
g67
(dp2784
g94
g95
ssg76
g2773
sg69
(lp2785
S':'
asbag62
(g83
g64
NtRp2786
(dp2787
g67
(dp2788
sg76
g2773
sg69
(lp2789
g62
(g63
g64
NtRp2790
(dp2791
g67
(dp2792
g75
I5
ssg76
g2786
sg69
(lp2793
g62
(g71
g64
NtRp2794
(dp2795
g67
(dp2796
g75
I4
ssg76
Nsg69
(lp2797
sbasbasbasbag62
(g78
g64
NtRp2798
(dp2799
g67
(dp2800
sg76
g72
sg69
(lp2801
g62
(g83
g64
NtRp2802
(dp2803
g67
(dp2804
g87
g88
ssg76
g2798
sg69
(lp2805
S'raw_args'
p2806
asbag62
(g83
g64
NtRp2807
(dp2808
g67
(dp2809
g94
g95
ssg76
g2798
sg69
(lp2810
S':'
asbag62
(g83
g64
NtRp2811
(dp2812
g67
(dp2813
sg76
g2798
sg69
(lp2814
g62
(g63
g64
NtRp2815
(dp2816
g67
(dp2817
g75
I5
ssg76
g2811
sg69
(lp2818
S''
asbasbasbag62
(g78
g64
NtRp2819
(dp2820
g67
(dp2821
sg76
g72
sg69
(lp2822
g62
(g83
g64
NtRp2823
(dp2824
g67
(dp2825
g87
g88
ssg76
g2819
sg69
(lp2826
S'raw_extension'
p2827
asbag62
(g83
g64
NtRp2828
(dp2829
g67
(dp2830
g94
g95
ssg76
g2819
sg69
(lp2831
S':'
asbag62
(g83
g64
NtRp2832
(dp2833
g67
(dp2834
sg76
g2819
sg69
(lp2835
g62
(g63
g64
NtRp2836
(dp2837
g67
(dp2838
g75
I5
ssg76
g2832
sg69
(lp2839
S'None'
p2840
asbasbasbag62
(g78
g64
NtRp2841
(dp2842
g67
(dp2843
sg76
g72
sg69
(lp2844
g62
(g83
g64
NtRp2845
(dp2846
g67
(dp2847
g87
g88
ssg76
g2841
sg69
(lp2848
S'url'
p2849
asbag62
(g83
g64
NtRp2850
(dp2851
g67
(dp2852
g94
g95
ssg76
g2841
sg69
(lp2853
S':'
asbag62
(g83
g64
NtRp2854
(dp2855
g67
(dp2856
sg76
g2841
sg69
(lp2857
g62
(g63
g64
NtRp2858
(dp2859
g67
(dp2860
g75
I5
ssg76
g2854
sg69
(lp2861
g1691
asbasbasbag62
(g78
g64
NtRp2862
(dp2863
g67
(dp2864
sg76
g72
sg69
(lp2865
g62
(g83
g64
NtRp2866
(dp2867
g67
(dp2868
g87
g88
ssg76
g2862
sg69
(lp2869
S'utcnow'
p2870
asbag62
(g83
g64
NtRp2871
(dp2872
g67
(dp2873
g94
g95
ssg76
g2862
sg69
(lp2874
S':'
asbag62
(g83
g64
NtRp2875
(dp2876
g67
(dp2877
sg76
g2862
sg69
(lp2878
g62
(g63
g64
NtRp2879
(dp2880
g67
(dp2881
g75
I5
ssg76
g2875
sg69
(lp2882
S'datetime.datetime(2013, 1, 25, 0, 7, 22, 634479)'
p2883
asbasbasbag62
(g78
g64
NtRp2884
(dp2885
g67
(dp2886
sg76
g72
sg69
(lp2887
g62
(g83
g64
NtRp2888
(dp2889
g67
(dp2890
g87
g88
ssg76
g2884
sg69
(lp2891
S'uuid'
p2892
asbag62
(g83
g64
NtRp2893
(dp2894
g67
(dp2895
g94
g95
ssg76
g2884
sg69
(lp2896
S':'
asbag62
(g83
g64
NtRp2897
(dp2898
g67
(dp2899
sg76
g2884
sg69
(lp2900
g62
(g63
g64
NtRp2901
(dp2902
g67
(dp2903
g75
I5
ssg76
g2897
sg69
(lp2904
S'CartesianPlane/127.0.0.1.2013-01-24.17-07-22.1c89e72a-7ac2-41a6-8a9e-d39aba02713e'
p2905
asbasbasbag62
(g78
g64
NtRp2906
(dp2907
g67
(dp2908
sg76
g72
sg69
(lp2909
g62
(g83
g64
NtRp2910
(dp2911
g67
(dp2912
g87
g88
ssg76
g2906
sg69
(lp2913
S'vars'
p2914
asbag62
(g83
g64
NtRp2915
(dp2916
g67
(dp2917
g94
g95
ssg76
g2906
sg69
(lp2918
S':'
asbag62
(g83
g64
NtRp2919
(dp2920
g67
(dp2921
sg76
g2906
sg69
(lp2922
g62
(g63
g64
NtRp2923
(dp2924
g67
(dp2925
g75
I5
ssg76
g2919
sg69
(lp2926
g62
(g71
g64
NtRp2927
(dp2928
g67
(dp2929
g75
I4
ssg76
Nsg69
(lp2930
sbasbasbasbag62
(g78
g64
NtRp2931
(dp2932
g67
(dp2933
sg76
g72
sg69
(lp2934
g62
(g83
g64
NtRp2935
(dp2936
g67
(dp2937
g87
g88
ssg76
g2931
sg69
(lp2938
S'wsgi'
p2939
asbag62
(g83
g64
NtRp2940
(dp2941
g67
(dp2942
g94
g95
ssg76
g2931
sg69
(lp2943
S':'
asbag62
(g83
g64
NtRp2944
(dp2945
g67
(dp2946
sg76
g2931
sg69
(lp2947
g62
(g63
g64
NtRp2948
(dp2949
g67
(dp2950
g75
I5
ssg76
g2944
sg69
(lp2951
g62
(g71
g64
NtRp2952
(dp2953
g67
(dp2954
g75
I4
ssg76
Nsg69
(lp2955
g62
(g78
g64
NtRp2956
(dp2957
g67
(dp2958
sg76
g2952
sg69
(lp2959
g62
(g83
g64
NtRp2960
(dp2961
g67
(dp2962
g87
g88
ssg76
g2956
sg69
(lp2963
S'environ'
p2964
asbag62
(g83
g64
NtRp2965
(dp2966
g67
(dp2967
g94
g95
ssg76
g2956
sg69
(lp2968
S':'
asbag62
(g83
g64
NtRp2969
(dp2970
g67
(dp2971
sg76
g2956
sg69
(lp2972
g62
(g63
g64
NtRp2973
(dp2974
g67
(dp2975
g75
I4
ssg76
g2969
sg69
(lp2976
g62
(g71
g64
NtRp2977
(dp2978
g67
(dp2979
g75
I3
ssg76
Nsg69
(lp2980
g62
(g78
g64
NtRp2981
(dp2982
g67
(dp2983
sg76
g2977
sg69
(lp2984
g62
(g83
g64
NtRp2985
(dp2986
g67
(dp2987
g87
g88
ssg76
g2981
sg69
(lp2988
S'HTTP_ACCEPT'
p2989
asbag62
(g83
g64
NtRp2990
(dp2991
g67
(dp2992
g94
g95
ssg76
g2981
sg69
(lp2993
S':'
asbag62
(g83
g64
NtRp2994
(dp2995
g67
(dp2996
sg76
g2981
sg69
(lp2997
g62
(g63
g64
NtRp2998
(dp2999
g67
(dp3000
g75
I3
ssg76
g2994
sg69
(lp3001
g1405
asbasbasbag62
(g78
g64
NtRp3002
(dp3003
g67
(dp3004
sg76
g2977
sg69
(lp3005
g62
(g83
g64
NtRp3006
(dp3007
g67
(dp3008
g87
g88
ssg76
g3002
sg69
(lp3009
S'HTTP_ACCEPT_ENCODING'
p3010
asbag62
(g83
g64
NtRp3011
(dp3012
g67
(dp3013
g94
g95
ssg76
g3002
sg69
(lp3014
S':'
asbag62
(g83
g64
NtRp3015
(dp3016
g67
(dp3017
sg76
g3002
sg69
(lp3018
g62
(g63
g64
NtRp3019
(dp3020
g67
(dp3021
g75
I3
ssg76
g3015
sg69
(lp3022
g1427
asbasbasbag62
(g78
g64
NtRp3023
(dp3024
g67
(dp3025
sg76
g2977
sg69
(lp3026
g62
(g83
g64
NtRp3027
(dp3028
g67
(dp3029
g87
g88
ssg76
g3023
sg69
(lp3030
S'HTTP_ACCEPT_LANGUAGE'
p3031
asbag62
(g83
g64
NtRp3032
(dp3033
g67
(dp3034
g94
g95
ssg76
g3023
sg69
(lp3035
S':'
asbag62
(g83
g64
NtRp3036
(dp3037
g67
(dp3038
sg76
g3023
sg69
(lp3039
g62
(g63
g64
NtRp3040
(dp3041
g67
(dp3042
g75
I3
ssg76
g3036
sg69
(lp3043
g1449
asbasbasbag62
(g78
g64
NtRp3044
(dp3045
g67
(dp3046
sg76
g2977
sg69
(lp3047
g62
(g83
g64
NtRp3048
(dp3049
g67
(dp3050
g87
g88
ssg76
g3044
sg69
(lp3051
S'HTTP_CONNECTION'
p3052
asbag62
(g83
g64
NtRp3053
(dp3054
g67
(dp3055
g94
g95
ssg76
g3044
sg69
(lp3056
S':'
asbag62
(g83
g64
NtRp3057
(dp3058
g67
(dp3059
sg76
g3044
sg69
(lp3060
g62
(g63
g64
NtRp3061
(dp3062
g67
(dp3063
g75
I3
ssg76
g3057
sg69
(lp3064
g1471
asbasbasbag62
(g78
g64
NtRp3065
(dp3066
g67
(dp3067
sg76
g2977
sg69
(lp3068
g62
(g83
g64
NtRp3069
(dp3070
g67
(dp3071
g87
g88
ssg76
g3065
sg69
(lp3072
S'HTTP_COOKIE'
p3073
asbag62
(g83
g64
NtRp3074
(dp3075
g67
(dp3076
g94
g95
ssg76
g3065
sg69
(lp3077
S':'
asbag62
(g83
g64
NtRp3078
(dp3079
g67
(dp3080
sg76
g3065
sg69
(lp3081
g62
(g63
g64
NtRp3082
(dp3083
g67
(dp3084
g75
I3
ssg76
g3078
sg69
(lp3085
g1493
asbasbasbag62
(g78
g64
NtRp3086
(dp3087
g67
(dp3088
sg76
g2977
sg69
(lp3089
g62
(g83
g64
NtRp3090
(dp3091
g67
(dp3092
g87
g88
ssg76
g3086
sg69
(lp3093
S'HTTP_HOST'
p3094
asbag62
(g83
g64
NtRp3095
(dp3096
g67
(dp3097
g94
g95
ssg76
g3086
sg69
(lp3098
S':'
asbag62
(g83
g64
NtRp3099
(dp3100
g67
(dp3101
sg76
g3086
sg69
(lp3102
g62
(g63
g64
NtRp3103
(dp3104
g67
(dp3105
g75
I3
ssg76
g3099
sg69
(lp3106
g1515
asbasbasbag62
(g78
g64
NtRp3107
(dp3108
g67
(dp3109
sg76
g2977
sg69
(lp3110
g62
(g83
g64
NtRp3111
(dp3112
g67
(dp3113
g87
g88
ssg76
g3107
sg69
(lp3114
S'HTTP_USER_AGENT'
p3115
asbag62
(g83
g64
NtRp3116
(dp3117
g67
(dp3118
g94
g95
ssg76
g3107
sg69
(lp3119
S':'
asbag62
(g83
g64
NtRp3120
(dp3121
g67
(dp3122
sg76
g3107
sg69
(lp3123
g62
(g63
g64
NtRp3124
(dp3125
g67
(dp3126
g75
I3
ssg76
g3120
sg69
(lp3127
g1537
asbasbasbag62
(g78
g64
NtRp3128
(dp3129
g67
(dp3130
sg76
g2977
sg69
(lp3131
g62
(g83
g64
NtRp3132
(dp3133
g67
(dp3134
g87
g88
ssg76
g3128
sg69
(lp3135
S'PATH_INFO'
p3136
asbag62
(g83
g64
NtRp3137
(dp3138
g67
(dp3139
g94
g95
ssg76
g3128
sg69
(lp3140
S':'
asbag62
(g83
g64
NtRp3141
(dp3142
g67
(dp3143
sg76
g3128
sg69
(lp3144
g62
(g63
g64
NtRp3145
(dp3146
g67
(dp3147
g75
I3
ssg76
g3141
sg69
(lp3148
g1691
asbasbasbag62
(g78
g64
NtRp3149
(dp3150
g67
(dp3151
sg76
g2977
sg69
(lp3152
g62
(g83
g64
NtRp3153
(dp3154
g67
(dp3155
g87
g88
ssg76
g3149
sg69
(lp3156
S'QUERY_STRING'
p3157
asbag62
(g83
g64
NtRp3158
(dp3159
g67
(dp3160
g94
g95
ssg76
g3149
sg69
(lp3161
S':'
asbag62
(g83
g64
NtRp3162
(dp3163
g67
(dp3164
sg76
g3149
sg69
(lp3165
g62
(g63
g64
NtRp3166
(dp3167
g67
(dp3168
g75
I3
ssg76
g3162
sg69
(lp3169
S''
asbasbasbag62
(g78
g64
NtRp3170
(dp3171
g67
(dp3172
sg76
g2977
sg69
(lp3173
g62
(g83
g64
NtRp3174
(dp3175
g67
(dp3176
g87
g88
ssg76
g3170
sg69
(lp3177
S'REMOTE_ADDR'
p3178
asbag62
(g83
g64
NtRp3179
(dp3180
g67
(dp3181
g94
g95
ssg76
g3170
sg69
(lp3182
S':'
asbag62
(g83
g64
NtRp3183
(dp3184
g67
(dp3185
sg76
g3170
sg69
(lp3186
g62
(g63
g64
NtRp3187
(dp3188
g67
(dp3189
g75
I3
ssg76
g3183
sg69
(lp3190
g217
asbasbasbag62
(g78
g64
NtRp3191
(dp3192
g67
(dp3193
sg76
g2977
sg69
(lp3194
g62
(g83
g64
NtRp3195
(dp3196
g67
(dp3197
g87
g88
ssg76
g3191
sg69
(lp3198
S'REMOTE_PORT'
p3199
asbag62
(g83
g64
NtRp3200
(dp3201
g67
(dp3202
g94
g95
ssg76
g3191
sg69
(lp3203
S':'
asbag62
(g83
g64
NtRp3204
(dp3205
g67
(dp3206
sg76
g3191
sg69
(lp3207
g62
(g63
g64
NtRp3208
(dp3209
g67
(dp3210
g75
I3
ssg76
g3204
sg69
(lp3211
g1755
asbasbasbag62
(g78
g64
NtRp3212
(dp3213
g67
(dp3214
sg76
g2977
sg69
(lp3215
g62
(g83
g64
NtRp3216
(dp3217
g67
(dp3218
g87
g88
ssg76
g3212
sg69
(lp3219
S'REQUEST_METHOD'
p3220
asbag62
(g83
g64
NtRp3221
(dp3222
g67
(dp3223
g94
g95
ssg76
g3212
sg69
(lp3224
S':'
asbag62
(g83
g64
NtRp3225
(dp3226
g67
(dp3227
sg76
g3212
sg69
(lp3228
g62
(g63
g64
NtRp3229
(dp3230
g67
(dp3231
g75
I3
ssg76
g3225
sg69
(lp3232
g1777
asbasbasbag62
(g78
g64
NtRp3233
(dp3234
g67
(dp3235
sg76
g2977
sg69
(lp3236
g62
(g83
g64
NtRp3237
(dp3238
g67
(dp3239
g87
g88
ssg76
g3233
sg69
(lp3240
S'REQUEST_URI'
p3241
asbag62
(g83
g64
NtRp3242
(dp3243
g67
(dp3244
g94
g95
ssg76
g3233
sg69
(lp3245
S':'
asbag62
(g83
g64
NtRp3246
(dp3247
g67
(dp3248
sg76
g3233
sg69
(lp3249
g62
(g63
g64
NtRp3250
(dp3251
g67
(dp3252
g75
I3
ssg76
g3246
sg69
(lp3253
g1691
asbasbasbag62
(g78
g64
NtRp3254
(dp3255
g67
(dp3256
sg76
g2977
sg69
(lp3257
g62
(g83
g64
NtRp3258
(dp3259
g67
(dp3260
g87
g88
ssg76
g3254
sg69
(lp3261
S'SCRIPT_NAME'
p3262
asbag62
(g83
g64
NtRp3263
(dp3264
g67
(dp3265
g94
g95
ssg76
g3254
sg69
(lp3266
S':'
asbag62
(g83
g64
NtRp3267
(dp3268
g67
(dp3269
sg76
g3254
sg69
(lp3270
g62
(g63
g64
NtRp3271
(dp3272
g67
(dp3273
g75
I3
ssg76
g3267
sg69
(lp3274
S''
asbasbasbag62
(g78
g64
NtRp3275
(dp3276
g67
(dp3277
sg76
g2977
sg69
(lp3278
g62
(g83
g64
NtRp3279
(dp3280
g67
(dp3281
g87
g88
ssg76
g3275
sg69
(lp3282
S'SERVER_NAME'
p3283
asbag62
(g83
g64
NtRp3284
(dp3285
g67
(dp3286
g94
g95
ssg76
g3275
sg69
(lp3287
S':'
asbag62
(g83
g64
NtRp3288
(dp3289
g67
(dp3290
sg76
g3275
sg69
(lp3291
g62
(g63
g64
NtRp3292
(dp3293
g67
(dp3294
g75
I3
ssg76
g3288
sg69
(lp3295
g1656
asbasbasbag62
(g78
g64
NtRp3296
(dp3297
g67
(dp3298
sg76
g2977
sg69
(lp3299
g62
(g83
g64
NtRp3300
(dp3301
g67
(dp3302
g87
g88
ssg76
g3296
sg69
(lp3303
S'SERVER_PORT'
p3304
asbag62
(g83
g64
NtRp3305
(dp3306
g67
(dp3307
g94
g95
ssg76
g3296
sg69
(lp3308
S':'
asbag62
(g83
g64
NtRp3309
(dp3310
g67
(dp3311
sg76
g3296
sg69
(lp3312
g62
(g63
g64
NtRp3313
(dp3314
g67
(dp3315
g75
I3
ssg76
g3309
sg69
(lp3316
g1862
asbasbasbag62
(g78
g64
NtRp3317
(dp3318
g67
(dp3319
sg76
g2977
sg69
(lp3320
g62
(g83
g64
NtRp3321
(dp3322
g67
(dp3323
g87
g88
ssg76
g3317
sg69
(lp3324
S'SERVER_PROTOCOL'
p3325
asbag62
(g83
g64
NtRp3326
(dp3327
g67
(dp3328
g94
g95
ssg76
g3317
sg69
(lp3329
S':'
asbag62
(g83
g64
NtRp3330
(dp3331
g67
(dp3332
sg76
g3317
sg69
(lp3333
g62
(g63
g64
NtRp3334
(dp3335
g67
(dp3336
g75
I3
ssg76
g3330
sg69
(lp3337
g1884
asbasbasbag62
(g78
g64
NtRp3338
(dp3339
g67
(dp3340
sg76
g2977
sg69
(lp3341
g62
(g83
g64
NtRp3342
(dp3343
g67
(dp3344
g87
g88
ssg76
g3338
sg69
(lp3345
S'SERVER_SOFTWARE'
p3346
asbag62
(g83
g64
NtRp3347
(dp3348
g67
(dp3349
g94
g95
ssg76
g3338
sg69
(lp3350
S':'
asbag62
(g83
g64
NtRp3351
(dp3352
g67
(dp3353
sg76
g3338
sg69
(lp3354
g62
(g63
g64
NtRp3355
(dp3356
g67
(dp3357
g75
I3
ssg76
g3351
sg69
(lp3358
g1906
asbasbasbag62
(g78
g64
NtRp3359
(dp3360
g67
(dp3361
sg76
g2977
sg69
(lp3362
g62
(g83
g64
NtRp3363
(dp3364
g67
(dp3365
g87
g88
ssg76
g3359
sg69
(lp3366
S'wsgi.errors'
p3367
asbag62
(g83
g64
NtRp3368
(dp3369
g67
(dp3370
g94
g95
ssg76
g3359
sg69
(lp3371
S':'
asbag62
(g83
g64
NtRp3372
(dp3373
g67
(dp3374
sg76
g3359
sg69
(lp3375
g62
(g63
g64
NtRp3376
(dp3377
g67
(dp3378
g75
I3
ssg76
g3372
sg69
(lp3379
S"<open file '<stderr>', mode 'w' at 0x10628b270>"
p3380
asbasbasbag62
(g78
g64
NtRp3381
(dp3382
g67
(dp3383
sg76
g2977
sg69
(lp3384
g62
(g83
g64
NtRp3385
(dp3386
g67
(dp3387
g87
g88
ssg76
g3381
sg69
(lp3388
S'wsgi.file_wrapper'
p3389
asbag62
(g83
g64
NtRp3390
(dp3391
g67
(dp3392
g94
g95
ssg76
g3381
sg69
(lp3393
S':'
asbag62
(g83
g64
NtRp3394
(dp3395
g67
(dp3396
sg76
g3381
sg69
(lp3397
g62
(g63
g64
NtRp3398
(dp3399
g67
(dp3400
g75
I3
ssg76
g3394
sg69
(lp3401
S'<class wsgiref.util.FileWrapper at 0x106ffd9a8>'
p3402
asbasbasbag62
(g78
g64
NtRp3403
(dp3404
g67
(dp3405
sg76
g2977
sg69
(lp3406
g62
(g83
g64
NtRp3407
(dp3408
g67
(dp3409
g87
g88
ssg76
g3403
sg69
(lp3410
S'wsgi.input'
p3411
asbag62
(g83
g64
NtRp3412
(dp3413
g67
(dp3414
g94
g95
ssg76
g3403
sg69
(lp3415
S':'
asbag62
(g83
g64
NtRp3416
(dp3417
g67
(dp3418
sg76
g3403
sg69
(lp3419
g62
(g63
g64
NtRp3420
(dp3421
g67
(dp3422
g75
I3
ssg76
g3416
sg69
(lp3423
S'<cStringIO.StringO object at 0x10ef20688>'
p3424
asbasbasbag62
(g78
g64
NtRp3425
(dp3426
g67
(dp3427
sg76
g2977
sg69
(lp3428
g62
(g83
g64
NtRp3429
(dp3430
g67
(dp3431
g87
g88
ssg76
g3425
sg69
(lp3432
S'wsgi.multiprocess'
p3433
asbag62
(g83
g64
NtRp3434
(dp3435
g67
(dp3436
g94
g95
ssg76
g3425
sg69
(lp3437
S':'
asbag62
(g83
g64
NtRp3438
(dp3439
g67
(dp3440
sg76
g3425
sg69
(lp3441
g62
(g63
g64
NtRp3442
(dp3443
g67
(dp3444
g75
I3
ssg76
g3438
sg69
(lp3445
g105
asbasbasbag62
(g78
g64
NtRp3446
(dp3447
g67
(dp3448
sg76
g2977
sg69
(lp3449
g62
(g83
g64
NtRp3450
(dp3451
g67
(dp3452
g87
g88
ssg76
g3446
sg69
(lp3453
S'wsgi.multithread'
p3454
asbag62
(g83
g64
NtRp3455
(dp3456
g67
(dp3457
g94
g95
ssg76
g3446
sg69
(lp3458
S':'
asbag62
(g83
g64
NtRp3459
(dp3460
g67
(dp3461
sg76
g3446
sg69
(lp3462
g62
(g63
g64
NtRp3463
(dp3464
g67
(dp3465
g75
I3
ssg76
g3459
sg69
(lp3466
g2123
asbasbasbag62
(g78
g64
NtRp3467
(dp3468
g67
(dp3469
sg76
g2977
sg69
(lp3470
g62
(g83
g64
NtRp3471
(dp3472
g67
(dp3473
g87
g88
ssg76
g3467
sg69
(lp3474
S'wsgi.run_once'
p3475
asbag62
(g83
g64
NtRp3476
(dp3477
g67
(dp3478
g94
g95
ssg76
g3467
sg69
(lp3479
S':'
asbag62
(g83
g64
NtRp3480
(dp3481
g67
(dp3482
sg76
g3467
sg69
(lp3483
g62
(g63
g64
NtRp3484
(dp3485
g67
(dp3486
g75
I3
ssg76
g3480
sg69
(lp3487
g105
asbasbasbag62
(g78
g64
NtRp3488
(dp3489
g67
(dp3490
sg76
g2977
sg69
(lp3491
g62
(g83
g64
NtRp3492
(dp3493
g67
(dp3494
g87
g88
ssg76
g3488
sg69
(lp3495
S'wsgi.url_scheme'
p3496
asbag62
(g83
g64
NtRp3497
(dp3498
g67
(dp3499
g94
g95
ssg76
g3488
sg69
(lp3500
S':'
asbag62
(g83
g64
NtRp3501
(dp3502
g67
(dp3503
sg76
g3488
sg69
(lp3504
g62
(g63
g64
NtRp3505
(dp3506
g67
(dp3507
g75
I3
ssg76
g3501
sg69
(lp3508
g2166
asbasbasbag62
(g78
g64
NtRp3509
(dp3510
g67
(dp3511
sg76
g2977
sg69
(lp3512
g62
(g83
g64
NtRp3513
(dp3514
g67
(dp3515
g87
g88
ssg76
g3509
sg69
(lp3516
S'wsgi.version'
p3517
asbag62
(g83
g64
NtRp3518
(dp3519
g67
(dp3520
g94
g95
ssg76
g3509
sg69
(lp3521
S':'
asbag62
(g83
g64
NtRp3522
(dp3523
g67
(dp3524
sg76
g3509
sg69
(lp3525
g62
(g63
g64
NtRp3526
(dp3527
g67
(dp3528
g75
I3
ssg76
g3522
sg69
(lp3529
S'1'
asbasbasbasbasbasbasbasbasbasbasbasbasbsS'frames'
p3530
(lp3531
(dp3532
S'file'
p3533
S'/Users/victorgirotto/Desktop/web2py-master/gluon/restricted.py'
p3534
sS'dump'
p3535
(dp3536
S'environment'
p3537
S"{'A': <class 'gluon.html.A'>, 'Auth': <class 'gluon.tools.Auth'>, 'B': <class 'gluon.html.B'>, 'BEAUTIFY': <class 'gluon.html.BEAUTIFY'>, 'BODY': <class 'gluon.html.BODY'>, 'BR': <class 'gluon.html.BR'>, 'BUTTON': <class 'gluon.html.BUTTON'>, 'CAT': <class 'gluon.html.CAT'>, 'CENTER': <class 'gluon.html.CENTER'>, 'CLEANUP': <class 'gluon.validators.CLEANUP'>, ...}"
p3538
sS'ccode'
p3539
S'<code object <module> at 0x10efe3730, file "/Use...s/CartesianPlane/controllers/default.py", line 1>'
p3540
ssS'lnum'
p3541
I212
sS'lines'
p3542
(dp3543
I207
S'    try:'
p3544
sI208
S'        if isinstance(code, types.CodeType):'
p3545
sI209
S'            ccode = code'
p3546
sI210
S'        else:'
p3547
sI211
S'            ccode = compile2(code, layer)'
p3548
sI212
S'        exec ccode in environment'
p3549
sI213
S'    except HTTP:'
p3550
sI214
S'        raise'
p3551
sI215
S'    except RestrictedError:'
p3552
sI216
S'        # do not encapsulate (obfuscate) the original RestrictedError'
p3553
ssS'call'
p3554
S"(code='import os\\nimport socket\\nfrom xmlrpclib import Se...urn data\\nresponse._vars=response._caller(applet)\\n', environment={'A': <class 'gluon.html.A'>, 'Auth': <class 'gluon.tools.Auth'>, 'B': <class 'gluon.html.B'>, 'BEAUTIFY': <class 'gluon.html.BEAUTIFY'>, 'BODY': <class 'gluon.html.BODY'>, 'BR': <class 'gluon.html.BR'>, 'BUTTON': <class 'gluon.html.BUTTON'>, 'CAT': <class 'gluon.html.CAT'>, 'CENTER': <class 'gluon.html.CENTER'>, 'CLEANUP': <class 'gluon.validators.CLEANUP'>, ...}, layer='/Users/victorgirotto/Desktop/web2py-master/applications/CartesianPlane/controllers/default.py')"
p3555
sS'func'
p3556
S'restricted'
p3557
sa(dp3558
g3533
S'/Users/victorgirotto/Desktop/web2py-master/applications/CartesianPlane/controllers/default.py'
p3559
sg3535
(dp3560
sg3541
I64
sg3542
(dp3561
I54
S'@service.xmlrpc'
p3562
sI55
S'def executeEvent(data):'
p3563
sI56
S"    db.menuOptions2.update_or_insert(db.menuOptions2.name=='test', name='test', value=data)"
p3564
sI57
S"    websocket_send('http://' + __current_ip + ':' + __socket_port, data, 'mykey', __socket_group_name)"
p3565
sI58
S'    return data'
p3566
sI59
S''
sI60
S'@service.xmlrpc'
p3567
sI61
S'def executeSteps(data):'
p3568
sI62
S"    websocket_send('http://' + __current_ip + ':' + __socket_port, data, 'mykey', __socket_group_name)"
p3569
sI63
S'    return data'
p3570
ssg3554
S'()'
p3571
sg3556
S'<module>'
p3572
sa(dp3573
g3533
S'/Users/victorgirotto/Desktop/web2py-master/gluon/globals.py'
p3574
sg3535
(dp3575
S'self'
p3576
S'undefined'
p3577
sS'f'
S'<function applet>'
p3578
ssg3541
I190
sg3542
(dp3579
I192
S'        self._custom_commit = None'
p3580
sI193
S'        self._custom_rollback = None'
p3581
sI194
S''
sI185
S'        self.menu = []             # used by the default view layout'
p3582
sI186
S'        self.files = []            # used by web2py_ajax.html'
p3583
sI187
S'        self.generic_patterns = []  # patterns to allow generic views'
p3584
sI188
S"        self.delimiters = ('{{', '}}')"
p3585
sI189
S'        self._vars = None'
p3586
sI190
S'        self._caller = lambda f: f()'
p3587
sI191
S'        self._view_environment = None'
p3588
ssg3554
S'(f=<function applet>)'
p3589
sg3556
S'<lambda>'
p3590
sa(dp3591
g3533
S'/Users/victorgirotto/Desktop/web2py-master/applications/CartesianPlane/controllers/default.py'
p3592
sg3535
(dp3593
S'global __current_ip'
p3594
S"'127.0.0.1'"
p3595
sS'global applet'
p3596
S'<function applet>'
p3597
sS'global filename'
p3598
S"'/Users/victorgirotto/Desktop/web2py-master/applications/CartesianPlane/static/geoapp.html'"
p3599
sS'ip'
p3600
g3577
sS'builtinopen'
p3601
S'<built-in function open>'
p3602
sS'group_name'
p3603
g3577
sS'global __socket_group_name'
p3604
S"'applet'"
p3605
sS'global __socket_port'
p3606
S"'8888'"
p3607
sS').read'
p3608
g3577
sS'global XML'
p3609
S"<class 'gluon.html.XML'>"
p3610
sS'port'
p3611
g3577
sS'builtindict'
p3612
S"<type 'dict'>"
p3613
ssg3541
I27
sg3542
(dp3614
I22
S'### end requires'
p3615
sI23
S'def index():'
p3616
sI24
S'    return dict()'
p3617
sI25
S''
sI26
S'def applet():'
p3618
sI27
S'    return dict(applet=XML(open(filename).read()), ip=__current_ip, port=__socket_port, group_name=__socket_group_name)'
p3619
sI28
S''
sI29
S''
sI30
S'def loadOptions():'
p3620
sI31
S'    return server.loadOptions(response.json(request.vars))'
p3621
ssg3554
S'()'
p3622
sg3556
S'applet'
p3623
sasS'pyver'
p3624
S'Python 2.7.2: /usr/bin/python'
p3625
sS'session'
p3626
g62
(g63
g64
NtRp3627
(dp3628
g67
(dp3629
sg69
(lp3630
g62
(g71
g64
NtRp3631
(dp3632
g67
(dp3633
g75
I5
ssg76
Nsg69
(lp3634
sbasbsS'etype'
p3635
S"<type 'exceptions.IOError'>"
p3636
sS'date'
p3637
S'Thu Jan 24 17:07:22 2013'
p3638
sS'response'
p3639
g62
(g63
g64
NtRp3640
(dp3641
g67
(dp3642
sg69
(lp3643
g62
(g71
g64
NtRp3644
(dp3645
g67
(dp3646
g75
I5
ssg76
Nsg69
(lp3647
g62
(g78
g64
NtRp3648
(dp3649
g67
(dp3650
sg76
g3644
sg69
(lp3651
g62
(g83
g64
NtRp3652
(dp3653
g67
(dp3654
g87
g88
ssg76
g3648
sg69
(lp3655
g160
asbag62
(g83
g64
NtRp3656
(dp3657
g67
(dp3658
g94
g95
ssg76
g3648
sg69
(lp3659
S':'
asbag62
(g83
g64
NtRp3660
(dp3661
g67
(dp3662
sg76
g3648
sg69
(lp3663
g62
(g63
g64
NtRp3664
(dp3665
g67
(dp3666
g75
I5
ssg76
g3660
sg69
(lp3667
S'<cStringIO.StringO object at 0x10b7aaa78>'
p3668
asbasbasbag62
(g78
g64
NtRp3669
(dp3670
g67
(dp3671
sg76
g3644
sg69
(lp3672
g62
(g83
g64
NtRp3673
(dp3674
g67
(dp3675
g87
g88
ssg76
g3669
sg69
(lp3676
g248
asbag62
(g83
g64
NtRp3677
(dp3678
g67
(dp3679
g94
g95
ssg76
g3669
sg69
(lp3680
S':'
asbag62
(g83
g64
NtRp3681
(dp3682
g67
(dp3683
sg76
g3669
sg69
(lp3684
g62
(g63
g64
NtRp3685
(dp3686
g67
(dp3687
g75
I5
ssg76
g3681
sg69
(lp3688
g62
(g71
g64
NtRp3689
(dp3690
g67
(dp3691
g75
I4
ssg76
Nsg69
(lp3692
g62
(g78
g64
NtRp3693
(dp3694
g67
(dp3695
sg76
g3689
sg69
(lp3696
g62
(g83
g64
NtRp3697
(dp3698
g67
(dp3699
g87
g88
ssg76
g3693
sg69
(lp3700
S'session_id_cartesianplane'
p3701
asbag62
(g83
g64
NtRp3702
(dp3703
g67
(dp3704
g94
g95
ssg76
g3693
sg69
(lp3705
S':'
asbag62
(g83
g64
NtRp3706
(dp3707
g67
(dp3708
sg76
g3693
sg69
(lp3709
g62
(g63
g64
NtRp3710
(dp3711
g67
(dp3712
g75
I4
ssg76
g3706
sg69
(lp3713
S'127.0.0.1-9332a035-b297-4f91-8ec9-c631ad06ad9d'
p3714
ag62
(g71
g64
NtRp3715
(dp3716
g67
(dp3717
g75
I3
ssg76
Nsg69
(lp3718
g62
(g78
g64
NtRp3719
(dp3720
g67
(dp3721
sg76
g3715
sg69
(lp3722
g62
(g83
g64
NtRp3723
(dp3724
g67
(dp3725
g87
g88
ssg76
g3719
sg69
(lp3726
g299
asbag62
(g83
g64
NtRp3727
(dp3728
g67
(dp3729
g94
g95
ssg76
g3719
sg69
(lp3730
S':'
asbag62
(g83
g64
NtRp3731
(dp3732
g67
(dp3733
sg76
g3719
sg69
(lp3734
g62
(g63
g64
NtRp3735
(dp3736
g67
(dp3737
g75
I3
ssg76
g3731
sg69
(lp3738
S''
asbasbasbag62
(g78
g64
NtRp3739
(dp3740
g67
(dp3741
sg76
g3715
sg69
(lp3742
g62
(g83
g64
NtRp3743
(dp3744
g67
(dp3745
g87
g88
ssg76
g3739
sg69
(lp3746
g320
asbag62
(g83
g64
NtRp3747
(dp3748
g67
(dp3749
g94
g95
ssg76
g3739
sg69
(lp3750
S':'
asbag62
(g83
g64
NtRp3751
(dp3752
g67
(dp3753
sg76
g3739
sg69
(lp3754
g62
(g63
g64
NtRp3755
(dp3756
g67
(dp3757
g75
I3
ssg76
g3751
sg69
(lp3758
S''
asbasbasbag62
(g78
g64
NtRp3759
(dp3760
g67
(dp3761
sg76
g3715
sg69
(lp3762
g62
(g83
g64
NtRp3763
(dp3764
g67
(dp3765
g87
g88
ssg76
g3759
sg69
(lp3766
g341
asbag62
(g83
g64
NtRp3767
(dp3768
g67
(dp3769
g94
g95
ssg76
g3759
sg69
(lp3770
S':'
asbag62
(g83
g64
NtRp3771
(dp3772
g67
(dp3773
sg76
g3759
sg69
(lp3774
g62
(g63
g64
NtRp3775
(dp3776
g67
(dp3777
g75
I3
ssg76
g3771
sg69
(lp3778
S''
asbasbasbag62
(g78
g64
NtRp3779
(dp3780
g67
(dp3781
sg76
g3715
sg69
(lp3782
g62
(g83
g64
NtRp3783
(dp3784
g67
(dp3785
g87
g88
ssg76
g3779
sg69
(lp3786
g362
asbag62
(g83
g64
NtRp3787
(dp3788
g67
(dp3789
g94
g95
ssg76
g3779
sg69
(lp3790
S':'
asbag62
(g83
g64
NtRp3791
(dp3792
g67
(dp3793
sg76
g3779
sg69
(lp3794
g62
(g63
g64
NtRp3795
(dp3796
g67
(dp3797
g75
I3
ssg76
g3791
sg69
(lp3798
S''
asbasbasbag62
(g78
g64
NtRp3799
(dp3800
g67
(dp3801
sg76
g3715
sg69
(lp3802
g62
(g83
g64
NtRp3803
(dp3804
g67
(dp3805
g87
g88
ssg76
g3799
sg69
(lp3806
g383
asbag62
(g83
g64
NtRp3807
(dp3808
g67
(dp3809
g94
g95
ssg76
g3799
sg69
(lp3810
S':'
asbag62
(g83
g64
NtRp3811
(dp3812
g67
(dp3813
sg76
g3799
sg69
(lp3814
g62
(g63
g64
NtRp3815
(dp3816
g67
(dp3817
g75
I3
ssg76
g3811
sg69
(lp3818
S''
asbasbasbag62
(g78
g64
NtRp3819
(dp3820
g67
(dp3821
sg76
g3715
sg69
(lp3822
g62
(g83
g64
NtRp3823
(dp3824
g67
(dp3825
g87
g88
ssg76
g3819
sg69
(lp3826
g404
asbag62
(g83
g64
NtRp3827
(dp3828
g67
(dp3829
g94
g95
ssg76
g3819
sg69
(lp3830
S':'
asbag62
(g83
g64
NtRp3831
(dp3832
g67
(dp3833
sg76
g3819
sg69
(lp3834
g62
(g63
g64
NtRp3835
(dp3836
g67
(dp3837
g75
I3
ssg76
g3831
sg69
(lp3838
S'/'
asbasbasbag62
(g78
g64
NtRp3839
(dp3840
g67
(dp3841
sg76
g3715
sg69
(lp3842
g62
(g83
g64
NtRp3843
(dp3844
g67
(dp3845
g87
g88
ssg76
g3839
sg69
(lp3846
g425
asbag62
(g83
g64
NtRp3847
(dp3848
g67
(dp3849
g94
g95
ssg76
g3839
sg69
(lp3850
S':'
asbag62
(g83
g64
NtRp3851
(dp3852
g67
(dp3853
sg76
g3839
sg69
(lp3854
g62
(g63
g64
NtRp3855
(dp3856
g67
(dp3857
g75
I3
ssg76
g3851
sg69
(lp3858
S''
asbasbasbag62
(g78
g64
NtRp3859
(dp3860
g67
(dp3861
sg76
g3715
sg69
(lp3862
g62
(g83
g64
NtRp3863
(dp3864
g67
(dp3865
g87
g88
ssg76
g3859
sg69
(lp3866
g446
asbag62
(g83
g64
NtRp3867
(dp3868
g67
(dp3869
g94
g95
ssg76
g3859
sg69
(lp3870
S':'
asbag62
(g83
g64
NtRp3871
(dp3872
g67
(dp3873
sg76
g3859
sg69
(lp3874
g62
(g63
g64
NtRp3875
(dp3876
g67
(dp3877
g75
I3
ssg76
g3871
sg69
(lp3878
S''
asbasbasbasbasbasbasbasbasbasbasbag62
(g78
g64
NtRp3879
(dp3880
g67
(dp3881
sg76
g3644
sg69
(lp3882
g62
(g83
g64
NtRp3883
(dp3884
g67
(dp3885
g87
g88
ssg76
g3879
sg69
(lp3886
S'delimiters'
p3887
asbag62
(g83
g64
NtRp3888
(dp3889
g67
(dp3890
g94
g95
ssg76
g3879
sg69
(lp3891
S':'
asbag62
(g83
g64
NtRp3892
(dp3893
g67
(dp3894
sg76
g3879
sg69
(lp3895
g62
(g63
g64
NtRp3896
(dp3897
g67
(dp3898
g75
I5
ssg76
g3892
sg69
(lp3899
g62
(g71
g64
NtRp3900
(dp3901
g67
(dp3902
g75
I4
ssg76
Nsg69
(lp3903
g62
(g78
g64
NtRp3904
(dp3905
g67
(dp3906
sg76
g3900
sg69
(lp3907
g62
(g83
g64
NtRp3908
(dp3909
g67
(dp3910
sg76
g3904
sg69
(lp3911
g62
(g63
g64
NtRp3912
(dp3913
g67
(dp3914
g75
I4
ssg76
g3908
sg69
(lp3915
S'{{'
p3916
asbasbasbag62
(g78
g64
NtRp3917
(dp3918
g67
(dp3919
sg76
g3900
sg69
(lp3920
g62
(g83
g64
NtRp3921
(dp3922
g67
(dp3923
sg76
g3917
sg69
(lp3924
g62
(g63
g64
NtRp3925
(dp3926
g67
(dp3927
g75
I4
ssg76
g3921
sg69
(lp3928
S'}}'
p3929
asbasbasbasbasbasbasbag62
(g78
g64
NtRp3930
(dp3931
g67
(dp3932
sg76
g3644
sg69
(lp3933
g62
(g83
g64
NtRp3934
(dp3935
g67
(dp3936
g87
g88
ssg76
g3930
sg69
(lp3937
S'files'
p3938
asbag62
(g83
g64
NtRp3939
(dp3940
g67
(dp3941
g94
g95
ssg76
g3930
sg69
(lp3942
S':'
asbag62
(g83
g64
NtRp3943
(dp3944
g67
(dp3945
sg76
g3930
sg69
(lp3946
g62
(g63
g64
NtRp3947
(dp3948
g67
(dp3949
g75
I5
ssg76
g3943
sg69
(lp3950
g62
(g71
g64
NtRp3951
(dp3952
g67
(dp3953
g75
I4
ssg76
Nsg69
(lp3954
sbasbasbasbag62
(g78
g64
NtRp3955
(dp3956
g67
(dp3957
sg76
g3644
sg69
(lp3958
g62
(g83
g64
NtRp3959
(dp3960
g67
(dp3961
g87
g88
ssg76
g3955
sg69
(lp3962
S'flash'
p3963
asbag62
(g83
g64
NtRp3964
(dp3965
g67
(dp3966
g94
g95
ssg76
g3955
sg69
(lp3967
S':'
asbag62
(g83
g64
NtRp3968
(dp3969
g67
(dp3970
sg76
g3955
sg69
(lp3971
g62
(g63
g64
NtRp3972
(dp3973
g67
(dp3974
g75
I5
ssg76
g3968
sg69
(lp3975
S''
asbasbasbag62
(g78
g64
NtRp3976
(dp3977
g67
(dp3978
sg76
g3644
sg69
(lp3979
g62
(g83
g64
NtRp3980
(dp3981
g67
(dp3982
g87
g88
ssg76
g3976
sg69
(lp3983
S'generic_patterns'
p3984
asbag62
(g83
g64
NtRp3985
(dp3986
g67
(dp3987
g94
g95
ssg76
g3976
sg69
(lp3988
S':'
asbag62
(g83
g64
NtRp3989
(dp3990
g67
(dp3991
sg76
g3976
sg69
(lp3992
g62
(g63
g64
NtRp3993
(dp3994
g67
(dp3995
g75
I5
ssg76
g3989
sg69
(lp3996
g62
(g71
g64
NtRp3997
(dp3998
g67
(dp3999
g75
I4
ssg76
Nsg69
(lp4000
g62
(g78
g64
NtRp4001
(dp4002
g67
(dp4003
sg76
g3997
sg69
(lp4004
g62
(g83
g64
NtRp4005
(dp4006
g67
(dp4007
sg76
g4001
sg69
(lp4008
g62
(g63
g64
NtRp4009
(dp4010
g67
(dp4011
g75
I4
ssg76
g4005
sg69
(lp4012
S'*'
asbasbasbasbasbasbasbag62
(g78
g64
NtRp4013
(dp4014
g67
(dp4015
sg76
g3644
sg69
(lp4016
g62
(g83
g64
NtRp4017
(dp4018
g67
(dp4019
g87
g88
ssg76
g4013
sg69
(lp4020
S'google_analytics_id'
p4021
asbag62
(g83
g64
NtRp4022
(dp4023
g67
(dp4024
g94
g95
ssg76
g4013
sg69
(lp4025
S':'
asbag62
(g83
g64
NtRp4026
(dp4027
g67
(dp4028
sg76
g4013
sg69
(lp4029
g62
(g63
g64
NtRp4030
(dp4031
g67
(dp4032
g75
I5
ssg76
g4026
sg69
(lp4033
S'None'
p4034
asbasbasbag62
(g78
g64
NtRp4035
(dp4036
g67
(dp4037
sg76
g3644
sg69
(lp4038
g62
(g83
g64
NtRp4039
(dp4040
g67
(dp4041
g87
g88
ssg76
g4035
sg69
(lp4042
S'headers'
p4043
asbag62
(g83
g64
NtRp4044
(dp4045
g67
(dp4046
g94
g95
ssg76
g4035
sg69
(lp4047
S':'
asbag62
(g83
g64
NtRp4048
(dp4049
g67
(dp4050
sg76
g4035
sg69
(lp4051
g62
(g63
g64
NtRp4052
(dp4053
g67
(dp4054
g75
I5
ssg76
g4048
sg69
(lp4055
g62
(g71
g64
NtRp4056
(dp4057
g67
(dp4058
g75
I4
ssg76
Nsg69
(lp4059
g62
(g78
g64
NtRp4060
(dp4061
g67
(dp4062
sg76
g4056
sg69
(lp4063
g62
(g83
g64
NtRp4064
(dp4065
g67
(dp4066
g87
g88
ssg76
g4060
sg69
(lp4067
S'X-Powered-By'
p4068
asbag62
(g83
g64
NtRp4069
(dp4070
g67
(dp4071
g94
g95
ssg76
g4060
sg69
(lp4072
S':'
asbag62
(g83
g64
NtRp4073
(dp4074
g67
(dp4075
sg76
g4060
sg69
(lp4076
g62
(g63
g64
NtRp4077
(dp4078
g67
(dp4079
g75
I4
ssg76
g4073
sg69
(lp4080
S'web2py'
p4081
asbasbasbasbasbasbasbag62
(g78
g64
NtRp4082
(dp4083
g67
(dp4084
sg76
g3644
sg69
(lp4085
g62
(g83
g64
NtRp4086
(dp4087
g67
(dp4088
g87
g88
ssg76
g4082
sg69
(lp4089
S'menu'
p4090
asbag62
(g83
g64
NtRp4091
(dp4092
g67
(dp4093
g94
g95
ssg76
g4082
sg69
(lp4094
S':'
asbag62
(g83
g64
NtRp4095
(dp4096
g67
(dp4097
sg76
g4082
sg69
(lp4098
g62
(g63
g64
NtRp4099
(dp4100
g67
(dp4101
g75
I5
ssg76
g4095
sg69
(lp4102
g62
(g71
g64
NtRp4103
(dp4104
g67
(dp4105
g75
I4
ssg76
Nsg69
(lp4106
g62
(g78
g64
NtRp4107
(dp4108
g67
(dp4109
sg76
g4103
sg69
(lp4110
g62
(g83
g64
NtRp4111
(dp4112
g67
(dp4113
sg76
g4107
sg69
(lp4114
g62
(g63
g64
NtRp4115
(dp4116
g67
(dp4117
g75
I4
ssg76
g4111
sg69
(lp4118
g62
(g71
g64
NtRp4119
(dp4120
g67
(dp4121
g75
I3
ssg76
Nsg69
(lp4122
g62
(g78
g64
NtRp4123
(dp4124
g67
(dp4125
sg76
g4119
sg69
(lp4126
g62
(g83
g64
NtRp4127
(dp4128
g67
(dp4129
sg76
g4123
sg69
(lp4130
g62
(g63
g64
NtRp4131
(dp4132
g67
(dp4133
g75
I3
ssg76
g4127
sg69
(lp4134
cgluon.languages
lazyT_unpickle
p4135
(S's\x04\x00\x00\x00Home'
tRp4136
asbasbasbag62
(g78
g64
NtRp4137
(dp4138
g67
(dp4139
sg76
g4119
sg69
(lp4140
g62
(g83
g64
NtRp4141
(dp4142
g67
(dp4143
sg76
g4137
sg69
(lp4144
g62
(g63
g64
NtRp4145
(dp4146
g67
(dp4147
g75
I3
ssg76
g4141
sg69
(lp4148
g105
asbasbasbag62
(g78
g64
NtRp4149
(dp4150
g67
(dp4151
sg76
g4119
sg69
(lp4152
g62
(g83
g64
NtRp4153
(dp4154
g67
(dp4155
sg76
g4149
sg69
(lp4156
g62
(g63
g64
NtRp4157
(dp4158
g67
(dp4159
g75
I3
ssg76
g4153
sg69
(lp4160
S'/CartesianPlane/default/index'
p4161
asbasbasbag62
(g78
g64
NtRp4162
(dp4163
g67
(dp4164
sg76
g4119
sg69
(lp4165
g62
(g83
g64
NtRp4166
(dp4167
g67
(dp4168
sg76
g4162
sg69
(lp4169
g62
(g63
g64
NtRp4170
(dp4171
g67
(dp4172
g75
I3
ssg76
g4166
sg69
(lp4173
g62
(g71
g64
NtRp4174
(dp4175
g67
(dp4176
g75
I2
ssg76
Nsg69
(lp4177
sbasbasbasbasbasbasbasbag62
(g78
g64
NtRp4178
(dp4179
g67
(dp4180
sg76
g4103
sg69
(lp4181
g62
(g83
g64
NtRp4182
(dp4183
g67
(dp4184
sg76
g4178
sg69
(lp4185
g62
(g63
g64
NtRp4186
(dp4187
g67
(dp4188
g75
I4
ssg76
g4182
sg69
(lp4189
g62
(g71
g64
NtRp4190
(dp4191
g67
(dp4192
g75
I3
ssg76
Nsg69
(lp4193
g62
(g78
g64
NtRp4194
(dp4195
g67
(dp4196
sg76
g4190
sg69
(lp4197
g62
(g83
g64
NtRp4198
(dp4199
g67
(dp4200
sg76
g4194
sg69
(lp4201
g62
(g63
g64
NtRp4202
(dp4203
g67
(dp4204
g75
I3
ssg76
g4198
sg69
(lp4205
g62
(cgluon.html
SPAN
p4206
g64
NtRp4207
(dp4208
g67
(dp4209
S'_class'
p4210
S'highlighted'
p4211
ssg76
Nsg69
(lp4212
g4081
asbasbasbasbag62
(g78
g64
NtRp4213
(dp4214
g67
(dp4215
sg76
g4190
sg69
(lp4216
g62
(g83
g64
NtRp4217
(dp4218
g67
(dp4219
sg76
g4213
sg69
(lp4220
g62
(g63
g64
NtRp4221
(dp4222
g67
(dp4223
g75
I3
ssg76
g4217
sg69
(lp4224
g105
asbasbasbag62
(g78
g64
NtRp4225
(dp4226
g67
(dp4227
sg76
g4190
sg69
(lp4228
g62
(g83
g64
NtRp4229
(dp4230
g67
(dp4231
sg76
g4225
sg69
(lp4232
g62
(g63
g64
NtRp4233
(dp4234
g67
(dp4235
g75
I3
ssg76
g4229
sg69
(lp4236
S'http://web2py.com'
p4237
asbasbasbag62
(g78
g64
NtRp4238
(dp4239
g67
(dp4240
sg76
g4190
sg69
(lp4241
g62
(g83
g64
NtRp4242
(dp4243
g67
(dp4244
sg76
g4238
sg69
(lp4245
g62
(g63
g64
NtRp4246
(dp4247
g67
(dp4248
g75
I3
ssg76
g4242
sg69
(lp4249
g62
(g71
g64
NtRp4250
(dp4251
g67
(dp4252
g75
I2
ssg76
Nsg69
(lp4253
g62
(g78
g64
NtRp4254
(dp4255
g67
(dp4256
sg76
g4250
sg69
(lp4257
g62
(g83
g64
NtRp4258
(dp4259
g67
(dp4260
sg76
g4254
sg69
(lp4261
g62
(g63
g64
NtRp4262
(dp4263
g67
(dp4264
g75
I2
ssg76
g4258
sg69
(lp4265
g62
(g71
g64
NtRp4266
(dp4267
g67
(dp4268
g75
I1
ssg76
Nsg69
(lp4269
g62
(g78
g64
NtRp4270
(dp4271
g67
(dp4272
sg76
g4266
sg69
(lp4273
g62
(g83
g64
NtRp4274
(dp4275
g67
(dp4276
sg76
g4270
sg69
(lp4277
g62
(g63
g64
NtRp4278
(dp4279
g67
(dp4280
g75
I1
ssg76
g4274
sg69
(lp4281
g4135
(S's\x08\x00\x00\x00My Sites'
tRp4282
asbasbasbag62
(g78
g64
NtRp4283
(dp4284
g67
(dp4285
sg76
g4266
sg69
(lp4286
g62
(g83
g64
NtRp4287
(dp4288
g67
(dp4289
sg76
g4283
sg69
(lp4290
g62
(g63
g64
NtRp4291
(dp4292
g67
(dp4293
g75
I1
ssg76
g4287
sg69
(lp4294
I00
asbasbasbag62
(g78
g64
NtRp4295
(dp4296
g67
(dp4297
sg76
g4266
sg69
(lp4298
g62
(g83
g64
NtRp4299
(dp4300
g67
(dp4301
sg76
g4295
sg69
(lp4302
g62
(g63
g64
NtRp4303
(dp4304
g67
(dp4305
g75
I1
ssg76
g4299
sg69
(lp4306
S'/admin/default/site'
p4307
asbasbasbasbasbasbasbag62
(g78
g64
NtRp4308
(dp4309
g67
(dp4310
sg76
g4250
sg69
(lp4311
g62
(g83
g64
NtRp4312
(dp4313
g67
(dp4314
sg76
g4308
sg69
(lp4315
g62
(g63
g64
NtRp4316
(dp4317
g67
(dp4318
g75
I2
ssg76
g4312
sg69
(lp4319
g62
(g71
g64
NtRp4320
(dp4321
g67
(dp4322
g75
I1
ssg76
Nsg69
(lp4323
g62
(g78
g64
NtRp4324
(dp4325
g67
(dp4326
sg76
g4320
sg69
(lp4327
g62
(g83
g64
NtRp4328
(dp4329
g67
(dp4330
sg76
g4324
sg69
(lp4331
g62
(g63
g64
NtRp4332
(dp4333
g67
(dp4334
g75
I1
ssg76
g4328
sg69
(lp4335
g4135
(S's\x08\x00\x00\x00This App'
tRp4336
asbasbasbag62
(g78
g64
NtRp4337
(dp4338
g67
(dp4339
sg76
g4320
sg69
(lp4340
g62
(g83
g64
NtRp4341
(dp4342
g67
(dp4343
sg76
g4337
sg69
(lp4344
g62
(g63
g64
NtRp4345
(dp4346
g67
(dp4347
g75
I1
ssg76
g4341
sg69
(lp4348
I00
asbasbasbag62
(g78
g64
NtRp4349
(dp4350
g67
(dp4351
sg76
g4320
sg69
(lp4352
g62
(g83
g64
NtRp4353
(dp4354
g67
(dp4355
sg76
g4349
sg69
(lp4356
g62
(g63
g64
NtRp4357
(dp4358
g67
(dp4359
g75
I1
ssg76
g4353
sg69
(lp4360
S'/admin/default/design/CartesianPlane'
p4361
asbasbasbag62
(g78
g64
NtRp4362
(dp4363
g67
(dp4364
sg76
g4320
sg69
(lp4365
g62
(g83
g64
NtRp4366
(dp4367
g67
(dp4368
sg76
g4362
sg69
(lp4369
g62
(g63
g64
NtRp4370
(dp4371
g67
(dp4372
g75
I1
ssg76
g4366
sg69
(lp4373
(lp4374
(g4135
(S's\x0b\x00\x00\x00Controlador'
tRp4375
I00
S'/admin/default/edit/CartesianPlane/controllers/default.py'
tp4376
a(g4135
(S's\x0e\x00\x00\x00Visualiza\xc3\xa7\xc3\xa3o'
tRp4377
I00
S'/admin/default/edit/CartesianPlane/views/default/applet.html'
tp4378
a(g4135
(S's\x06\x00\x00\x00Layout'
tRp4379
I00
S'/admin/default/edit/CartesianPlane/views/layout.html'
tp4380
a(g4135
(S's\n\x00\x00\x00Stylesheet'
tRp4381
I00
S'/admin/default/edit/CartesianPlane/static/css/web2py.css'
tp4382
a(g4135
(S's\t\x00\x00\x00Modelo BD'
tRp4383
I00
S'/admin/default/edit/CartesianPlane/models/db.py'
tp4384
a(g4135
(S's\x0e\x00\x00\x00Modelo de Menu'
tRp4385
I00
S'/admin/default/edit/CartesianPlane/models/menu.py'
tp4386
a(g4135
(S's\x0e\x00\x00\x00banco de dados'
tRp4387
I00
S'/CartesianPlane/appadmin/index'
tp4388
a(g4135
(S's\x06\x00\x00\x00Errors'
tRp4389
I00
S'/admin/default/errors/CartesianPlane'
tp4390
a(g4135
(S's\x05\x00\x00\x00About'
tRp4391
I00
S'/admin/default/about/CartesianPlane'
tp4392
aasbasbasbasbasbasbasbag62
(g78
g64
NtRp4393
(dp4394
g67
(dp4395
sg76
g4250
sg69
(lp4396
g62
(g83
g64
NtRp4397
(dp4398
g67
(dp4399
sg76
g4393
sg69
(lp4400
g62
(g63
g64
NtRp4401
(dp4402
g67
(dp4403
g75
I2
ssg76
g4397
sg69
(lp4404
g62
(g71
g64
NtRp4405
(dp4406
g67
(dp4407
g75
I1
ssg76
Nsg69
(lp4408
g62
(g78
g64
NtRp4409
(dp4410
g67
(dp4411
sg76
g4405
sg69
(lp4412
g62
(g83
g64
NtRp4413
(dp4414
g67
(dp4415
sg76
g4409
sg69
(lp4416
g62
(g63
g64
NtRp4417
(dp4418
g67
(dp4419
g75
I1
ssg76
g4413
sg69
(lp4420
S'web2py.com'
p4421
asbasbasbag62
(g78
g64
NtRp4422
(dp4423
g67
(dp4424
sg76
g4405
sg69
(lp4425
g62
(g83
g64
NtRp4426
(dp4427
g67
(dp4428
sg76
g4422
sg69
(lp4429
g62
(g63
g64
NtRp4430
(dp4431
g67
(dp4432
g75
I1
ssg76
g4426
sg69
(lp4433
I00
asbasbasbag62
(g78
g64
NtRp4434
(dp4435
g67
(dp4436
sg76
g4405
sg69
(lp4437
g62
(g83
g64
NtRp4438
(dp4439
g67
(dp4440
sg76
g4434
sg69
(lp4441
g62
(g63
g64
NtRp4442
(dp4443
g67
(dp4444
g75
I1
ssg76
g4438
sg69
(lp4445
S'http://www.web2py.com'
p4446
asbasbasbag62
(g78
g64
NtRp4447
(dp4448
g67
(dp4449
sg76
g4405
sg69
(lp4450
g62
(g83
g64
NtRp4451
(dp4452
g67
(dp4453
sg76
g4447
sg69
(lp4454
g62
(g63
g64
NtRp4455
(dp4456
g67
(dp4457
g75
I1
ssg76
g4451
sg69
(lp4458
(lp4459
(g4135
(S's\x08\x00\x00\x00Download'
tRp4460
I00
S'http://www.web2py.com/examples/default/download'
p4461
tp4462
a(g4135
(S's\x07\x00\x00\x00Support'
tRp4463
I00
S'http://www.web2py.com/examples/default/support'
p4464
tp4465
a(g4135
(S's\x04\x00\x00\x00Demo'
tRp4466
I00
S'http://web2py.com/demo_admin'
p4467
tp4468
a(g4135
(S's\x0e\x00\x00\x00Quick Examples'
tRp4469
I00
S'http://web2py.com/examples/default/examples'
p4470
tp4471
a(g4135
(S's\x03\x00\x00\x00FAQ'
tRp4472
I00
S'http://web2py.com/AlterEgo'
p4473
tp4474
a(g4135
(S's\x06\x00\x00\x00Videos'
tRp4475
I00
S'http://www.web2py.com/examples/default/videos/'
p4476
tp4477
a(g4135
(S's\x11\x00\x00\x00Free Applications'
tRp4478
I00
S'http://web2py.com/appliances'
p4479
tp4480
a(g4135
(S's\x07\x00\x00\x00Plugins'
tRp4481
I00
S'http://web2py.com/plugins'
p4482
tp4483
a(g4135
(S's\x07\x00\x00\x00Layouts'
tRp4484
I00
S'http://web2py.com/layouts'
p4485
tp4486
a(g4135
(S's\x07\x00\x00\x00Recipes'
tRp4487
I00
S'http://web2pyslices.com/'
p4488
tp4489
a(g4135
(S's\x08\x00\x00\x00Semantic'
tRp4490
I00
S'http://web2py.com/semantic'
p4491
tp4492
aasbasbasbasbasbasbasbag62
(g78
g64
NtRp4493
(dp4494
g67
(dp4495
sg76
g4250
sg69
(lp4496
g62
(g83
g64
NtRp4497
(dp4498
g67
(dp4499
sg76
g4493
sg69
(lp4500
g62
(g63
g64
NtRp4501
(dp4502
g67
(dp4503
g75
I2
ssg76
g4497
sg69
(lp4504
g62
(g71
g64
NtRp4505
(dp4506
g67
(dp4507
g75
I1
ssg76
Nsg69
(lp4508
g62
(g78
g64
NtRp4509
(dp4510
g67
(dp4511
sg76
g4505
sg69
(lp4512
g62
(g83
g64
NtRp4513
(dp4514
g67
(dp4515
sg76
g4509
sg69
(lp4516
g62
(g63
g64
NtRp4517
(dp4518
g67
(dp4519
g75
I1
ssg76
g4513
sg69
(lp4520
g4135
(S's\r\x00\x00\x00Documentation'
tRp4521
asbasbasbag62
(g78
g64
NtRp4522
(dp4523
g67
(dp4524
sg76
g4505
sg69
(lp4525
g62
(g83
g64
NtRp4526
(dp4527
g67
(dp4528
sg76
g4522
sg69
(lp4529
g62
(g63
g64
NtRp4530
(dp4531
g67
(dp4532
g75
I1
ssg76
g4526
sg69
(lp4533
I00
asbasbasbag62
(g78
g64
NtRp4534
(dp4535
g67
(dp4536
sg76
g4505
sg69
(lp4537
g62
(g83
g64
NtRp4538
(dp4539
g67
(dp4540
sg76
g4534
sg69
(lp4541
g62
(g63
g64
NtRp4542
(dp4543
g67
(dp4544
g75
I1
ssg76
g4538
sg69
(lp4545
S'http://www.web2py.com/book'
p4546
asbasbasbag62
(g78
g64
NtRp4547
(dp4548
g67
(dp4549
sg76
g4505
sg69
(lp4550
g62
(g83
g64
NtRp4551
(dp4552
g67
(dp4553
sg76
g4547
sg69
(lp4554
g62
(g63
g64
NtRp4555
(dp4556
g67
(dp4557
g75
I1
ssg76
g4551
sg69
(lp4558
(lp4559
(g4135
(S's\x07\x00\x00\x00Preface'
tRp4560
I00
S'http://www.web2py.com/book/default/chapter/00'
p4561
tp4562
a(g4135
(S's\x0c\x00\x00\x00Introduction'
tRp4563
I00
S'http://www.web2py.com/book/default/chapter/01'
p4564
tp4565
a(g4135
(S's\x06\x00\x00\x00Python'
tRp4566
I00
S'http://www.web2py.com/book/default/chapter/02'
p4567
tp4568
a(g4135
(S's\x08\x00\x00\x00Overview'
tRp4569
I00
S'http://www.web2py.com/book/default/chapter/03'
p4570
tp4571
a(g4135
(S's\x08\x00\x00\x00The Core'
tRp4572
I00
S'http://www.web2py.com/book/default/chapter/04'
p4573
tp4574
a(g4135
(S's\t\x00\x00\x00The Views'
tRp4575
I00
S'http://www.web2py.com/book/default/chapter/05'
p4576
tp4577
a(g4135
(S's\x0e\x00\x00\x00banco de dados'
tRp4578
I00
S'http://www.web2py.com/book/default/chapter/06'
p4579
tp4580
a(g4135
(S's\x14\x00\x00\x00Forms and Validators'
tRp4581
I00
S'http://www.web2py.com/book/default/chapter/07'
p4582
tp4583
a(g4135
(S's\r\x00\x00\x00Email and SMS'
tRp4584
I00
S'http://www.web2py.com/book/default/chapter/08'
p4585
tp4586
a(g4135
(S's\x0e\x00\x00\x00Access Control'
tRp4587
I00
S'http://www.web2py.com/book/default/chapter/09'
p4588
tp4589
a(g4135
(S's\x08\x00\x00\x00Services'
tRp4590
I00
S'http://www.web2py.com/book/default/chapter/10'
p4591
tp4592
a(g4135
(S's\x0c\x00\x00\x00Ajax Recipes'
tRp4593
I00
S'http://www.web2py.com/book/default/chapter/11'
p4594
tp4595
a(g4135
(S's\x16\x00\x00\x00Components and Plugins'
tRp4596
I00
S'http://www.web2py.com/book/default/chapter/12'
p4597
tp4598
a(g4135
(S's\x12\x00\x00\x00Deployment Recipes'
tRp4599
I00
S'http://www.web2py.com/book/default/chapter/13'
p4600
tp4601
a(g4135
(S's\r\x00\x00\x00Other Recipes'
tRp4602
I00
S'http://www.web2py.com/book/default/chapter/14'
p4603
tp4604
a(g4135
(S's\r\x00\x00\x00Buy this book'
tRp4605
I00
S'http://stores.lulu.com/web2py'
p4606
tp4607
aasbasbasbasbasbasbasbag62
(g78
g64
NtRp4608
(dp4609
g67
(dp4610
sg76
g4250
sg69
(lp4611
g62
(g83
g64
NtRp4612
(dp4613
g67
(dp4614
sg76
g4608
sg69
(lp4615
g62
(g63
g64
NtRp4616
(dp4617
g67
(dp4618
g75
I2
ssg76
g4612
sg69
(lp4619
g62
(g71
g64
NtRp4620
(dp4621
g67
(dp4622
g75
I1
ssg76
Nsg69
(lp4623
g62
(g78
g64
NtRp4624
(dp4625
g67
(dp4626
sg76
g4620
sg69
(lp4627
g62
(g83
g64
NtRp4628
(dp4629
g67
(dp4630
sg76
g4624
sg69
(lp4631
g62
(g63
g64
NtRp4632
(dp4633
g67
(dp4634
g75
I1
ssg76
g4628
sg69
(lp4635
g4135
(S's\t\x00\x00\x00Community'
tRp4636
asbasbasbag62
(g78
g64
NtRp4637
(dp4638
g67
(dp4639
sg76
g4620
sg69
(lp4640
g62
(g83
g64
NtRp4641
(dp4642
g67
(dp4643
sg76
g4637
sg69
(lp4644
g62
(g63
g64
NtRp4645
(dp4646
g67
(dp4647
g75
I1
ssg76
g4641
sg69
(lp4648
I00
asbasbasbag62
(g78
g64
NtRp4649
(dp4650
g67
(dp4651
sg76
g4620
sg69
(lp4652
g62
(g83
g64
NtRp4653
(dp4654
g67
(dp4655
sg76
g4649
sg69
(lp4656
g62
(g63
g64
NtRp4657
(dp4658
g67
(dp4659
g75
I1
ssg76
g4653
sg69
(lp4660
Nasbasbasbag62
(g78
g64
NtRp4661
(dp4662
g67
(dp4663
sg76
g4620
sg69
(lp4664
g62
(g83
g64
NtRp4665
(dp4666
g67
(dp4667
sg76
g4661
sg69
(lp4668
g62
(g63
g64
NtRp4669
(dp4670
g67
(dp4671
g75
I1
ssg76
g4665
sg69
(lp4672
(lp4673
(g4135
(S's\x06\x00\x00\x00Groups'
tRp4674
I00
S'http://www.web2py.com/examples/default/usergroups'
p4675
tp4676
a(g4135
(S's\x07\x00\x00\x00Twitter'
tRp4677
I00
S'http://twitter.com/web2py'
p4678
tp4679
a(g4135
(S's\t\x00\x00\x00Live Chat'
tRp4680
I00
S'http://webchat.freenode.net/?channels=web2py'
p4681
tp4682
aasbasbasbasbasbasbasbag62
(g78
g64
NtRp4683
(dp4684
g67
(dp4685
sg76
g4250
sg69
(lp4686
g62
(g83
g64
NtRp4687
(dp4688
g67
(dp4689
sg76
g4683
sg69
(lp4690
g62
(g63
g64
NtRp4691
(dp4692
g67
(dp4693
g75
I2
ssg76
g4687
sg69
(lp4694
g62
(g71
g64
NtRp4695
(dp4696
g67
(dp4697
g75
I1
ssg76
Nsg69
(lp4698
g62
(g78
g64
NtRp4699
(dp4700
g67
(dp4701
sg76
g4695
sg69
(lp4702
g62
(g83
g64
NtRp4703
(dp4704
g67
(dp4705
sg76
g4699
sg69
(lp4706
g62
(g63
g64
NtRp4707
(dp4708
g67
(dp4709
g75
I1
ssg76
g4703
sg69
(lp4710
g4135
(S's\x07\x00\x00\x00Plugins'
tRp4711
asbasbasbag62
(g78
g64
NtRp4712
(dp4713
g67
(dp4714
sg76
g4695
sg69
(lp4715
g62
(g83
g64
NtRp4716
(dp4717
g67
(dp4718
sg76
g4712
sg69
(lp4719
g62
(g63
g64
NtRp4720
(dp4721
g67
(dp4722
g75
I1
ssg76
g4716
sg69
(lp4723
I00
asbasbasbag62
(g78
g64
NtRp4724
(dp4725
g67
(dp4726
sg76
g4695
sg69
(lp4727
g62
(g83
g64
NtRp4728
(dp4729
g67
(dp4730
sg76
g4724
sg69
(lp4731
g62
(g63
g64
NtRp4732
(dp4733
g67
(dp4734
g75
I1
ssg76
g4728
sg69
(lp4735
Nasbasbasbag62
(g78
g64
NtRp4736
(dp4737
g67
(dp4738
sg76
g4695
sg69
(lp4739
g62
(g83
g64
NtRp4740
(dp4741
g67
(dp4742
sg76
g4736
sg69
(lp4743
g62
(g63
g64
NtRp4744
(dp4745
g67
(dp4746
g75
I1
ssg76
g4740
sg69
(lp4747
(lp4748
(S'plugin_wiki'
p4749
I00
S'http://web2py.com/examples/default/download'
p4750
tp4751
a(g4135
(S's\r\x00\x00\x00Other Plugins'
tRp4752
I00
g4482
tp4753
a(g4135
(S's\x0e\x00\x00\x00Layout Plugins'
tRp4754
I00
g4485
tp4755
aasbasbasbasbasbasbasbasbasbasbasbasbasbasbasbasbasbasbasbag62
(g78
g64
NtRp4756
(dp4757
g67
(dp4758
sg76
g3644
sg69
(lp4759
g62
(g83
g64
NtRp4760
(dp4761
g67
(dp4762
g87
g88
ssg76
g4756
sg69
(lp4763
S'meta'
p4764
asbag62
(g83
g64
NtRp4765
(dp4766
g67
(dp4767
g94
g95
ssg76
g4756
sg69
(lp4768
S':'
asbag62
(g83
g64
NtRp4769
(dp4770
g67
(dp4771
sg76
g4756
sg69
(lp4772
g62
(g63
g64
NtRp4773
(dp4774
g67
(dp4775
g75
I5
ssg76
g4769
sg69
(lp4776
g62
(g71
g64
NtRp4777
(dp4778
g67
(dp4779
g75
I4
ssg76
Nsg69
(lp4780
g62
(g78
g64
NtRp4781
(dp4782
g67
(dp4783
sg76
g4777
sg69
(lp4784
g62
(g83
g64
NtRp4785
(dp4786
g67
(dp4787
g87
g88
ssg76
g4781
sg69
(lp4788
S'author'
p4789
asbag62
(g83
g64
NtRp4790
(dp4791
g67
(dp4792
g94
g95
ssg76
g4781
sg69
(lp4793
S':'
asbag62
(g83
g64
NtRp4794
(dp4795
g67
(dp4796
sg76
g4781
sg69
(lp4797
g62
(g63
g64
NtRp4798
(dp4799
g67
(dp4800
g75
I4
ssg76
g4794
sg69
(lp4801
S'Your Name <you@example.com>'
p4802
asbasbasbag62
(g78
g64
NtRp4803
(dp4804
g67
(dp4805
sg76
g4777
sg69
(lp4806
g62
(g83
g64
NtRp4807
(dp4808
g67
(dp4809
g87
g88
ssg76
g4803
sg69
(lp4810
S'description'
p4811
asbag62
(g83
g64
NtRp4812
(dp4813
g67
(dp4814
g94
g95
ssg76
g4803
sg69
(lp4815
S':'
asbag62
(g83
g64
NtRp4816
(dp4817
g67
(dp4818
sg76
g4803
sg69
(lp4819
g62
(g63
g64
NtRp4820
(dp4821
g67
(dp4822
g75
I4
ssg76
g4816
sg69
(lp4823
S'a cool new app'
p4824
asbasbasbag62
(g78
g64
NtRp4825
(dp4826
g67
(dp4827
sg76
g4777
sg69
(lp4828
g62
(g83
g64
NtRp4829
(dp4830
g67
(dp4831
g87
g88
ssg76
g4825
sg69
(lp4832
S'generator'
p4833
asbag62
(g83
g64
NtRp4834
(dp4835
g67
(dp4836
g94
g95
ssg76
g4825
sg69
(lp4837
S':'
asbag62
(g83
g64
NtRp4838
(dp4839
g67
(dp4840
sg76
g4825
sg69
(lp4841
g62
(g63
g64
NtRp4842
(dp4843
g67
(dp4844
g75
I4
ssg76
g4838
sg69
(lp4845
S'Web2py Web Framework'
p4846
asbasbasbag62
(g78
g64
NtRp4847
(dp4848
g67
(dp4849
sg76
g4777
sg69
(lp4850
g62
(g83
g64
NtRp4851
(dp4852
g67
(dp4853
g87
g88
ssg76
g4847
sg69
(lp4854
S'keywords'
p4855
asbag62
(g83
g64
NtRp4856
(dp4857
g67
(dp4858
g94
g95
ssg76
g4847
sg69
(lp4859
S':'
asbag62
(g83
g64
NtRp4860
(dp4861
g67
(dp4862
sg76
g4847
sg69
(lp4863
g62
(g63
g64
NtRp4864
(dp4865
g67
(dp4866
g75
I4
ssg76
g4860
sg69
(lp4867
S'web2py, python, framework'
p4868
asbasbasbasbasbasbasbag62
(g78
g64
NtRp4869
(dp4870
g67
(dp4871
sg76
g3644
sg69
(lp4872
g62
(g83
g64
NtRp4873
(dp4874
g67
(dp4875
g87
g88
ssg76
g4869
sg69
(lp4876
S'models_to_run'
p4877
asbag62
(g83
g64
NtRp4878
(dp4879
g67
(dp4880
g94
g95
ssg76
g4869
sg69
(lp4881
S':'
asbag62
(g83
g64
NtRp4882
(dp4883
g67
(dp4884
sg76
g4869
sg69
(lp4885
g62
(g63
g64
NtRp4886
(dp4887
g67
(dp4888
g75
I5
ssg76
g4882
sg69
(lp4889
g62
(g71
g64
NtRp4890
(dp4891
g67
(dp4892
g75
I4
ssg76
Nsg69
(lp4893
g62
(g78
g64
NtRp4894
(dp4895
g67
(dp4896
sg76
g4890
sg69
(lp4897
g62
(g83
g64
NtRp4898
(dp4899
g67
(dp4900
sg76
g4894
sg69
(lp4901
g62
(g63
g64
NtRp4902
(dp4903
g67
(dp4904
g75
I4
ssg76
g4898
sg69
(lp4905
S'^\\w+\\.py$'
p4906
asbasbasbag62
(g78
g64
NtRp4907
(dp4908
g67
(dp4909
sg76
g4890
sg69
(lp4910
g62
(g83
g64
NtRp4911
(dp4912
g67
(dp4913
sg76
g4907
sg69
(lp4914
g62
(g63
g64
NtRp4915
(dp4916
g67
(dp4917
g75
I4
ssg76
g4911
sg69
(lp4918
S'^default/\\w+\\.py$'
p4919
asbasbasbag62
(g78
g64
NtRp4920
(dp4921
g67
(dp4922
sg76
g4890
sg69
(lp4923
g62
(g83
g64
NtRp4924
(dp4925
g67
(dp4926
sg76
g4920
sg69
(lp4927
g62
(g63
g64
NtRp4928
(dp4929
g67
(dp4930
g75
I4
ssg76
g4924
sg69
(lp4931
S'^default/applet/\\w+\\.py$'
p4932
asbasbasbasbasbasbasbag62
(g78
g64
NtRp4933
(dp4934
g67
(dp4935
sg76
g3644
sg69
(lp4936
g62
(g83
g64
NtRp4937
(dp4938
g67
(dp4939
g87
g88
ssg76
g4933
sg69
(lp4940
S'postprocessing'
p4941
asbag62
(g83
g64
NtRp4942
(dp4943
g67
(dp4944
g94
g95
ssg76
g4933
sg69
(lp4945
S':'
asbag62
(g83
g64
NtRp4946
(dp4947
g67
(dp4948
sg76
g4933
sg69
(lp4949
g62
(g63
g64
NtRp4950
(dp4951
g67
(dp4952
g75
I5
ssg76
g4946
sg69
(lp4953
g62
(g71
g64
NtRp4954
(dp4955
g67
(dp4956
g75
I4
ssg76
Nsg69
(lp4957
sbasbasbasbag62
(g78
g64
NtRp4958
(dp4959
g67
(dp4960
sg76
g3644
sg69
(lp4961
g62
(g83
g64
NtRp4962
(dp4963
g67
(dp4964
g87
g88
ssg76
g4958
sg69
(lp4965
S'session_cookie_expires'
p4966
asbag62
(g83
g64
NtRp4967
(dp4968
g67
(dp4969
g94
g95
ssg76
g4958
sg69
(lp4970
S':'
asbag62
(g83
g64
NtRp4971
(dp4972
g67
(dp4973
sg76
g4958
sg69
(lp4974
g62
(g63
g64
NtRp4975
(dp4976
g67
(dp4977
g75
I5
ssg76
g4971
sg69
(lp4978
S'None'
p4979
asbasbasbag62
(g78
g64
NtRp4980
(dp4981
g67
(dp4982
sg76
g3644
sg69
(lp4983
g62
(g83
g64
NtRp4984
(dp4985
g67
(dp4986
g87
g88
ssg76
g4980
sg69
(lp4987
S'session_data_name'
p4988
asbag62
(g83
g64
NtRp4989
(dp4990
g67
(dp4991
g94
g95
ssg76
g4980
sg69
(lp4992
S':'
asbag62
(g83
g64
NtRp4993
(dp4994
g67
(dp4995
sg76
g4980
sg69
(lp4996
g62
(g63
g64
NtRp4997
(dp4998
g67
(dp4999
g75
I5
ssg76
g4993
sg69
(lp5000
S'session_data_cartesianplane'
p5001
asbasbasbag62
(g78
g64
NtRp5002
(dp5003
g67
(dp5004
sg76
g3644
sg69
(lp5005
g62
(g83
g64
NtRp5006
(dp5007
g67
(dp5008
g87
g88
ssg76
g5002
sg69
(lp5009
S'session_filename'
p5010
asbag62
(g83
g64
NtRp5011
(dp5012
g67
(dp5013
g94
g95
ssg76
g5002
sg69
(lp5014
S':'
asbag62
(g83
g64
NtRp5015
(dp5016
g67
(dp5017
sg76
g5002
sg69
(lp5018
g62
(g63
g64
NtRp5019
(dp5020
g67
(dp5021
g75
I5
ssg76
g5015
sg69
(lp5022
S'/Users/victorgirotto/Desktop/web2py-master/applications/CartesianPlane/sessions/127.0.0.1-9332a035-b297-4f91-8ec9-c631ad06ad9d'
p5023
asbasbasbag62
(g78
g64
NtRp5024
(dp5025
g67
(dp5026
sg76
g3644
sg69
(lp5027
g62
(g83
g64
NtRp5028
(dp5029
g67
(dp5030
g87
g88
ssg76
g5024
sg69
(lp5031
S'session_id'
p5032
asbag62
(g83
g64
NtRp5033
(dp5034
g67
(dp5035
g94
g95
ssg76
g5024
sg69
(lp5036
S':'
asbag62
(g83
g64
NtRp5037
(dp5038
g67
(dp5039
sg76
g5024
sg69
(lp5040
g62
(g63
g64
NtRp5041
(dp5042
g67
(dp5043
g75
I5
ssg76
g5037
sg69
(lp5044
g3714
asbasbasbag62
(g78
g64
NtRp5045
(dp5046
g67
(dp5047
sg76
g3644
sg69
(lp5048
g62
(g83
g64
NtRp5049
(dp5050
g67
(dp5051
g87
g88
ssg76
g5045
sg69
(lp5052
S'session_id_name'
p5053
asbag62
(g83
g64
NtRp5054
(dp5055
g67
(dp5056
g94
g95
ssg76
g5045
sg69
(lp5057
S':'
asbag62
(g83
g64
NtRp5058
(dp5059
g67
(dp5060
sg76
g5045
sg69
(lp5061
g62
(g63
g64
NtRp5062
(dp5063
g67
(dp5064
g75
I5
ssg76
g5058
sg69
(lp5065
g3701
asbasbasbag62
(g78
g64
NtRp5066
(dp5067
g67
(dp5068
sg76
g3644
sg69
(lp5069
g62
(g83
g64
NtRp5070
(dp5071
g67
(dp5072
g87
g88
ssg76
g5066
sg69
(lp5073
S'session_new'
p5074
asbag62
(g83
g64
NtRp5075
(dp5076
g67
(dp5077
g94
g95
ssg76
g5066
sg69
(lp5078
S':'
asbag62
(g83
g64
NtRp5079
(dp5080
g67
(dp5081
sg76
g5066
sg69
(lp5082
g62
(g63
g64
NtRp5083
(dp5084
g67
(dp5085
g75
I5
ssg76
g5079
sg69
(lp5086
g2123
asbasbasbag62
(g78
g64
NtRp5087
(dp5088
g67
(dp5089
sg76
g3644
sg69
(lp5090
g62
(g83
g64
NtRp5091
(dp5092
g67
(dp5093
g87
g88
ssg76
g5087
sg69
(lp5094
S'session_storage_type'
p5095
asbag62
(g83
g64
NtRp5096
(dp5097
g67
(dp5098
g94
g95
ssg76
g5087
sg69
(lp5099
S':'
asbag62
(g83
g64
NtRp5100
(dp5101
g67
(dp5102
sg76
g5087
sg69
(lp5103
g62
(g63
g64
NtRp5104
(dp5105
g67
(dp5106
g75
I5
ssg76
g5100
sg69
(lp5107
g3533
asbasbasbag62
(g78
g64
NtRp5108
(dp5109
g67
(dp5110
sg76
g3644
sg69
(lp5111
g62
(g83
g64
NtRp5112
(dp5113
g67
(dp5114
g87
g88
ssg76
g5108
sg69
(lp5115
S'status'
p5116
asbag62
(g83
g64
NtRp5117
(dp5118
g67
(dp5119
g94
g95
ssg76
g5108
sg69
(lp5120
S':'
asbag62
(g83
g64
NtRp5121
(dp5122
g67
(dp5123
sg76
g5108
sg69
(lp5124
g62
(g63
g64
NtRp5125
(dp5126
g67
(dp5127
g75
I5
ssg76
g5121
sg69
(lp5128
S'200'
p5129
asbasbasbag62
(g78
g64
NtRp5130
(dp5131
g67
(dp5132
sg76
g3644
sg69
(lp5133
g62
(g83
g64
NtRp5134
(dp5135
g67
(dp5136
g87
g88
ssg76
g5130
sg69
(lp5137
S'subtitle'
p5138
asbag62
(g83
g64
NtRp5139
(dp5140
g67
(dp5141
g94
g95
ssg76
g5130
sg69
(lp5142
S':'
asbag62
(g83
g64
NtRp5143
(dp5144
g67
(dp5145
sg76
g5130
sg69
(lp5146
g62
(g63
g64
NtRp5147
(dp5148
g67
(dp5149
g75
I5
ssg76
g5143
sg69
(lp5150
g4135
(S's\x0f\x00\x00\x00Personalize-me!'
tRp5151
asbasbasbag62
(g78
g64
NtRp5152
(dp5153
g67
(dp5154
sg76
g3644
sg69
(lp5155
g62
(g83
g64
NtRp5156
(dp5157
g67
(dp5158
g87
g88
ssg76
g5152
sg69
(lp5159
S'title'
p5160
asbag62
(g83
g64
NtRp5161
(dp5162
g67
(dp5163
g94
g95
ssg76
g5152
sg69
(lp5164
S':'
asbag62
(g83
g64
NtRp5165
(dp5166
g67
(dp5167
sg76
g5152
sg69
(lp5168
g62
(g63
g64
NtRp5169
(dp5170
g67
(dp5171
g75
I5
ssg76
g5165
sg69
(lp5172
S'Cartesianplane'
p5173
asbasbasbag62
(g78
g64
NtRp5174
(dp5175
g67
(dp5176
sg76
g3644
sg69
(lp5177
g62
(g83
g64
NtRp5178
(dp5179
g67
(dp5180
g87
g88
ssg76
g5174
sg69
(lp5181
S'view'
p5182
asbag62
(g83
g64
NtRp5183
(dp5184
g67
(dp5185
g94
g95
ssg76
g5174
sg69
(lp5186
S':'
asbag62
(g83
g64
NtRp5187
(dp5188
g67
(dp5189
sg76
g5174
sg69
(lp5190
g62
(g63
g64
NtRp5191
(dp5192
g67
(dp5193
g75
I5
ssg76
g5187
sg69
(lp5194
S'default/applet.html'
p5195
asbasbasbasbasbsS'locals'
p5196
(dp5197
ssS'traceback'
p5198
S'Traceback (most recent call last):\n  File "/Users/victorgirotto/Desktop/web2py-master/gluon/restricted.py", line 212, in restricted\n    exec ccode in environment\n  File "/Users/victorgirotto/Desktop/web2py-master/applications/CartesianPlane/controllers/default.py", line 64, in <module>\n  File "/Users/victorgirotto/Desktop/web2py-master/gluon/globals.py", line 190, in <lambda>\n    self._caller = lambda f: f()\n  File "/Users/victorgirotto/Desktop/web2py-master/applications/CartesianPlane/controllers/default.py", line 27, in applet\n    return dict(applet=XML(open(filename).read()), ip=__current_ip, port=__socket_port, group_name=__socket_group_name)\nIOError: [Errno 2] No such file or directory: \'/Users/victorgirotto/Desktop/web2py-master/applications/CartesianPlane/static/geoapp.html\'\n'
p5199
s.