(dp1
S'output'
p2
S'<class \'xmlrpclib.Fault\'> <Fault 1: "<class \'sqlite3.OperationalError\'>:database is locked">'
p3
sS'layer'
p4
S'/Users/victorgirotto/Desktop/web2py-master/applications/CartesianPlane/controllers/default.py'
p5
sS'code'
p6
S'import os\nimport socket\nfrom xmlrpclib import ServerProxy\nfrom gluon.shell import exec_environment\nfrom gluon.contrib.websocket_messaging import websocket_send\n\nfilename = os.path.join(request.folder, \'static\', \'geoapp.html\')\nserver = ServerProxy(\'http://127.0.0.1:8000/GeogebraInterface/default/call/xmlrpc\')\n\n__current_ip = \'127.0.0.1\'\n# __current_ip = \'169.254.67.33\'\n__socket_group_name = \'applet\'\n__socket_port = \'8888\'\n\n# -*- coding: utf-8 -*-\n### required - do no delete\ndef user(): return dict(form=auth())\ndef download(): return response.download(request,db)\ndef call(): \n    session.forget()\n    return service()\n### end requires\ndef index():\n    return dict()\n    \ndef applet():\n    return dict(applet=XML(open(filename).read()), ip=__current_ip, port=__socket_port, group_name=__socket_group_name)\n\n    \ndef loadOptions():\n    return server.loadOptions(response.json(request.vars))\n    ##return(response.json(request.vars))\n    \n    ##\n    ##return server.loadOptions(request.vars)\n    ##s.update(value="3")\n    ##return server.loadOptions()\n\n    \ndef echo():\n    return "Hello World"\n   \ndef program():\n    return dict()\n\ndef error():\n    return dict()\n\n## the server polls for an update to the current step\ndef pollForEvent():\n    return db(db.menuOptions2.name == \'test\').select()[0].value\n\n## executes the current step on the server\n@service.xmlrpc\ndef executeEvent(data):\n    db.menuOptions2.update_or_insert(db.menuOptions2.name==\'test\', name=\'test\', value=data)\n    websocket_send(\'http://\' + __current_ip + \':\' + __socket_port, data, \'mykey\', __socket_group_name)\n    return data\n\n@service.xmlrpc\ndef executeSteps(data):\n    websocket_send(\'http://\' + __current_ip + \':\' + __socket_port, data, \'mykey\', __socket_group_name)\n    return data\nresponse._vars=response._caller(loadOptions)\n'
p7
sS'snapshot'
p8
(dp9
S'exception'
p10
(dp11
S'__module__'
p12
S"'xmlrpclib'"
p13
sS'__getslice__'
p14
S"<method-wrapper '__getslice__' of Fault object>"
p15
sS'__str__'
p16
S'<bound method Fault.__str__ of <Fault 1: "<class \'sqlite3.OperationalError\'>:database is locked">>'
p17
sS'__reduce__'
p18
S'<built-in method __reduce__ of Fault object>'
p19
sS'__dict__'
p20
S'{\'faultCode\': 1, \'faultString\': "<class \'sqlite3.OperationalError\'>:database is locked"}'
p21
sS'__sizeof__'
p22
S'<built-in method __sizeof__ of Fault object>'
p23
sS'__weakref__'
p24
S'None'
p25
sS'__init__'
p26
S'<bound method Fault.__init__ of <Fault 1: "<class \'sqlite3.OperationalError\'>:database is locked">>'
p27
sS'__setattr__'
p28
S"<method-wrapper '__setattr__' of Fault object>"
p29
sS'__reduce_ex__'
p30
S'<built-in method __reduce_ex__ of Fault object>'
p31
sS'__new__'
p32
S'<built-in method __new__ of type object>'
p33
sS'__format__'
p34
S'<built-in method __format__ of Fault object>'
p35
sS'__class__'
p36
S"<class 'xmlrpclib.Fault'>"
p37
sS'faultCode'
p38
S'1'
sS'faultString'
p39
S'"<class \'sqlite3.OperationalError\'>:database is locked"'
p40
sS'__doc__'
p41
S"'Indicates an XML-RPC fault package.'"
p42
sS'__getitem__'
p43
S"<method-wrapper '__getitem__' of Fault object>"
p44
sS'__setstate__'
p45
S'<built-in method __setstate__ of Fault object>'
p46
sS'__getattribute__'
p47
S"<method-wrapper '__getattribute__' of Fault object>"
p48
sS'args'
p49
S'()'
p50
sS'__subclasshook__'
p51
S'<built-in method __subclasshook__ of type object>'
p52
sS'__unicode__'
p53
S'<built-in method __unicode__ of Fault object>'
p54
sS'__delattr__'
p55
S"<method-wrapper '__delattr__' of Fault object>"
p56
sS'__repr__'
p57
S'<bound method Fault.__repr__ of <Fault 1: "<class \'sqlite3.OperationalError\'>:database is locked">>'
p58
sS'__hash__'
p59
S"<method-wrapper '__hash__' of Fault object>"
p60
ssS'evalue'
p61
S'<Fault 1: "<class \'sqlite3.OperationalError\'>:database is locked">'
p62
sS'request'
p63
ccopy_reg
_reconstructor
p64
(cgluon.html
BEAUTIFY
p65
c__builtin__
object
p66
NtRp67
(dp68
S'attributes'
p69
(dp70
sS'components'
p71
(lp72
g64
(cgluon.html
TABLE
p73
g66
NtRp74
(dp75
g69
(dp76
S'level'
p77
I5
ssS'parent'
p78
Nsg71
(lp79
g64
(cgluon.html
TR
p80
g66
NtRp81
(dp82
g69
(dp83
sg78
g74
sg71
(lp84
g64
(cgluon.html
TD
p85
g66
NtRp86
(dp87
g69
(dp88
S'_style'
p89
S'font-weight:bold;vertical-align:top'
p90
ssg78
g81
sg71
(lp91
S'ajax'
p92
asbag64
(g85
g66
NtRp93
(dp94
g69
(dp95
S'_valign'
p96
S'top'
p97
ssg78
g81
sg71
(lp98
S':'
asbag64
(g85
g66
NtRp99
(dp100
g69
(dp101
sg78
g81
sg71
(lp102
g64
(g65
g66
NtRp103
(dp104
g69
(dp105
g77
I5
ssg78
g99
sg71
(lp106
S'True'
p107
asbasbasbag64
(g80
g66
NtRp108
(dp109
g69
(dp110
sg78
g74
sg71
(lp111
g64
(g85
g66
NtRp112
(dp113
g69
(dp114
g89
g90
ssg78
g108
sg71
(lp115
S'application'
p116
asbag64
(g85
g66
NtRp117
(dp118
g69
(dp119
g96
g97
ssg78
g108
sg71
(lp120
S':'
asbag64
(g85
g66
NtRp121
(dp122
g69
(dp123
sg78
g108
sg71
(lp124
g64
(g65
g66
NtRp125
(dp126
g69
(dp127
g77
I5
ssg78
g121
sg71
(lp128
S'CartesianPlane'
p129
asbasbasbag64
(g80
g66
NtRp130
(dp131
g69
(dp132
sg78
g74
sg71
(lp133
g64
(g85
g66
NtRp134
(dp135
g69
(dp136
g89
g90
ssg78
g130
sg71
(lp137
g49
asbag64
(g85
g66
NtRp138
(dp139
g69
(dp140
g96
g97
ssg78
g130
sg71
(lp141
S':'
asbag64
(g85
g66
NtRp142
(dp143
g69
(dp144
sg78
g130
sg71
(lp145
g64
(g65
g66
NtRp146
(dp147
g69
(dp148
g77
I5
ssg78
g142
sg71
(lp149
g64
(g73
g66
NtRp150
(dp151
g69
(dp152
g77
I4
ssg78
Nsg71
(lp153
sbasbasbasbag64
(g80
g66
NtRp154
(dp155
g69
(dp156
sg78
g74
sg71
(lp157
g64
(g85
g66
NtRp158
(dp159
g69
(dp160
g89
g90
ssg78
g154
sg71
(lp161
S'body'
p162
asbag64
(g85
g66
NtRp163
(dp164
g69
(dp165
g96
g97
ssg78
g154
sg71
(lp166
S':'
asbag64
(g85
g66
NtRp167
(dp168
g69
(dp169
sg78
g154
sg71
(lp170
g64
(g65
g66
NtRp171
(dp172
g69
(dp173
g77
I5
ssg78
g167
sg71
(lp174
S'<cStringIO.StringO object at 0x107068730>'
p175
asbasbasbag64
(g80
g66
NtRp176
(dp177
g69
(dp178
sg78
g74
sg71
(lp179
g64
(g85
g66
NtRp180
(dp181
g69
(dp182
g89
g90
ssg78
g176
sg71
(lp183
S'cid'
p184
asbag64
(g85
g66
NtRp185
(dp186
g69
(dp187
g96
g97
ssg78
g176
sg71
(lp188
S':'
asbag64
(g85
g66
NtRp189
(dp190
g69
(dp191
sg78
g176
sg71
(lp192
g64
(g65
g66
NtRp193
(dp194
g69
(dp195
g77
I5
ssg78
g189
sg71
(lp196
S'None'
p197
asbasbasbag64
(g80
g66
NtRp198
(dp199
g69
(dp200
sg78
g74
sg71
(lp201
g64
(g85
g66
NtRp202
(dp203
g69
(dp204
g89
g90
ssg78
g198
sg71
(lp205
S'client'
p206
asbag64
(g85
g66
NtRp207
(dp208
g69
(dp209
g96
g97
ssg78
g198
sg71
(lp210
S':'
asbag64
(g85
g66
NtRp211
(dp212
g69
(dp213
sg78
g198
sg71
(lp214
g64
(g65
g66
NtRp215
(dp216
g69
(dp217
g77
I5
ssg78
g211
sg71
(lp218
S'127.0.0.1'
p219
asbasbasbag64
(g80
g66
NtRp220
(dp221
g69
(dp222
sg78
g74
sg71
(lp223
g64
(g85
g66
NtRp224
(dp225
g69
(dp226
g89
g90
ssg78
g220
sg71
(lp227
S'controller'
p228
asbag64
(g85
g66
NtRp229
(dp230
g69
(dp231
g96
g97
ssg78
g220
sg71
(lp232
S':'
asbag64
(g85
g66
NtRp233
(dp234
g69
(dp235
sg78
g220
sg71
(lp236
g64
(g65
g66
NtRp237
(dp238
g69
(dp239
g77
I5
ssg78
g233
sg71
(lp240
S'default'
p241
asbasbasbag64
(g80
g66
NtRp242
(dp243
g69
(dp244
sg78
g74
sg71
(lp245
g64
(g85
g66
NtRp246
(dp247
g69
(dp248
g89
g90
ssg78
g242
sg71
(lp249
S'cookies'
p250
asbag64
(g85
g66
NtRp251
(dp252
g69
(dp253
g96
g97
ssg78
g242
sg71
(lp254
S':'
asbag64
(g85
g66
NtRp255
(dp256
g69
(dp257
sg78
g242
sg71
(lp258
g64
(g65
g66
NtRp259
(dp260
g69
(dp261
g77
I5
ssg78
g255
sg71
(lp262
g64
(g73
g66
NtRp263
(dp264
g69
(dp265
g77
I4
ssg78
Nsg71
(lp266
g64
(g80
g66
NtRp267
(dp268
g69
(dp269
sg78
g263
sg71
(lp270
g64
(g85
g66
NtRp271
(dp272
g69
(dp273
g89
g90
ssg78
g267
sg71
(lp274
S'session_id_admin'
p275
asbag64
(g85
g66
NtRp276
(dp277
g69
(dp278
g96
g97
ssg78
g267
sg71
(lp279
S':'
asbag64
(g85
g66
NtRp280
(dp281
g69
(dp282
sg78
g267
sg71
(lp283
g64
(g65
g66
NtRp284
(dp285
g69
(dp286
g77
I4
ssg78
g280
sg71
(lp287
S'127.0.0.1-a7fdf2f3-ac80-4d35-8b63-06907936ff34'
p288
ag64
(g73
g66
NtRp289
(dp290
g69
(dp291
g77
I3
ssg78
Nsg71
(lp292
g64
(g80
g66
NtRp293
(dp294
g69
(dp295
sg78
g289
sg71
(lp296
g64
(g85
g66
NtRp297
(dp298
g69
(dp299
g89
g90
ssg78
g293
sg71
(lp300
S'comment'
p301
asbag64
(g85
g66
NtRp302
(dp303
g69
(dp304
g96
g97
ssg78
g293
sg71
(lp305
S':'
asbag64
(g85
g66
NtRp306
(dp307
g69
(dp308
sg78
g293
sg71
(lp309
g64
(g65
g66
NtRp310
(dp311
g69
(dp312
g77
I3
ssg78
g306
sg71
(lp313
S''
asbasbasbag64
(g80
g66
NtRp314
(dp315
g69
(dp316
sg78
g289
sg71
(lp317
g64
(g85
g66
NtRp318
(dp319
g69
(dp320
g89
g90
ssg78
g314
sg71
(lp321
S'domain'
p322
asbag64
(g85
g66
NtRp323
(dp324
g69
(dp325
g96
g97
ssg78
g314
sg71
(lp326
S':'
asbag64
(g85
g66
NtRp327
(dp328
g69
(dp329
sg78
g314
sg71
(lp330
g64
(g65
g66
NtRp331
(dp332
g69
(dp333
g77
I3
ssg78
g327
sg71
(lp334
S''
asbasbasbag64
(g80
g66
NtRp335
(dp336
g69
(dp337
sg78
g289
sg71
(lp338
g64
(g85
g66
NtRp339
(dp340
g69
(dp341
g89
g90
ssg78
g335
sg71
(lp342
S'expires'
p343
asbag64
(g85
g66
NtRp344
(dp345
g69
(dp346
g96
g97
ssg78
g335
sg71
(lp347
S':'
asbag64
(g85
g66
NtRp348
(dp349
g69
(dp350
sg78
g335
sg71
(lp351
g64
(g65
g66
NtRp352
(dp353
g69
(dp354
g77
I3
ssg78
g348
sg71
(lp355
S''
asbasbasbag64
(g80
g66
NtRp356
(dp357
g69
(dp358
sg78
g289
sg71
(lp359
g64
(g85
g66
NtRp360
(dp361
g69
(dp362
g89
g90
ssg78
g356
sg71
(lp363
S'httponly'
p364
asbag64
(g85
g66
NtRp365
(dp366
g69
(dp367
g96
g97
ssg78
g356
sg71
(lp368
S':'
asbag64
(g85
g66
NtRp369
(dp370
g69
(dp371
sg78
g356
sg71
(lp372
g64
(g65
g66
NtRp373
(dp374
g69
(dp375
g77
I3
ssg78
g369
sg71
(lp376
S''
asbasbasbag64
(g80
g66
NtRp377
(dp378
g69
(dp379
sg78
g289
sg71
(lp380
g64
(g85
g66
NtRp381
(dp382
g69
(dp383
g89
g90
ssg78
g377
sg71
(lp384
S'max-age'
p385
asbag64
(g85
g66
NtRp386
(dp387
g69
(dp388
g96
g97
ssg78
g377
sg71
(lp389
S':'
asbag64
(g85
g66
NtRp390
(dp391
g69
(dp392
sg78
g377
sg71
(lp393
g64
(g65
g66
NtRp394
(dp395
g69
(dp396
g77
I3
ssg78
g390
sg71
(lp397
S''
asbasbasbag64
(g80
g66
NtRp398
(dp399
g69
(dp400
sg78
g289
sg71
(lp401
g64
(g85
g66
NtRp402
(dp403
g69
(dp404
g89
g90
ssg78
g398
sg71
(lp405
S'path'
p406
asbag64
(g85
g66
NtRp407
(dp408
g69
(dp409
g96
g97
ssg78
g398
sg71
(lp410
S':'
asbag64
(g85
g66
NtRp411
(dp412
g69
(dp413
sg78
g398
sg71
(lp414
g64
(g65
g66
NtRp415
(dp416
g69
(dp417
g77
I3
ssg78
g411
sg71
(lp418
S''
asbasbasbag64
(g80
g66
NtRp419
(dp420
g69
(dp421
sg78
g289
sg71
(lp422
g64
(g85
g66
NtRp423
(dp424
g69
(dp425
g89
g90
ssg78
g419
sg71
(lp426
S'secure'
p427
asbag64
(g85
g66
NtRp428
(dp429
g69
(dp430
g96
g97
ssg78
g419
sg71
(lp431
S':'
asbag64
(g85
g66
NtRp432
(dp433
g69
(dp434
sg78
g419
sg71
(lp435
g64
(g65
g66
NtRp436
(dp437
g69
(dp438
g77
I3
ssg78
g432
sg71
(lp439
S''
asbasbasbag64
(g80
g66
NtRp440
(dp441
g69
(dp442
sg78
g289
sg71
(lp443
g64
(g85
g66
NtRp444
(dp445
g69
(dp446
g89
g90
ssg78
g440
sg71
(lp447
S'version'
p448
asbag64
(g85
g66
NtRp449
(dp450
g69
(dp451
g96
g97
ssg78
g440
sg71
(lp452
S':'
asbag64
(g85
g66
NtRp453
(dp454
g69
(dp455
sg78
g440
sg71
(lp456
g64
(g65
g66
NtRp457
(dp458
g69
(dp459
g77
I3
ssg78
g453
sg71
(lp460
S''
asbasbasbasbasbasbasbag64
(g80
g66
NtRp461
(dp462
g69
(dp463
sg78
g263
sg71
(lp464
g64
(g85
g66
NtRp465
(dp466
g69
(dp467
g89
g90
ssg78
g461
sg71
(lp468
S'session_id_cartesianplane'
p469
asbag64
(g85
g66
NtRp470
(dp471
g69
(dp472
g96
g97
ssg78
g461
sg71
(lp473
S':'
asbag64
(g85
g66
NtRp474
(dp475
g69
(dp476
sg78
g461
sg71
(lp477
g64
(g65
g66
NtRp478
(dp479
g69
(dp480
g77
I4
ssg78
g474
sg71
(lp481
S'127.0.0.1-3bf01ba1-4390-4f13-bc5c-77cb72155d13'
p482
ag64
(g73
g66
NtRp483
(dp484
g69
(dp485
g77
I3
ssg78
Nsg71
(lp486
g64
(g80
g66
NtRp487
(dp488
g69
(dp489
sg78
g483
sg71
(lp490
g64
(g85
g66
NtRp491
(dp492
g69
(dp493
g89
g90
ssg78
g487
sg71
(lp494
g301
asbag64
(g85
g66
NtRp495
(dp496
g69
(dp497
g96
g97
ssg78
g487
sg71
(lp498
S':'
asbag64
(g85
g66
NtRp499
(dp500
g69
(dp501
sg78
g487
sg71
(lp502
g64
(g65
g66
NtRp503
(dp504
g69
(dp505
g77
I3
ssg78
g499
sg71
(lp506
S''
asbasbasbag64
(g80
g66
NtRp507
(dp508
g69
(dp509
sg78
g483
sg71
(lp510
g64
(g85
g66
NtRp511
(dp512
g69
(dp513
g89
g90
ssg78
g507
sg71
(lp514
g322
asbag64
(g85
g66
NtRp515
(dp516
g69
(dp517
g96
g97
ssg78
g507
sg71
(lp518
S':'
asbag64
(g85
g66
NtRp519
(dp520
g69
(dp521
sg78
g507
sg71
(lp522
g64
(g65
g66
NtRp523
(dp524
g69
(dp525
g77
I3
ssg78
g519
sg71
(lp526
S''
asbasbasbag64
(g80
g66
NtRp527
(dp528
g69
(dp529
sg78
g483
sg71
(lp530
g64
(g85
g66
NtRp531
(dp532
g69
(dp533
g89
g90
ssg78
g527
sg71
(lp534
g343
asbag64
(g85
g66
NtRp535
(dp536
g69
(dp537
g96
g97
ssg78
g527
sg71
(lp538
S':'
asbag64
(g85
g66
NtRp539
(dp540
g69
(dp541
sg78
g527
sg71
(lp542
g64
(g65
g66
NtRp543
(dp544
g69
(dp545
g77
I3
ssg78
g539
sg71
(lp546
S''
asbasbasbag64
(g80
g66
NtRp547
(dp548
g69
(dp549
sg78
g483
sg71
(lp550
g64
(g85
g66
NtRp551
(dp552
g69
(dp553
g89
g90
ssg78
g547
sg71
(lp554
g364
asbag64
(g85
g66
NtRp555
(dp556
g69
(dp557
g96
g97
ssg78
g547
sg71
(lp558
S':'
asbag64
(g85
g66
NtRp559
(dp560
g69
(dp561
sg78
g547
sg71
(lp562
g64
(g65
g66
NtRp563
(dp564
g69
(dp565
g77
I3
ssg78
g559
sg71
(lp566
S''
asbasbasbag64
(g80
g66
NtRp567
(dp568
g69
(dp569
sg78
g483
sg71
(lp570
g64
(g85
g66
NtRp571
(dp572
g69
(dp573
g89
g90
ssg78
g567
sg71
(lp574
g385
asbag64
(g85
g66
NtRp575
(dp576
g69
(dp577
g96
g97
ssg78
g567
sg71
(lp578
S':'
asbag64
(g85
g66
NtRp579
(dp580
g69
(dp581
sg78
g567
sg71
(lp582
g64
(g65
g66
NtRp583
(dp584
g69
(dp585
g77
I3
ssg78
g579
sg71
(lp586
S''
asbasbasbag64
(g80
g66
NtRp587
(dp588
g69
(dp589
sg78
g483
sg71
(lp590
g64
(g85
g66
NtRp591
(dp592
g69
(dp593
g89
g90
ssg78
g587
sg71
(lp594
g406
asbag64
(g85
g66
NtRp595
(dp596
g69
(dp597
g96
g97
ssg78
g587
sg71
(lp598
S':'
asbag64
(g85
g66
NtRp599
(dp600
g69
(dp601
sg78
g587
sg71
(lp602
g64
(g65
g66
NtRp603
(dp604
g69
(dp605
g77
I3
ssg78
g599
sg71
(lp606
S''
asbasbasbag64
(g80
g66
NtRp607
(dp608
g69
(dp609
sg78
g483
sg71
(lp610
g64
(g85
g66
NtRp611
(dp612
g69
(dp613
g89
g90
ssg78
g607
sg71
(lp614
g427
asbag64
(g85
g66
NtRp615
(dp616
g69
(dp617
g96
g97
ssg78
g607
sg71
(lp618
S':'
asbag64
(g85
g66
NtRp619
(dp620
g69
(dp621
sg78
g607
sg71
(lp622
g64
(g65
g66
NtRp623
(dp624
g69
(dp625
g77
I3
ssg78
g619
sg71
(lp626
S''
asbasbasbag64
(g80
g66
NtRp627
(dp628
g69
(dp629
sg78
g483
sg71
(lp630
g64
(g85
g66
NtRp631
(dp632
g69
(dp633
g89
g90
ssg78
g627
sg71
(lp634
g448
asbag64
(g85
g66
NtRp635
(dp636
g69
(dp637
g96
g97
ssg78
g627
sg71
(lp638
S':'
asbag64
(g85
g66
NtRp639
(dp640
g69
(dp641
sg78
g627
sg71
(lp642
g64
(g65
g66
NtRp643
(dp644
g69
(dp645
g77
I3
ssg78
g639
sg71
(lp646
S''
asbasbasbasbasbasbasbag64
(g80
g66
NtRp647
(dp648
g69
(dp649
sg78
g263
sg71
(lp650
g64
(g85
g66
NtRp651
(dp652
g69
(dp653
g89
g90
ssg78
g647
sg71
(lp654
S'session_id_geogebrainterface'
p655
asbag64
(g85
g66
NtRp656
(dp657
g69
(dp658
g96
g97
ssg78
g647
sg71
(lp659
S':'
asbag64
(g85
g66
NtRp660
(dp661
g69
(dp662
sg78
g647
sg71
(lp663
g64
(g65
g66
NtRp664
(dp665
g69
(dp666
g77
I4
ssg78
g660
sg71
(lp667
S'127.0.0.1-46d10ee9-e5d6-460d-b9ce-d929c702141a'
p668
ag64
(g73
g66
NtRp669
(dp670
g69
(dp671
g77
I3
ssg78
Nsg71
(lp672
g64
(g80
g66
NtRp673
(dp674
g69
(dp675
sg78
g669
sg71
(lp676
g64
(g85
g66
NtRp677
(dp678
g69
(dp679
g89
g90
ssg78
g673
sg71
(lp680
g301
asbag64
(g85
g66
NtRp681
(dp682
g69
(dp683
g96
g97
ssg78
g673
sg71
(lp684
S':'
asbag64
(g85
g66
NtRp685
(dp686
g69
(dp687
sg78
g673
sg71
(lp688
g64
(g65
g66
NtRp689
(dp690
g69
(dp691
g77
I3
ssg78
g685
sg71
(lp692
S''
asbasbasbag64
(g80
g66
NtRp693
(dp694
g69
(dp695
sg78
g669
sg71
(lp696
g64
(g85
g66
NtRp697
(dp698
g69
(dp699
g89
g90
ssg78
g693
sg71
(lp700
g322
asbag64
(g85
g66
NtRp701
(dp702
g69
(dp703
g96
g97
ssg78
g693
sg71
(lp704
S':'
asbag64
(g85
g66
NtRp705
(dp706
g69
(dp707
sg78
g693
sg71
(lp708
g64
(g65
g66
NtRp709
(dp710
g69
(dp711
g77
I3
ssg78
g705
sg71
(lp712
S''
asbasbasbag64
(g80
g66
NtRp713
(dp714
g69
(dp715
sg78
g669
sg71
(lp716
g64
(g85
g66
NtRp717
(dp718
g69
(dp719
g89
g90
ssg78
g713
sg71
(lp720
g343
asbag64
(g85
g66
NtRp721
(dp722
g69
(dp723
g96
g97
ssg78
g713
sg71
(lp724
S':'
asbag64
(g85
g66
NtRp725
(dp726
g69
(dp727
sg78
g713
sg71
(lp728
g64
(g65
g66
NtRp729
(dp730
g69
(dp731
g77
I3
ssg78
g725
sg71
(lp732
S''
asbasbasbag64
(g80
g66
NtRp733
(dp734
g69
(dp735
sg78
g669
sg71
(lp736
g64
(g85
g66
NtRp737
(dp738
g69
(dp739
g89
g90
ssg78
g733
sg71
(lp740
g364
asbag64
(g85
g66
NtRp741
(dp742
g69
(dp743
g96
g97
ssg78
g733
sg71
(lp744
S':'
asbag64
(g85
g66
NtRp745
(dp746
g69
(dp747
sg78
g733
sg71
(lp748
g64
(g65
g66
NtRp749
(dp750
g69
(dp751
g77
I3
ssg78
g745
sg71
(lp752
S''
asbasbasbag64
(g80
g66
NtRp753
(dp754
g69
(dp755
sg78
g669
sg71
(lp756
g64
(g85
g66
NtRp757
(dp758
g69
(dp759
g89
g90
ssg78
g753
sg71
(lp760
g385
asbag64
(g85
g66
NtRp761
(dp762
g69
(dp763
g96
g97
ssg78
g753
sg71
(lp764
S':'
asbag64
(g85
g66
NtRp765
(dp766
g69
(dp767
sg78
g753
sg71
(lp768
g64
(g65
g66
NtRp769
(dp770
g69
(dp771
g77
I3
ssg78
g765
sg71
(lp772
S''
asbasbasbag64
(g80
g66
NtRp773
(dp774
g69
(dp775
sg78
g669
sg71
(lp776
g64
(g85
g66
NtRp777
(dp778
g69
(dp779
g89
g90
ssg78
g773
sg71
(lp780
g406
asbag64
(g85
g66
NtRp781
(dp782
g69
(dp783
g96
g97
ssg78
g773
sg71
(lp784
S':'
asbag64
(g85
g66
NtRp785
(dp786
g69
(dp787
sg78
g773
sg71
(lp788
g64
(g65
g66
NtRp789
(dp790
g69
(dp791
g77
I3
ssg78
g785
sg71
(lp792
S''
asbasbasbag64
(g80
g66
NtRp793
(dp794
g69
(dp795
sg78
g669
sg71
(lp796
g64
(g85
g66
NtRp797
(dp798
g69
(dp799
g89
g90
ssg78
g793
sg71
(lp800
g427
asbag64
(g85
g66
NtRp801
(dp802
g69
(dp803
g96
g97
ssg78
g793
sg71
(lp804
S':'
asbag64
(g85
g66
NtRp805
(dp806
g69
(dp807
sg78
g793
sg71
(lp808
g64
(g65
g66
NtRp809
(dp810
g69
(dp811
g77
I3
ssg78
g805
sg71
(lp812
S''
asbasbasbag64
(g80
g66
NtRp813
(dp814
g69
(dp815
sg78
g669
sg71
(lp816
g64
(g85
g66
NtRp817
(dp818
g69
(dp819
g89
g90
ssg78
g813
sg71
(lp820
g448
asbag64
(g85
g66
NtRp821
(dp822
g69
(dp823
g96
g97
ssg78
g813
sg71
(lp824
S':'
asbag64
(g85
g66
NtRp825
(dp826
g69
(dp827
sg78
g813
sg71
(lp828
g64
(g65
g66
NtRp829
(dp830
g69
(dp831
g77
I3
ssg78
g825
sg71
(lp832
S''
asbasbasbasbasbasbasbag64
(g80
g66
NtRp833
(dp834
g69
(dp835
sg78
g263
sg71
(lp836
g64
(g85
g66
NtRp837
(dp838
g69
(dp839
g89
g90
ssg78
g833
sg71
(lp840
S'session_id_mobileinterface'
p841
asbag64
(g85
g66
NtRp842
(dp843
g69
(dp844
g96
g97
ssg78
g833
sg71
(lp845
S':'
asbag64
(g85
g66
NtRp846
(dp847
g69
(dp848
sg78
g833
sg71
(lp849
g64
(g65
g66
NtRp850
(dp851
g69
(dp852
g77
I4
ssg78
g846
sg71
(lp853
S'127.0.0.1-429e0887-8cde-4c72-a39b-ab60f8ccb9f8'
p854
ag64
(g73
g66
NtRp855
(dp856
g69
(dp857
g77
I3
ssg78
Nsg71
(lp858
g64
(g80
g66
NtRp859
(dp860
g69
(dp861
sg78
g855
sg71
(lp862
g64
(g85
g66
NtRp863
(dp864
g69
(dp865
g89
g90
ssg78
g859
sg71
(lp866
g301
asbag64
(g85
g66
NtRp867
(dp868
g69
(dp869
g96
g97
ssg78
g859
sg71
(lp870
S':'
asbag64
(g85
g66
NtRp871
(dp872
g69
(dp873
sg78
g859
sg71
(lp874
g64
(g65
g66
NtRp875
(dp876
g69
(dp877
g77
I3
ssg78
g871
sg71
(lp878
S''
asbasbasbag64
(g80
g66
NtRp879
(dp880
g69
(dp881
sg78
g855
sg71
(lp882
g64
(g85
g66
NtRp883
(dp884
g69
(dp885
g89
g90
ssg78
g879
sg71
(lp886
g322
asbag64
(g85
g66
NtRp887
(dp888
g69
(dp889
g96
g97
ssg78
g879
sg71
(lp890
S':'
asbag64
(g85
g66
NtRp891
(dp892
g69
(dp893
sg78
g879
sg71
(lp894
g64
(g65
g66
NtRp895
(dp896
g69
(dp897
g77
I3
ssg78
g891
sg71
(lp898
S''
asbasbasbag64
(g80
g66
NtRp899
(dp900
g69
(dp901
sg78
g855
sg71
(lp902
g64
(g85
g66
NtRp903
(dp904
g69
(dp905
g89
g90
ssg78
g899
sg71
(lp906
g343
asbag64
(g85
g66
NtRp907
(dp908
g69
(dp909
g96
g97
ssg78
g899
sg71
(lp910
S':'
asbag64
(g85
g66
NtRp911
(dp912
g69
(dp913
sg78
g899
sg71
(lp914
g64
(g65
g66
NtRp915
(dp916
g69
(dp917
g77
I3
ssg78
g911
sg71
(lp918
S''
asbasbasbag64
(g80
g66
NtRp919
(dp920
g69
(dp921
sg78
g855
sg71
(lp922
g64
(g85
g66
NtRp923
(dp924
g69
(dp925
g89
g90
ssg78
g919
sg71
(lp926
g364
asbag64
(g85
g66
NtRp927
(dp928
g69
(dp929
g96
g97
ssg78
g919
sg71
(lp930
S':'
asbag64
(g85
g66
NtRp931
(dp932
g69
(dp933
sg78
g919
sg71
(lp934
g64
(g65
g66
NtRp935
(dp936
g69
(dp937
g77
I3
ssg78
g931
sg71
(lp938
S''
asbasbasbag64
(g80
g66
NtRp939
(dp940
g69
(dp941
sg78
g855
sg71
(lp942
g64
(g85
g66
NtRp943
(dp944
g69
(dp945
g89
g90
ssg78
g939
sg71
(lp946
g385
asbag64
(g85
g66
NtRp947
(dp948
g69
(dp949
g96
g97
ssg78
g939
sg71
(lp950
S':'
asbag64
(g85
g66
NtRp951
(dp952
g69
(dp953
sg78
g939
sg71
(lp954
g64
(g65
g66
NtRp955
(dp956
g69
(dp957
g77
I3
ssg78
g951
sg71
(lp958
S''
asbasbasbag64
(g80
g66
NtRp959
(dp960
g69
(dp961
sg78
g855
sg71
(lp962
g64
(g85
g66
NtRp963
(dp964
g69
(dp965
g89
g90
ssg78
g959
sg71
(lp966
g406
asbag64
(g85
g66
NtRp967
(dp968
g69
(dp969
g96
g97
ssg78
g959
sg71
(lp970
S':'
asbag64
(g85
g66
NtRp971
(dp972
g69
(dp973
sg78
g959
sg71
(lp974
g64
(g65
g66
NtRp975
(dp976
g69
(dp977
g77
I3
ssg78
g971
sg71
(lp978
S''
asbasbasbag64
(g80
g66
NtRp979
(dp980
g69
(dp981
sg78
g855
sg71
(lp982
g64
(g85
g66
NtRp983
(dp984
g69
(dp985
g89
g90
ssg78
g979
sg71
(lp986
g427
asbag64
(g85
g66
NtRp987
(dp988
g69
(dp989
g96
g97
ssg78
g979
sg71
(lp990
S':'
asbag64
(g85
g66
NtRp991
(dp992
g69
(dp993
sg78
g979
sg71
(lp994
g64
(g65
g66
NtRp995
(dp996
g69
(dp997
g77
I3
ssg78
g991
sg71
(lp998
S''
asbasbasbag64
(g80
g66
NtRp999
(dp1000
g69
(dp1001
sg78
g855
sg71
(lp1002
g64
(g85
g66
NtRp1003
(dp1004
g69
(dp1005
g89
g90
ssg78
g999
sg71
(lp1006
g448
asbag64
(g85
g66
NtRp1007
(dp1008
g69
(dp1009
g96
g97
ssg78
g999
sg71
(lp1010
S':'
asbag64
(g85
g66
NtRp1011
(dp1012
g69
(dp1013
sg78
g999
sg71
(lp1014
g64
(g65
g66
NtRp1015
(dp1016
g69
(dp1017
g77
I3
ssg78
g1011
sg71
(lp1018
S''
asbasbasbasbasbasbasbag64
(g80
g66
NtRp1019
(dp1020
g69
(dp1021
sg78
g263
sg71
(lp1022
g64
(g85
g66
NtRp1023
(dp1024
g69
(dp1025
g89
g90
ssg78
g1019
sg71
(lp1026
S'session_id_welcome'
p1027
asbag64
(g85
g66
NtRp1028
(dp1029
g69
(dp1030
g96
g97
ssg78
g1019
sg71
(lp1031
S':'
asbag64
(g85
g66
NtRp1032
(dp1033
g69
(dp1034
sg78
g1019
sg71
(lp1035
g64
(g65
g66
NtRp1036
(dp1037
g69
(dp1038
g77
I4
ssg78
g1032
sg71
(lp1039
S'127.0.0.1-406c2727-b8ee-4551-a6bf-871ff0a38423'
p1040
ag64
(g73
g66
NtRp1041
(dp1042
g69
(dp1043
g77
I3
ssg78
Nsg71
(lp1044
g64
(g80
g66
NtRp1045
(dp1046
g69
(dp1047
sg78
g1041
sg71
(lp1048
g64
(g85
g66
NtRp1049
(dp1050
g69
(dp1051
g89
g90
ssg78
g1045
sg71
(lp1052
g301
asbag64
(g85
g66
NtRp1053
(dp1054
g69
(dp1055
g96
g97
ssg78
g1045
sg71
(lp1056
S':'
asbag64
(g85
g66
NtRp1057
(dp1058
g69
(dp1059
sg78
g1045
sg71
(lp1060
g64
(g65
g66
NtRp1061
(dp1062
g69
(dp1063
g77
I3
ssg78
g1057
sg71
(lp1064
S''
asbasbasbag64
(g80
g66
NtRp1065
(dp1066
g69
(dp1067
sg78
g1041
sg71
(lp1068
g64
(g85
g66
NtRp1069
(dp1070
g69
(dp1071
g89
g90
ssg78
g1065
sg71
(lp1072
g322
asbag64
(g85
g66
NtRp1073
(dp1074
g69
(dp1075
g96
g97
ssg78
g1065
sg71
(lp1076
S':'
asbag64
(g85
g66
NtRp1077
(dp1078
g69
(dp1079
sg78
g1065
sg71
(lp1080
g64
(g65
g66
NtRp1081
(dp1082
g69
(dp1083
g77
I3
ssg78
g1077
sg71
(lp1084
S''
asbasbasbag64
(g80
g66
NtRp1085
(dp1086
g69
(dp1087
sg78
g1041
sg71
(lp1088
g64
(g85
g66
NtRp1089
(dp1090
g69
(dp1091
g89
g90
ssg78
g1085
sg71
(lp1092
g343
asbag64
(g85
g66
NtRp1093
(dp1094
g69
(dp1095
g96
g97
ssg78
g1085
sg71
(lp1096
S':'
asbag64
(g85
g66
NtRp1097
(dp1098
g69
(dp1099
sg78
g1085
sg71
(lp1100
g64
(g65
g66
NtRp1101
(dp1102
g69
(dp1103
g77
I3
ssg78
g1097
sg71
(lp1104
S''
asbasbasbag64
(g80
g66
NtRp1105
(dp1106
g69
(dp1107
sg78
g1041
sg71
(lp1108
g64
(g85
g66
NtRp1109
(dp1110
g69
(dp1111
g89
g90
ssg78
g1105
sg71
(lp1112
g364
asbag64
(g85
g66
NtRp1113
(dp1114
g69
(dp1115
g96
g97
ssg78
g1105
sg71
(lp1116
S':'
asbag64
(g85
g66
NtRp1117
(dp1118
g69
(dp1119
sg78
g1105
sg71
(lp1120
g64
(g65
g66
NtRp1121
(dp1122
g69
(dp1123
g77
I3
ssg78
g1117
sg71
(lp1124
S''
asbasbasbag64
(g80
g66
NtRp1125
(dp1126
g69
(dp1127
sg78
g1041
sg71
(lp1128
g64
(g85
g66
NtRp1129
(dp1130
g69
(dp1131
g89
g90
ssg78
g1125
sg71
(lp1132
g385
asbag64
(g85
g66
NtRp1133
(dp1134
g69
(dp1135
g96
g97
ssg78
g1125
sg71
(lp1136
S':'
asbag64
(g85
g66
NtRp1137
(dp1138
g69
(dp1139
sg78
g1125
sg71
(lp1140
g64
(g65
g66
NtRp1141
(dp1142
g69
(dp1143
g77
I3
ssg78
g1137
sg71
(lp1144
S''
asbasbasbag64
(g80
g66
NtRp1145
(dp1146
g69
(dp1147
sg78
g1041
sg71
(lp1148
g64
(g85
g66
NtRp1149
(dp1150
g69
(dp1151
g89
g90
ssg78
g1145
sg71
(lp1152
g406
asbag64
(g85
g66
NtRp1153
(dp1154
g69
(dp1155
g96
g97
ssg78
g1145
sg71
(lp1156
S':'
asbag64
(g85
g66
NtRp1157
(dp1158
g69
(dp1159
sg78
g1145
sg71
(lp1160
g64
(g65
g66
NtRp1161
(dp1162
g69
(dp1163
g77
I3
ssg78
g1157
sg71
(lp1164
S''
asbasbasbag64
(g80
g66
NtRp1165
(dp1166
g69
(dp1167
sg78
g1041
sg71
(lp1168
g64
(g85
g66
NtRp1169
(dp1170
g69
(dp1171
g89
g90
ssg78
g1165
sg71
(lp1172
g427
asbag64
(g85
g66
NtRp1173
(dp1174
g69
(dp1175
g96
g97
ssg78
g1165
sg71
(lp1176
S':'
asbag64
(g85
g66
NtRp1177
(dp1178
g69
(dp1179
sg78
g1165
sg71
(lp1180
g64
(g65
g66
NtRp1181
(dp1182
g69
(dp1183
g77
I3
ssg78
g1177
sg71
(lp1184
S''
asbasbasbag64
(g80
g66
NtRp1185
(dp1186
g69
(dp1187
sg78
g1041
sg71
(lp1188
g64
(g85
g66
NtRp1189
(dp1190
g69
(dp1191
g89
g90
ssg78
g1185
sg71
(lp1192
g448
asbag64
(g85
g66
NtRp1193
(dp1194
g69
(dp1195
g96
g97
ssg78
g1185
sg71
(lp1196
S':'
asbag64
(g85
g66
NtRp1197
(dp1198
g69
(dp1199
sg78
g1185
sg71
(lp1200
g64
(g65
g66
NtRp1201
(dp1202
g69
(dp1203
g77
I3
ssg78
g1197
sg71
(lp1204
S''
asbasbasbasbasbasbasbasbasbasbasbag64
(g80
g66
NtRp1205
(dp1206
g69
(dp1207
sg78
g74
sg71
(lp1208
g64
(g85
g66
NtRp1209
(dp1210
g69
(dp1211
g89
g90
ssg78
g1205
sg71
(lp1212
S'env'
p1213
asbag64
(g85
g66
NtRp1214
(dp1215
g69
(dp1216
g96
g97
ssg78
g1205
sg71
(lp1217
S':'
asbag64
(g85
g66
NtRp1218
(dp1219
g69
(dp1220
sg78
g1205
sg71
(lp1221
g64
(g65
g66
NtRp1222
(dp1223
g69
(dp1224
g77
I5
ssg78
g1218
sg71
(lp1225
g64
(g73
g66
NtRp1226
(dp1227
g69
(dp1228
g77
I4
ssg78
Nsg71
(lp1229
g64
(g80
g66
NtRp1230
(dp1231
g69
(dp1232
sg78
g1226
sg71
(lp1233
g64
(g85
g66
NtRp1234
(dp1235
g69
(dp1236
g89
g90
ssg78
g1230
sg71
(lp1237
S'app_folders'
p1238
asbag64
(g85
g66
NtRp1239
(dp1240
g69
(dp1241
g96
g97
ssg78
g1230
sg71
(lp1242
S':'
asbag64
(g85
g66
NtRp1243
(dp1244
g69
(dp1245
sg78
g1230
sg71
(lp1246
g64
(g65
g66
NtRp1247
(dp1248
g69
(dp1249
g77
I4
ssg78
g1243
sg71
(lp1250
S"set(['/Users/victorgirotto/Desktop/web2py-master/applications/MobileInterface/', '/Users/victorgirotto/Desktop/web2py-master/applications/welcome/', '/Users/victorgirotto/Desktop/web2py-master/applications/CartesianPlane/', '/Users/victorgirotto/Desktop/web2py-master/applications/GeogebraInterface/', '/Users/victorgirotto/Desktop/web2py-master/applications/admin/'])"
p1251
asbasbasbag64
(g80
g66
NtRp1252
(dp1253
g69
(dp1254
sg78
g1226
sg71
(lp1255
g64
(g85
g66
NtRp1256
(dp1257
g69
(dp1258
g89
g90
ssg78
g1252
sg71
(lp1259
S'applications_parent'
p1260
asbag64
(g85
g66
NtRp1261
(dp1262
g69
(dp1263
g96
g97
ssg78
g1252
sg71
(lp1264
S':'
asbag64
(g85
g66
NtRp1265
(dp1266
g69
(dp1267
sg78
g1252
sg71
(lp1268
g64
(g65
g66
NtRp1269
(dp1270
g69
(dp1271
g77
I4
ssg78
g1265
sg71
(lp1272
S'/Users/victorgirotto/Desktop/web2py-master'
p1273
asbasbasbag64
(g80
g66
NtRp1274
(dp1275
g69
(dp1276
sg78
g1226
sg71
(lp1277
g64
(g85
g66
NtRp1278
(dp1279
g69
(dp1280
g89
g90
ssg78
g1274
sg71
(lp1281
S'cmd_args'
p1282
asbag64
(g85
g66
NtRp1283
(dp1284
g69
(dp1285
g96
g97
ssg78
g1274
sg71
(lp1286
S':'
asbag64
(g85
g66
NtRp1287
(dp1288
g69
(dp1289
sg78
g1274
sg71
(lp1290
g64
(g65
g66
NtRp1291
(dp1292
g69
(dp1293
g77
I4
ssg78
g1287
sg71
(lp1294
g64
(g73
g66
NtRp1295
(dp1296
g69
(dp1297
g77
I3
ssg78
Nsg71
(lp1298
sbasbasbasbag64
(g80
g66
NtRp1299
(dp1300
g69
(dp1301
sg78
g1226
sg71
(lp1302
g64
(g85
g66
NtRp1303
(dp1304
g69
(dp1305
g89
g90
ssg78
g1299
sg71
(lp1306
S'cmd_options'
p1307
asbag64
(g85
g66
NtRp1308
(dp1309
g69
(dp1310
g96
g97
ssg78
g1299
sg71
(lp1311
S':'
asbag64
(g85
g66
NtRp1312
(dp1313
g69
(dp1314
sg78
g1299
sg71
(lp1315
g64
(g65
g66
NtRp1316
(dp1317
g69
(dp1318
g77
I4
ssg78
g1312
sg71
(lp1319
S"<Values at 0x10705ccb0: {'verbose': False, 'ip': '127.0.0.1', 'with_scheduler': False, 'ips': ['10.211.55.2', '10.37.129.2', '10.142.224.219'], 'shutdown_timeout': 5, 'taskbar': False, 'port': 8000, 'maxthreads': None, 'softcron': False, 'server_name': 'MacBook-Pro-de-Victor.local', 'bpython': False, 'nogui': False, 'pid_filename': 'httpserver.pid', 'extcron': False, 'runcron': False, 'run_system_tests': False, 'test': None, 'folder': '/Users/victorgirotto/Desktop/web2py-master', 'config': '', 'minthreads': None, 'winservice': '', 'shell': None, 'run': '', 'log_filename': 'httpserver.log', 'debuglevel': 30, 'args': [''], 'socket_timeout': 5, 'ssl_ca_certificate': None, 'scheduler': None, 'profiler_filename': None, 'ssl_private_key': '', 'scheduler_groups': None, 'password': '<ask>', 'request_queue_size': 5, 'ssl_certificate': '', 'cronjob': False, 'numthreads': None, 'quiet': False, 'interfaces': None, 'import_models': False, 'timeout': 10, 'plain': False, 'nobanner': False}>"
p1320
asbasbasbag64
(g80
g66
NtRp1321
(dp1322
g69
(dp1323
sg78
g1226
sg71
(lp1324
g64
(g85
g66
NtRp1325
(dp1326
g69
(dp1327
g89
g90
ssg78
g1321
sg71
(lp1328
S'db_sessions'
p1329
asbag64
(g85
g66
NtRp1330
(dp1331
g69
(dp1332
g96
g97
ssg78
g1321
sg71
(lp1333
S':'
asbag64
(g85
g66
NtRp1334
(dp1335
g69
(dp1336
sg78
g1321
sg71
(lp1337
g64
(g65
g66
NtRp1338
(dp1339
g69
(dp1340
g77
I4
ssg78
g1334
sg71
(lp1341
S'set([])'
p1342
asbasbasbag64
(g80
g66
NtRp1343
(dp1344
g69
(dp1345
sg78
g1226
sg71
(lp1346
g64
(g85
g66
NtRp1347
(dp1348
g69
(dp1349
g89
g90
ssg78
g1343
sg71
(lp1350
S'debugging'
p1351
asbag64
(g85
g66
NtRp1352
(dp1353
g69
(dp1354
g96
g97
ssg78
g1343
sg71
(lp1355
S':'
asbag64
(g85
g66
NtRp1356
(dp1357
g69
(dp1358
sg78
g1343
sg71
(lp1359
g64
(g65
g66
NtRp1360
(dp1361
g69
(dp1362
g77
I4
ssg78
g1356
sg71
(lp1363
S'False'
p1364
asbasbasbag64
(g80
g66
NtRp1365
(dp1366
g69
(dp1367
sg78
g1226
sg71
(lp1368
g64
(g85
g66
NtRp1369
(dp1370
g69
(dp1371
g89
g90
ssg78
g1365
sg71
(lp1372
S'gluon_parent'
p1373
asbag64
(g85
g66
NtRp1374
(dp1375
g69
(dp1376
g96
g97
ssg78
g1365
sg71
(lp1377
S':'
asbag64
(g85
g66
NtRp1378
(dp1379
g69
(dp1380
sg78
g1365
sg71
(lp1381
g64
(g65
g66
NtRp1382
(dp1383
g69
(dp1384
g77
I4
ssg78
g1378
sg71
(lp1385
S'/Users/victorgirotto/Desktop/web2py-master'
p1386
asbasbasbag64
(g80
g66
NtRp1387
(dp1388
g69
(dp1389
sg78
g1226
sg71
(lp1390
g64
(g85
g66
NtRp1391
(dp1392
g69
(dp1393
g89
g90
ssg78
g1387
sg71
(lp1394
S'http_accept'
p1395
asbag64
(g85
g66
NtRp1396
(dp1397
g69
(dp1398
g96
g97
ssg78
g1387
sg71
(lp1399
S':'
asbag64
(g85
g66
NtRp1400
(dp1401
g69
(dp1402
sg78
g1387
sg71
(lp1403
g64
(g65
g66
NtRp1404
(dp1405
g69
(dp1406
g77
I4
ssg78
g1400
sg71
(lp1407
S'*/*'
p1408
asbasbasbag64
(g80
g66
NtRp1409
(dp1410
g69
(dp1411
sg78
g1226
sg71
(lp1412
g64
(g85
g66
NtRp1413
(dp1414
g69
(dp1415
g89
g90
ssg78
g1409
sg71
(lp1416
S'http_accept_encoding'
p1417
asbag64
(g85
g66
NtRp1418
(dp1419
g69
(dp1420
g96
g97
ssg78
g1409
sg71
(lp1421
S':'
asbag64
(g85
g66
NtRp1422
(dp1423
g69
(dp1424
sg78
g1409
sg71
(lp1425
g64
(g65
g66
NtRp1426
(dp1427
g69
(dp1428
g77
I4
ssg78
g1422
sg71
(lp1429
S'gzip, deflate'
p1430
asbasbasbag64
(g80
g66
NtRp1431
(dp1432
g69
(dp1433
sg78
g1226
sg71
(lp1434
g64
(g85
g66
NtRp1435
(dp1436
g69
(dp1437
g89
g90
ssg78
g1431
sg71
(lp1438
S'http_accept_language'
p1439
asbag64
(g85
g66
NtRp1440
(dp1441
g69
(dp1442
g96
g97
ssg78
g1431
sg71
(lp1443
S':'
asbag64
(g85
g66
NtRp1444
(dp1445
g69
(dp1446
sg78
g1431
sg71
(lp1447
g64
(g65
g66
NtRp1448
(dp1449
g69
(dp1450
g77
I4
ssg78
g1444
sg71
(lp1451
S'pt-br'
p1452
asbasbasbag64
(g80
g66
NtRp1453
(dp1454
g69
(dp1455
sg78
g1226
sg71
(lp1456
g64
(g85
g66
NtRp1457
(dp1458
g69
(dp1459
g89
g90
ssg78
g1453
sg71
(lp1460
S'http_connection'
p1461
asbag64
(g85
g66
NtRp1462
(dp1463
g69
(dp1464
g96
g97
ssg78
g1453
sg71
(lp1465
S':'
asbag64
(g85
g66
NtRp1466
(dp1467
g69
(dp1468
sg78
g1453
sg71
(lp1469
g64
(g65
g66
NtRp1470
(dp1471
g69
(dp1472
g77
I4
ssg78
g1466
sg71
(lp1473
S'keep-alive'
p1474
asbasbasbag64
(g80
g66
NtRp1475
(dp1476
g69
(dp1477
sg78
g1226
sg71
(lp1478
g64
(g85
g66
NtRp1479
(dp1480
g69
(dp1481
g89
g90
ssg78
g1475
sg71
(lp1482
S'http_cookie'
p1483
asbag64
(g85
g66
NtRp1484
(dp1485
g69
(dp1486
g96
g97
ssg78
g1475
sg71
(lp1487
S':'
asbag64
(g85
g66
NtRp1488
(dp1489
g69
(dp1490
sg78
g1475
sg71
(lp1491
g64
(g65
g66
NtRp1492
(dp1493
g69
(dp1494
g77
I4
ssg78
g1488
sg71
(lp1495
S'session_id_mobileinterface=127.0.0.1-429e0887-8cde-4c72-a39b-ab60f8ccb9f8; session_id_cartesianplane=127.0.0.1-3bf01ba1-4390-4f13-bc5c-77cb72155d13; session_id_admin=127.0.0.1-a7fdf2f3-ac80-4d35-8b63-06907936ff34; session_id_welcome=127.0.0.1-406c2727-b8ee-4551-a6bf-871ff0a38423; session_id_geogebrainterface=127.0.0.1-46d10ee9-e5d6-460d-b9ce-d929c702141a'
p1496
asbasbasbag64
(g80
g66
NtRp1497
(dp1498
g69
(dp1499
sg78
g1226
sg71
(lp1500
g64
(g85
g66
NtRp1501
(dp1502
g69
(dp1503
g89
g90
ssg78
g1497
sg71
(lp1504
S'http_host'
p1505
asbag64
(g85
g66
NtRp1506
(dp1507
g69
(dp1508
g96
g97
ssg78
g1497
sg71
(lp1509
S':'
asbag64
(g85
g66
NtRp1510
(dp1511
g69
(dp1512
sg78
g1497
sg71
(lp1513
g64
(g65
g66
NtRp1514
(dp1515
g69
(dp1516
g77
I4
ssg78
g1510
sg71
(lp1517
S'localhost:8000'
p1518
asbasbasbag64
(g80
g66
NtRp1519
(dp1520
g69
(dp1521
sg78
g1226
sg71
(lp1522
g64
(g85
g66
NtRp1523
(dp1524
g69
(dp1525
g89
g90
ssg78
g1519
sg71
(lp1526
S'http_referer'
p1527
asbag64
(g85
g66
NtRp1528
(dp1529
g69
(dp1530
g96
g97
ssg78
g1519
sg71
(lp1531
S':'
asbag64
(g85
g66
NtRp1532
(dp1533
g69
(dp1534
sg78
g1519
sg71
(lp1535
g64
(g65
g66
NtRp1536
(dp1537
g69
(dp1538
g77
I4
ssg78
g1532
sg71
(lp1539
S'http://localhost:8000/CartesianPlane/default/applet'
p1540
asbasbasbag64
(g80
g66
NtRp1541
(dp1542
g69
(dp1543
sg78
g1226
sg71
(lp1544
g64
(g85
g66
NtRp1545
(dp1546
g69
(dp1547
g89
g90
ssg78
g1541
sg71
(lp1548
S'http_user_agent'
p1549
asbag64
(g85
g66
NtRp1550
(dp1551
g69
(dp1552
g96
g97
ssg78
g1541
sg71
(lp1553
S':'
asbag64
(g85
g66
NtRp1554
(dp1555
g69
(dp1556
sg78
g1541
sg71
(lp1557
g64
(g65
g66
NtRp1558
(dp1559
g69
(dp1560
g77
I4
ssg78
g1554
sg71
(lp1561
S'Mozilla/5.0 (Macintosh; Intel Mac OS X 10_8_2) AppleWebKit/536.26.17 (KHTML, like Gecko) Version/6.0.2 Safari/536.26.17'
p1562
asbasbasbag64
(g80
g66
NtRp1563
(dp1564
g69
(dp1565
sg78
g1226
sg71
(lp1566
g64
(g85
g66
NtRp1567
(dp1568
g69
(dp1569
g89
g90
ssg78
g1563
sg71
(lp1570
S'http_x_requested_with'
p1571
asbag64
(g85
g66
NtRp1572
(dp1573
g69
(dp1574
g96
g97
ssg78
g1563
sg71
(lp1575
S':'
asbag64
(g85
g66
NtRp1576
(dp1577
g69
(dp1578
sg78
g1563
sg71
(lp1579
g64
(g65
g66
NtRp1580
(dp1581
g69
(dp1582
g77
I4
ssg78
g1576
sg71
(lp1583
S'XMLHttpRequest'
p1584
asbasbasbag64
(g80
g66
NtRp1585
(dp1586
g69
(dp1587
sg78
g1226
sg71
(lp1588
g64
(g85
g66
NtRp1589
(dp1590
g69
(dp1591
g89
g90
ssg78
g1585
sg71
(lp1592
S'is_jython'
p1593
asbag64
(g85
g66
NtRp1594
(dp1595
g69
(dp1596
g96
g97
ssg78
g1585
sg71
(lp1597
S':'
asbag64
(g85
g66
NtRp1598
(dp1599
g69
(dp1600
sg78
g1585
sg71
(lp1601
g64
(g65
g66
NtRp1602
(dp1603
g69
(dp1604
g77
I4
ssg78
g1598
sg71
(lp1605
g1364
asbasbasbag64
(g80
g66
NtRp1606
(dp1607
g69
(dp1608
sg78
g1226
sg71
(lp1609
g64
(g85
g66
NtRp1610
(dp1611
g69
(dp1612
g89
g90
ssg78
g1606
sg71
(lp1613
S'is_pypy'
p1614
asbag64
(g85
g66
NtRp1615
(dp1616
g69
(dp1617
g96
g97
ssg78
g1606
sg71
(lp1618
S':'
asbag64
(g85
g66
NtRp1619
(dp1620
g69
(dp1621
sg78
g1606
sg71
(lp1622
g64
(g65
g66
NtRp1623
(dp1624
g69
(dp1625
g77
I4
ssg78
g1619
sg71
(lp1626
g1364
asbasbasbag64
(g80
g66
NtRp1627
(dp1628
g69
(dp1629
sg78
g1226
sg71
(lp1630
g64
(g85
g66
NtRp1631
(dp1632
g69
(dp1633
g89
g90
ssg78
g1627
sg71
(lp1634
S'local_hosts'
p1635
asbag64
(g85
g66
NtRp1636
(dp1637
g69
(dp1638
g96
g97
ssg78
g1627
sg71
(lp1639
S':'
asbag64
(g85
g66
NtRp1640
(dp1641
g69
(dp1642
sg78
g1627
sg71
(lp1643
g64
(g65
g66
NtRp1644
(dp1645
g69
(dp1646
g77
I4
ssg78
g1640
sg71
(lp1647
g64
(g73
g66
NtRp1648
(dp1649
g69
(dp1650
g77
I3
ssg78
Nsg71
(lp1651
g64
(g80
g66
NtRp1652
(dp1653
g69
(dp1654
sg78
g1648
sg71
(lp1655
g64
(g85
g66
NtRp1656
(dp1657
g69
(dp1658
sg78
g1652
sg71
(lp1659
g64
(g65
g66
NtRp1660
(dp1661
g69
(dp1662
g77
I3
ssg78
g1656
sg71
(lp1663
S'127.0.0.1'
p1664
asbasbasbag64
(g80
g66
NtRp1665
(dp1666
g69
(dp1667
sg78
g1648
sg71
(lp1668
g64
(g85
g66
NtRp1669
(dp1670
g69
(dp1671
sg78
g1665
sg71
(lp1672
g64
(g65
g66
NtRp1673
(dp1674
g69
(dp1675
g77
I3
ssg78
g1669
sg71
(lp1676
S'::ffff:127.0.0.1'
p1677
asbasbasbag64
(g80
g66
NtRp1678
(dp1679
g69
(dp1680
sg78
g1648
sg71
(lp1681
g64
(g85
g66
NtRp1682
(dp1683
g69
(dp1684
sg78
g1678
sg71
(lp1685
g64
(g65
g66
NtRp1686
(dp1687
g69
(dp1688
g77
I3
ssg78
g1682
sg71
(lp1689
S'MacBook-Pro-de-Victor.local'
p1690
asbasbasbag64
(g80
g66
NtRp1691
(dp1692
g69
(dp1693
sg78
g1648
sg71
(lp1694
g64
(g85
g66
NtRp1695
(dp1696
g69
(dp1697
sg78
g1691
sg71
(lp1698
g64
(g65
g66
NtRp1699
(dp1700
g69
(dp1701
g77
I3
ssg78
g1695
sg71
(lp1702
S'MacBook-Pro-de-Victor.local'
p1703
asbasbasbag64
(g80
g66
NtRp1704
(dp1705
g69
(dp1706
sg78
g1648
sg71
(lp1707
g64
(g85
g66
NtRp1708
(dp1709
g69
(dp1710
sg78
g1704
sg71
(lp1711
g64
(g65
g66
NtRp1712
(dp1713
g69
(dp1714
g77
I3
ssg78
g1708
sg71
(lp1715
S'10.211.55.2'
p1716
asbasbasbasbasbasbasbag64
(g80
g66
NtRp1717
(dp1718
g69
(dp1719
sg78
g1226
sg71
(lp1720
g64
(g85
g66
NtRp1721
(dp1722
g69
(dp1723
g89
g90
ssg78
g1717
sg71
(lp1724
S'path_info'
p1725
asbag64
(g85
g66
NtRp1726
(dp1727
g69
(dp1728
g96
g97
ssg78
g1717
sg71
(lp1729
S':'
asbag64
(g85
g66
NtRp1730
(dp1731
g69
(dp1732
sg78
g1717
sg71
(lp1733
g64
(g65
g66
NtRp1734
(dp1735
g69
(dp1736
g77
I4
ssg78
g1730
sg71
(lp1737
S'/CartesianPlane/default/loadOptions'
p1738
asbasbasbag64
(g80
g66
NtRp1739
(dp1740
g69
(dp1741
sg78
g1226
sg71
(lp1742
g64
(g85
g66
NtRp1743
(dp1744
g69
(dp1745
g89
g90
ssg78
g1739
sg71
(lp1746
S'query_string'
p1747
asbag64
(g85
g66
NtRp1748
(dp1749
g69
(dp1750
g96
g97
ssg78
g1739
sg71
(lp1751
S':'
asbag64
(g85
g66
NtRp1752
(dp1753
g69
(dp1754
sg78
g1739
sg71
(lp1755
g64
(g65
g66
NtRp1756
(dp1757
g69
(dp1758
g77
I4
ssg78
g1752
sg71
(lp1759
S'trigger=point&pointName=P1'
p1760
asbasbasbag64
(g80
g66
NtRp1761
(dp1762
g69
(dp1763
sg78
g1226
sg71
(lp1764
g64
(g85
g66
NtRp1765
(dp1766
g69
(dp1767
g89
g90
ssg78
g1761
sg71
(lp1768
S'remote_addr'
p1769
asbag64
(g85
g66
NtRp1770
(dp1771
g69
(dp1772
g96
g97
ssg78
g1761
sg71
(lp1773
S':'
asbag64
(g85
g66
NtRp1774
(dp1775
g69
(dp1776
sg78
g1761
sg71
(lp1777
g64
(g65
g66
NtRp1778
(dp1779
g69
(dp1780
g77
I4
ssg78
g1774
sg71
(lp1781
g219
asbasbasbag64
(g80
g66
NtRp1782
(dp1783
g69
(dp1784
sg78
g1226
sg71
(lp1785
g64
(g85
g66
NtRp1786
(dp1787
g69
(dp1788
g89
g90
ssg78
g1782
sg71
(lp1789
S'remote_port'
p1790
asbag64
(g85
g66
NtRp1791
(dp1792
g69
(dp1793
g96
g97
ssg78
g1782
sg71
(lp1794
S':'
asbag64
(g85
g66
NtRp1795
(dp1796
g69
(dp1797
sg78
g1782
sg71
(lp1798
g64
(g65
g66
NtRp1799
(dp1800
g69
(dp1801
g77
I4
ssg78
g1795
sg71
(lp1802
S'57335'
p1803
asbasbasbag64
(g80
g66
NtRp1804
(dp1805
g69
(dp1806
sg78
g1226
sg71
(lp1807
g64
(g85
g66
NtRp1808
(dp1809
g69
(dp1810
g89
g90
ssg78
g1804
sg71
(lp1811
S'request_method'
p1812
asbag64
(g85
g66
NtRp1813
(dp1814
g69
(dp1815
g96
g97
ssg78
g1804
sg71
(lp1816
S':'
asbag64
(g85
g66
NtRp1817
(dp1818
g69
(dp1819
sg78
g1804
sg71
(lp1820
g64
(g65
g66
NtRp1821
(dp1822
g69
(dp1823
g77
I4
ssg78
g1817
sg71
(lp1824
S'GET'
p1825
asbasbasbag64
(g80
g66
NtRp1826
(dp1827
g69
(dp1828
sg78
g1226
sg71
(lp1829
g64
(g85
g66
NtRp1830
(dp1831
g69
(dp1832
g89
g90
ssg78
g1826
sg71
(lp1833
S'request_uri'
p1834
asbag64
(g85
g66
NtRp1835
(dp1836
g69
(dp1837
g96
g97
ssg78
g1826
sg71
(lp1838
S':'
asbag64
(g85
g66
NtRp1839
(dp1840
g69
(dp1841
sg78
g1826
sg71
(lp1842
g64
(g65
g66
NtRp1843
(dp1844
g69
(dp1845
g77
I4
ssg78
g1839
sg71
(lp1846
S'/CartesianPlane/default/loadOptions?trigger=point&pointName=P1'
p1847
asbasbasbag64
(g80
g66
NtRp1848
(dp1849
g69
(dp1850
sg78
g1226
sg71
(lp1851
g64
(g85
g66
NtRp1852
(dp1853
g69
(dp1854
g89
g90
ssg78
g1848
sg71
(lp1855
S'script_name'
p1856
asbag64
(g85
g66
NtRp1857
(dp1858
g69
(dp1859
g96
g97
ssg78
g1848
sg71
(lp1860
S':'
asbag64
(g85
g66
NtRp1861
(dp1862
g69
(dp1863
sg78
g1848
sg71
(lp1864
g64
(g65
g66
NtRp1865
(dp1866
g69
(dp1867
g77
I4
ssg78
g1861
sg71
(lp1868
S''
asbasbasbag64
(g80
g66
NtRp1869
(dp1870
g69
(dp1871
sg78
g1226
sg71
(lp1872
g64
(g85
g66
NtRp1873
(dp1874
g69
(dp1875
g89
g90
ssg78
g1869
sg71
(lp1876
S'server_name'
p1877
asbag64
(g85
g66
NtRp1878
(dp1879
g69
(dp1880
g96
g97
ssg78
g1869
sg71
(lp1881
S':'
asbag64
(g85
g66
NtRp1882
(dp1883
g69
(dp1884
sg78
g1869
sg71
(lp1885
g64
(g65
g66
NtRp1886
(dp1887
g69
(dp1888
g77
I4
ssg78
g1882
sg71
(lp1889
g1703
asbasbasbag64
(g80
g66
NtRp1890
(dp1891
g69
(dp1892
sg78
g1226
sg71
(lp1893
g64
(g85
g66
NtRp1894
(dp1895
g69
(dp1896
g89
g90
ssg78
g1890
sg71
(lp1897
S'server_port'
p1898
asbag64
(g85
g66
NtRp1899
(dp1900
g69
(dp1901
g96
g97
ssg78
g1890
sg71
(lp1902
S':'
asbag64
(g85
g66
NtRp1903
(dp1904
g69
(dp1905
sg78
g1890
sg71
(lp1906
g64
(g65
g66
NtRp1907
(dp1908
g69
(dp1909
g77
I4
ssg78
g1903
sg71
(lp1910
S'8000'
p1911
asbasbasbag64
(g80
g66
NtRp1912
(dp1913
g69
(dp1914
sg78
g1226
sg71
(lp1915
g64
(g85
g66
NtRp1916
(dp1917
g69
(dp1918
g89
g90
ssg78
g1912
sg71
(lp1919
S'server_protocol'
p1920
asbag64
(g85
g66
NtRp1921
(dp1922
g69
(dp1923
g96
g97
ssg78
g1912
sg71
(lp1924
S':'
asbag64
(g85
g66
NtRp1925
(dp1926
g69
(dp1927
sg78
g1912
sg71
(lp1928
g64
(g65
g66
NtRp1929
(dp1930
g69
(dp1931
g77
I4
ssg78
g1925
sg71
(lp1932
S'HTTP/1.1'
p1933
asbasbasbag64
(g80
g66
NtRp1934
(dp1935
g69
(dp1936
sg78
g1226
sg71
(lp1937
g64
(g85
g66
NtRp1938
(dp1939
g69
(dp1940
g89
g90
ssg78
g1934
sg71
(lp1941
S'server_software'
p1942
asbag64
(g85
g66
NtRp1943
(dp1944
g69
(dp1945
g96
g97
ssg78
g1934
sg71
(lp1946
S':'
asbag64
(g85
g66
NtRp1947
(dp1948
g69
(dp1949
sg78
g1934
sg71
(lp1950
g64
(g65
g66
NtRp1951
(dp1952
g69
(dp1953
g77
I4
ssg78
g1947
sg71
(lp1954
S'Rocket 1.2.5'
p1955
asbasbasbag64
(g80
g66
NtRp1956
(dp1957
g69
(dp1958
sg78
g1226
sg71
(lp1959
g64
(g85
g66
NtRp1960
(dp1961
g69
(dp1962
g89
g90
ssg78
g1956
sg71
(lp1963
S'web2py_path'
p1964
asbag64
(g85
g66
NtRp1965
(dp1966
g69
(dp1967
g96
g97
ssg78
g1956
sg71
(lp1968
S':'
asbag64
(g85
g66
NtRp1969
(dp1970
g69
(dp1971
sg78
g1956
sg71
(lp1972
g64
(g65
g66
NtRp1973
(dp1974
g69
(dp1975
g77
I4
ssg78
g1969
sg71
(lp1976
g1273
asbasbasbag64
(g80
g66
NtRp1977
(dp1978
g69
(dp1979
sg78
g1226
sg71
(lp1980
g64
(g85
g66
NtRp1981
(dp1982
g69
(dp1983
g89
g90
ssg78
g1977
sg71
(lp1984
S'web2py_version'
p1985
asbag64
(g85
g66
NtRp1986
(dp1987
g69
(dp1988
g96
g97
ssg78
g1977
sg71
(lp1989
S':'
asbag64
(g85
g66
NtRp1990
(dp1991
g69
(dp1992
sg78
g1977
sg71
(lp1993
g64
(g65
g66
NtRp1994
(dp1995
g69
(dp1996
g77
I4
ssg78
g1990
sg71
(lp1997
g64
(g73
g66
NtRp1998
(dp1999
g69
(dp2000
g77
I3
ssg78
Nsg71
(lp2001
g64
(g80
g66
NtRp2002
(dp2003
g69
(dp2004
sg78
g1998
sg71
(lp2005
g64
(g85
g66
NtRp2006
(dp2007
g69
(dp2008
sg78
g2002
sg71
(lp2009
g64
(g65
g66
NtRp2010
(dp2011
g69
(dp2012
g77
I3
ssg78
g2006
sg71
(lp2013
S'2'
asbasbasbag64
(g80
g66
NtRp2014
(dp2015
g69
(dp2016
sg78
g1998
sg71
(lp2017
g64
(g85
g66
NtRp2018
(dp2019
g69
(dp2020
sg78
g2014
sg71
(lp2021
g64
(g65
g66
NtRp2022
(dp2023
g69
(dp2024
g77
I3
ssg78
g2018
sg71
(lp2025
S'2'
asbasbasbag64
(g80
g66
NtRp2026
(dp2027
g69
(dp2028
sg78
g1998
sg71
(lp2029
g64
(g85
g66
NtRp2030
(dp2031
g69
(dp2032
sg78
g2026
sg71
(lp2033
g64
(g65
g66
NtRp2034
(dp2035
g69
(dp2036
g77
I3
ssg78
g2030
sg71
(lp2037
S'1'
asbasbasbag64
(g80
g66
NtRp2038
(dp2039
g69
(dp2040
sg78
g1998
sg71
(lp2041
g64
(g85
g66
NtRp2042
(dp2043
g69
(dp2044
sg78
g2038
sg71
(lp2045
g64
(g65
g66
NtRp2046
(dp2047
g69
(dp2048
g77
I3
ssg78
g2042
sg71
(lp2049
S'datetime.datetime(2012, 11, 4, 20, 45, 19)'
p2050
asbasbasbag64
(g80
g66
NtRp2051
(dp2052
g69
(dp2053
sg78
g1998
sg71
(lp2054
g64
(g85
g66
NtRp2055
(dp2056
g69
(dp2057
sg78
g2051
sg71
(lp2058
g64
(g65
g66
NtRp2059
(dp2060
g69
(dp2061
g77
I3
ssg78
g2055
sg71
(lp2062
S'stable'
p2063
asbasbasbasbasbasbasbag64
(g80
g66
NtRp2064
(dp2065
g69
(dp2066
sg78
g1226
sg71
(lp2067
g64
(g85
g66
NtRp2068
(dp2069
g69
(dp2070
g89
g90
ssg78
g2064
sg71
(lp2071
S'wsgi_errors'
p2072
asbag64
(g85
g66
NtRp2073
(dp2074
g69
(dp2075
g96
g97
ssg78
g2064
sg71
(lp2076
S':'
asbag64
(g85
g66
NtRp2077
(dp2078
g69
(dp2079
sg78
g2064
sg71
(lp2080
g64
(g65
g66
NtRp2081
(dp2082
g69
(dp2083
g77
I4
ssg78
g2077
sg71
(lp2084
S"<open file '<stderr>', mode 'w' at 0x10628b270>"
p2085
asbasbasbag64
(g80
g66
NtRp2086
(dp2087
g69
(dp2088
sg78
g1226
sg71
(lp2089
g64
(g85
g66
NtRp2090
(dp2091
g69
(dp2092
g89
g90
ssg78
g2086
sg71
(lp2093
S'wsgi_file_wrapper'
p2094
asbag64
(g85
g66
NtRp2095
(dp2096
g69
(dp2097
g96
g97
ssg78
g2086
sg71
(lp2098
S':'
asbag64
(g85
g66
NtRp2099
(dp2100
g69
(dp2101
sg78
g2086
sg71
(lp2102
g64
(g65
g66
NtRp2103
(dp2104
g69
(dp2105
g77
I4
ssg78
g2099
sg71
(lp2106
S'<class wsgiref.util.FileWrapper at 0x106ffd9a8>'
p2107
asbasbasbag64
(g80
g66
NtRp2108
(dp2109
g69
(dp2110
sg78
g1226
sg71
(lp2111
g64
(g85
g66
NtRp2112
(dp2113
g69
(dp2114
g89
g90
ssg78
g2108
sg71
(lp2115
S'wsgi_input'
p2116
asbag64
(g85
g66
NtRp2117
(dp2118
g69
(dp2119
g96
g97
ssg78
g2108
sg71
(lp2120
S':'
asbag64
(g85
g66
NtRp2121
(dp2122
g69
(dp2123
sg78
g2108
sg71
(lp2124
g64
(g65
g66
NtRp2125
(dp2126
g69
(dp2127
g77
I4
ssg78
g2121
sg71
(lp2128
S'<socket._fileobject object at 0x10f0b0250>'
p2129
asbasbasbag64
(g80
g66
NtRp2130
(dp2131
g69
(dp2132
sg78
g1226
sg71
(lp2133
g64
(g85
g66
NtRp2134
(dp2135
g69
(dp2136
g89
g90
ssg78
g2130
sg71
(lp2137
S'wsgi_multiprocess'
p2138
asbag64
(g85
g66
NtRp2139
(dp2140
g69
(dp2141
g96
g97
ssg78
g2130
sg71
(lp2142
S':'
asbag64
(g85
g66
NtRp2143
(dp2144
g69
(dp2145
sg78
g2130
sg71
(lp2146
g64
(g65
g66
NtRp2147
(dp2148
g69
(dp2149
g77
I4
ssg78
g2143
sg71
(lp2150
g1364
asbasbasbag64
(g80
g66
NtRp2151
(dp2152
g69
(dp2153
sg78
g1226
sg71
(lp2154
g64
(g85
g66
NtRp2155
(dp2156
g69
(dp2157
g89
g90
ssg78
g2151
sg71
(lp2158
S'wsgi_multithread'
p2159
asbag64
(g85
g66
NtRp2160
(dp2161
g69
(dp2162
g96
g97
ssg78
g2151
sg71
(lp2163
S':'
asbag64
(g85
g66
NtRp2164
(dp2165
g69
(dp2166
sg78
g2151
sg71
(lp2167
g64
(g65
g66
NtRp2168
(dp2169
g69
(dp2170
g77
I4
ssg78
g2164
sg71
(lp2171
g107
asbasbasbag64
(g80
g66
NtRp2172
(dp2173
g69
(dp2174
sg78
g1226
sg71
(lp2175
g64
(g85
g66
NtRp2176
(dp2177
g69
(dp2178
g89
g90
ssg78
g2172
sg71
(lp2179
S'wsgi_run_once'
p2180
asbag64
(g85
g66
NtRp2181
(dp2182
g69
(dp2183
g96
g97
ssg78
g2172
sg71
(lp2184
S':'
asbag64
(g85
g66
NtRp2185
(dp2186
g69
(dp2187
sg78
g2172
sg71
(lp2188
g64
(g65
g66
NtRp2189
(dp2190
g69
(dp2191
g77
I4
ssg78
g2185
sg71
(lp2192
g1364
asbasbasbag64
(g80
g66
NtRp2193
(dp2194
g69
(dp2195
sg78
g1226
sg71
(lp2196
g64
(g85
g66
NtRp2197
(dp2198
g69
(dp2199
g89
g90
ssg78
g2193
sg71
(lp2200
S'wsgi_url_scheme'
p2201
asbag64
(g85
g66
NtRp2202
(dp2203
g69
(dp2204
g96
g97
ssg78
g2193
sg71
(lp2205
S':'
asbag64
(g85
g66
NtRp2206
(dp2207
g69
(dp2208
sg78
g2193
sg71
(lp2209
g64
(g65
g66
NtRp2210
(dp2211
g69
(dp2212
g77
I4
ssg78
g2206
sg71
(lp2213
S'http'
p2214
asbasbasbag64
(g80
g66
NtRp2215
(dp2216
g69
(dp2217
sg78
g1226
sg71
(lp2218
g64
(g85
g66
NtRp2219
(dp2220
g69
(dp2221
g89
g90
ssg78
g2215
sg71
(lp2222
S'wsgi_version'
p2223
asbag64
(g85
g66
NtRp2224
(dp2225
g69
(dp2226
g96
g97
ssg78
g2215
sg71
(lp2227
S':'
asbag64
(g85
g66
NtRp2228
(dp2229
g69
(dp2230
sg78
g2215
sg71
(lp2231
g64
(g65
g66
NtRp2232
(dp2233
g69
(dp2234
g77
I4
ssg78
g2228
sg71
(lp2235
g64
(g73
g66
NtRp2236
(dp2237
g69
(dp2238
g77
I3
ssg78
Nsg71
(lp2239
g64
(g80
g66
NtRp2240
(dp2241
g69
(dp2242
sg78
g2236
sg71
(lp2243
g64
(g85
g66
NtRp2244
(dp2245
g69
(dp2246
sg78
g2240
sg71
(lp2247
g64
(g65
g66
NtRp2248
(dp2249
g69
(dp2250
g77
I3
ssg78
g2244
sg71
(lp2251
S'1'
asbasbasbag64
(g80
g66
NtRp2252
(dp2253
g69
(dp2254
sg78
g2236
sg71
(lp2255
g64
(g85
g66
NtRp2256
(dp2257
g69
(dp2258
sg78
g2252
sg71
(lp2259
g64
(g65
g66
NtRp2260
(dp2261
g69
(dp2262
g77
I3
ssg78
g2256
sg71
(lp2263
S'0'
asbasbasbasbasbasbasbasbasbasbasbag64
(g80
g66
NtRp2264
(dp2265
g69
(dp2266
sg78
g74
sg71
(lp2267
g64
(g85
g66
NtRp2268
(dp2269
g69
(dp2270
g89
g90
ssg78
g2264
sg71
(lp2271
S'extension'
p2272
asbag64
(g85
g66
NtRp2273
(dp2274
g69
(dp2275
g96
g97
ssg78
g2264
sg71
(lp2276
S':'
asbag64
(g85
g66
NtRp2277
(dp2278
g69
(dp2279
sg78
g2264
sg71
(lp2280
g64
(g65
g66
NtRp2281
(dp2282
g69
(dp2283
g77
I5
ssg78
g2277
sg71
(lp2284
S'html'
p2285
asbasbasbag64
(g80
g66
NtRp2286
(dp2287
g69
(dp2288
sg78
g74
sg71
(lp2289
g64
(g85
g66
NtRp2290
(dp2291
g69
(dp2292
g89
g90
ssg78
g2286
sg71
(lp2293
S'folder'
p2294
asbag64
(g85
g66
NtRp2295
(dp2296
g69
(dp2297
g96
g97
ssg78
g2286
sg71
(lp2298
S':'
asbag64
(g85
g66
NtRp2299
(dp2300
g69
(dp2301
sg78
g2286
sg71
(lp2302
g64
(g65
g66
NtRp2303
(dp2304
g69
(dp2305
g77
I5
ssg78
g2299
sg71
(lp2306
S'/Users/victorgirotto/Desktop/web2py-master/applications/CartesianPlane/'
p2307
asbasbasbag64
(g80
g66
NtRp2308
(dp2309
g69
(dp2310
sg78
g74
sg71
(lp2311
g64
(g85
g66
NtRp2312
(dp2313
g69
(dp2314
g89
g90
ssg78
g2308
sg71
(lp2315
S'function'
p2316
asbag64
(g85
g66
NtRp2317
(dp2318
g69
(dp2319
g96
g97
ssg78
g2308
sg71
(lp2320
S':'
asbag64
(g85
g66
NtRp2321
(dp2322
g69
(dp2323
sg78
g2308
sg71
(lp2324
g64
(g65
g66
NtRp2325
(dp2326
g69
(dp2327
g77
I5
ssg78
g2321
sg71
(lp2328
S'loadOptions'
p2329
asbasbasbag64
(g80
g66
NtRp2330
(dp2331
g69
(dp2332
sg78
g74
sg71
(lp2333
g64
(g85
g66
NtRp2334
(dp2335
g69
(dp2336
g89
g90
ssg78
g2330
sg71
(lp2337
S'get_vars'
p2338
asbag64
(g85
g66
NtRp2339
(dp2340
g69
(dp2341
g96
g97
ssg78
g2330
sg71
(lp2342
S':'
asbag64
(g85
g66
NtRp2343
(dp2344
g69
(dp2345
sg78
g2330
sg71
(lp2346
g64
(g65
g66
NtRp2347
(dp2348
g69
(dp2349
g77
I5
ssg78
g2343
sg71
(lp2350
g64
(g73
g66
NtRp2351
(dp2352
g69
(dp2353
g77
I4
ssg78
Nsg71
(lp2354
g64
(g80
g66
NtRp2355
(dp2356
g69
(dp2357
sg78
g2351
sg71
(lp2358
g64
(g85
g66
NtRp2359
(dp2360
g69
(dp2361
g89
g90
ssg78
g2355
sg71
(lp2362
S'pointName'
p2363
asbag64
(g85
g66
NtRp2364
(dp2365
g69
(dp2366
g96
g97
ssg78
g2355
sg71
(lp2367
S':'
asbag64
(g85
g66
NtRp2368
(dp2369
g69
(dp2370
sg78
g2355
sg71
(lp2371
g64
(g65
g66
NtRp2372
(dp2373
g69
(dp2374
g77
I4
ssg78
g2368
sg71
(lp2375
S'P1'
p2376
asbasbasbag64
(g80
g66
NtRp2377
(dp2378
g69
(dp2379
sg78
g2351
sg71
(lp2380
g64
(g85
g66
NtRp2381
(dp2382
g69
(dp2383
g89
g90
ssg78
g2377
sg71
(lp2384
S'trigger'
p2385
asbag64
(g85
g66
NtRp2386
(dp2387
g69
(dp2388
g96
g97
ssg78
g2377
sg71
(lp2389
S':'
asbag64
(g85
g66
NtRp2390
(dp2391
g69
(dp2392
sg78
g2377
sg71
(lp2393
g64
(g65
g66
NtRp2394
(dp2395
g69
(dp2396
g77
I4
ssg78
g2390
sg71
(lp2397
S'point'
p2398
asbasbasbasbasbasbasbag64
(g80
g66
NtRp2399
(dp2400
g69
(dp2401
sg78
g74
sg71
(lp2402
g64
(g85
g66
NtRp2403
(dp2404
g69
(dp2405
g89
g90
ssg78
g2399
sg71
(lp2406
S'global_settings'
p2407
asbag64
(g85
g66
NtRp2408
(dp2409
g69
(dp2410
g96
g97
ssg78
g2399
sg71
(lp2411
S':'
asbag64
(g85
g66
NtRp2412
(dp2413
g69
(dp2414
sg78
g2399
sg71
(lp2415
g64
(g65
g66
NtRp2416
(dp2417
g69
(dp2418
g77
I5
ssg78
g2412
sg71
(lp2419
g64
(g73
g66
NtRp2420
(dp2421
g69
(dp2422
g77
I4
ssg78
Nsg71
(lp2423
g64
(g80
g66
NtRp2424
(dp2425
g69
(dp2426
sg78
g2420
sg71
(lp2427
g64
(g85
g66
NtRp2428
(dp2429
g69
(dp2430
g89
g90
ssg78
g2424
sg71
(lp2431
g1238
asbag64
(g85
g66
NtRp2432
(dp2433
g69
(dp2434
g96
g97
ssg78
g2424
sg71
(lp2435
S':'
asbag64
(g85
g66
NtRp2436
(dp2437
g69
(dp2438
sg78
g2424
sg71
(lp2439
g64
(g65
g66
NtRp2440
(dp2441
g69
(dp2442
g77
I4
ssg78
g2436
sg71
(lp2443
S"set(['/Users/victorgirotto/Desktop/web2py-master/applications/MobileInterface/', '/Users/victorgirotto/Desktop/web2py-master/applications/welcome/', '/Users/victorgirotto/Desktop/web2py-master/applications/CartesianPlane/', '/Users/victorgirotto/Desktop/web2py-master/applications/GeogebraInterface/', '/Users/victorgirotto/Desktop/web2py-master/applications/admin/'])"
p2444
asbasbasbag64
(g80
g66
NtRp2445
(dp2446
g69
(dp2447
sg78
g2420
sg71
(lp2448
g64
(g85
g66
NtRp2449
(dp2450
g69
(dp2451
g89
g90
ssg78
g2445
sg71
(lp2452
g1260
asbag64
(g85
g66
NtRp2453
(dp2454
g69
(dp2455
g96
g97
ssg78
g2445
sg71
(lp2456
S':'
asbag64
(g85
g66
NtRp2457
(dp2458
g69
(dp2459
sg78
g2445
sg71
(lp2460
g64
(g65
g66
NtRp2461
(dp2462
g69
(dp2463
g77
I4
ssg78
g2457
sg71
(lp2464
g1273
asbasbasbag64
(g80
g66
NtRp2465
(dp2466
g69
(dp2467
sg78
g2420
sg71
(lp2468
g64
(g85
g66
NtRp2469
(dp2470
g69
(dp2471
g89
g90
ssg78
g2465
sg71
(lp2472
g1282
asbag64
(g85
g66
NtRp2473
(dp2474
g69
(dp2475
g96
g97
ssg78
g2465
sg71
(lp2476
S':'
asbag64
(g85
g66
NtRp2477
(dp2478
g69
(dp2479
sg78
g2465
sg71
(lp2480
g64
(g65
g66
NtRp2481
(dp2482
g69
(dp2483
g77
I4
ssg78
g2477
sg71
(lp2484
g64
(g73
g66
NtRp2485
(dp2486
g69
(dp2487
g77
I3
ssg78
Nsg71
(lp2488
sbasbasbasbag64
(g80
g66
NtRp2489
(dp2490
g69
(dp2491
sg78
g2420
sg71
(lp2492
g64
(g85
g66
NtRp2493
(dp2494
g69
(dp2495
g89
g90
ssg78
g2489
sg71
(lp2496
g1307
asbag64
(g85
g66
NtRp2497
(dp2498
g69
(dp2499
g96
g97
ssg78
g2489
sg71
(lp2500
S':'
asbag64
(g85
g66
NtRp2501
(dp2502
g69
(dp2503
sg78
g2489
sg71
(lp2504
g64
(g65
g66
NtRp2505
(dp2506
g69
(dp2507
g77
I4
ssg78
g2501
sg71
(lp2508
S"<Values at 0x10705ccb0: {'verbose': False, 'ip': '127.0.0.1', 'with_scheduler': False, 'ips': ['10.211.55.2', '10.37.129.2', '10.142.224.219'], 'shutdown_timeout': 5, 'taskbar': False, 'port': 8000, 'maxthreads': None, 'softcron': False, 'server_name': 'MacBook-Pro-de-Victor.local', 'bpython': False, 'nogui': False, 'pid_filename': 'httpserver.pid', 'extcron': False, 'runcron': False, 'run_system_tests': False, 'test': None, 'folder': '/Users/victorgirotto/Desktop/web2py-master', 'config': '', 'minthreads': None, 'winservice': '', 'shell': None, 'run': '', 'log_filename': 'httpserver.log', 'debuglevel': 30, 'args': [''], 'socket_timeout': 5, 'ssl_ca_certificate': None, 'scheduler': None, 'profiler_filename': None, 'ssl_private_key': '', 'scheduler_groups': None, 'password': '<ask>', 'request_queue_size': 5, 'ssl_certificate': '', 'cronjob': False, 'numthreads': None, 'quiet': False, 'interfaces': None, 'import_models': False, 'timeout': 10, 'plain': False, 'nobanner': False}>"
p2509
asbasbasbag64
(g80
g66
NtRp2510
(dp2511
g69
(dp2512
sg78
g2420
sg71
(lp2513
g64
(g85
g66
NtRp2514
(dp2515
g69
(dp2516
g89
g90
ssg78
g2510
sg71
(lp2517
g1329
asbag64
(g85
g66
NtRp2518
(dp2519
g69
(dp2520
g96
g97
ssg78
g2510
sg71
(lp2521
S':'
asbag64
(g85
g66
NtRp2522
(dp2523
g69
(dp2524
sg78
g2510
sg71
(lp2525
g64
(g65
g66
NtRp2526
(dp2527
g69
(dp2528
g77
I4
ssg78
g2522
sg71
(lp2529
S'set([])'
p2530
asbasbasbag64
(g80
g66
NtRp2531
(dp2532
g69
(dp2533
sg78
g2420
sg71
(lp2534
g64
(g85
g66
NtRp2535
(dp2536
g69
(dp2537
g89
g90
ssg78
g2531
sg71
(lp2538
g1351
asbag64
(g85
g66
NtRp2539
(dp2540
g69
(dp2541
g96
g97
ssg78
g2531
sg71
(lp2542
S':'
asbag64
(g85
g66
NtRp2543
(dp2544
g69
(dp2545
sg78
g2531
sg71
(lp2546
g64
(g65
g66
NtRp2547
(dp2548
g69
(dp2549
g77
I4
ssg78
g2543
sg71
(lp2550
g1364
asbasbasbag64
(g80
g66
NtRp2551
(dp2552
g69
(dp2553
sg78
g2420
sg71
(lp2554
g64
(g85
g66
NtRp2555
(dp2556
g69
(dp2557
g89
g90
ssg78
g2551
sg71
(lp2558
g1373
asbag64
(g85
g66
NtRp2559
(dp2560
g69
(dp2561
g96
g97
ssg78
g2551
sg71
(lp2562
S':'
asbag64
(g85
g66
NtRp2563
(dp2564
g69
(dp2565
sg78
g2551
sg71
(lp2566
g64
(g65
g66
NtRp2567
(dp2568
g69
(dp2569
g77
I4
ssg78
g2563
sg71
(lp2570
g1386
asbasbasbag64
(g80
g66
NtRp2571
(dp2572
g69
(dp2573
sg78
g2420
sg71
(lp2574
g64
(g85
g66
NtRp2575
(dp2576
g69
(dp2577
g89
g90
ssg78
g2571
sg71
(lp2578
g1593
asbag64
(g85
g66
NtRp2579
(dp2580
g69
(dp2581
g96
g97
ssg78
g2571
sg71
(lp2582
S':'
asbag64
(g85
g66
NtRp2583
(dp2584
g69
(dp2585
sg78
g2571
sg71
(lp2586
g64
(g65
g66
NtRp2587
(dp2588
g69
(dp2589
g77
I4
ssg78
g2583
sg71
(lp2590
g1364
asbasbasbag64
(g80
g66
NtRp2591
(dp2592
g69
(dp2593
sg78
g2420
sg71
(lp2594
g64
(g85
g66
NtRp2595
(dp2596
g69
(dp2597
g89
g90
ssg78
g2591
sg71
(lp2598
g1614
asbag64
(g85
g66
NtRp2599
(dp2600
g69
(dp2601
g96
g97
ssg78
g2591
sg71
(lp2602
S':'
asbag64
(g85
g66
NtRp2603
(dp2604
g69
(dp2605
sg78
g2591
sg71
(lp2606
g64
(g65
g66
NtRp2607
(dp2608
g69
(dp2609
g77
I4
ssg78
g2603
sg71
(lp2610
g1364
asbasbasbag64
(g80
g66
NtRp2611
(dp2612
g69
(dp2613
sg78
g2420
sg71
(lp2614
g64
(g85
g66
NtRp2615
(dp2616
g69
(dp2617
g89
g90
ssg78
g2611
sg71
(lp2618
g1635
asbag64
(g85
g66
NtRp2619
(dp2620
g69
(dp2621
g96
g97
ssg78
g2611
sg71
(lp2622
S':'
asbag64
(g85
g66
NtRp2623
(dp2624
g69
(dp2625
sg78
g2611
sg71
(lp2626
g64
(g65
g66
NtRp2627
(dp2628
g69
(dp2629
g77
I4
ssg78
g2623
sg71
(lp2630
g64
(g73
g66
NtRp2631
(dp2632
g69
(dp2633
g77
I3
ssg78
Nsg71
(lp2634
g64
(g80
g66
NtRp2635
(dp2636
g69
(dp2637
sg78
g2631
sg71
(lp2638
g64
(g85
g66
NtRp2639
(dp2640
g69
(dp2641
sg78
g2635
sg71
(lp2642
g64
(g65
g66
NtRp2643
(dp2644
g69
(dp2645
g77
I3
ssg78
g2639
sg71
(lp2646
g1664
asbasbasbag64
(g80
g66
NtRp2647
(dp2648
g69
(dp2649
sg78
g2631
sg71
(lp2650
g64
(g85
g66
NtRp2651
(dp2652
g69
(dp2653
sg78
g2647
sg71
(lp2654
g64
(g65
g66
NtRp2655
(dp2656
g69
(dp2657
g77
I3
ssg78
g2651
sg71
(lp2658
g1677
asbasbasbag64
(g80
g66
NtRp2659
(dp2660
g69
(dp2661
sg78
g2631
sg71
(lp2662
g64
(g85
g66
NtRp2663
(dp2664
g69
(dp2665
sg78
g2659
sg71
(lp2666
g64
(g65
g66
NtRp2667
(dp2668
g69
(dp2669
g77
I3
ssg78
g2663
sg71
(lp2670
g1690
asbasbasbag64
(g80
g66
NtRp2671
(dp2672
g69
(dp2673
sg78
g2631
sg71
(lp2674
g64
(g85
g66
NtRp2675
(dp2676
g69
(dp2677
sg78
g2671
sg71
(lp2678
g64
(g65
g66
NtRp2679
(dp2680
g69
(dp2681
g77
I3
ssg78
g2675
sg71
(lp2682
g1703
asbasbasbag64
(g80
g66
NtRp2683
(dp2684
g69
(dp2685
sg78
g2631
sg71
(lp2686
g64
(g85
g66
NtRp2687
(dp2688
g69
(dp2689
sg78
g2683
sg71
(lp2690
g64
(g65
g66
NtRp2691
(dp2692
g69
(dp2693
g77
I3
ssg78
g2687
sg71
(lp2694
g1716
asbasbasbasbasbasbasbag64
(g80
g66
NtRp2695
(dp2696
g69
(dp2697
sg78
g2420
sg71
(lp2698
g64
(g85
g66
NtRp2699
(dp2700
g69
(dp2701
g89
g90
ssg78
g2695
sg71
(lp2702
g1985
asbag64
(g85
g66
NtRp2703
(dp2704
g69
(dp2705
g96
g97
ssg78
g2695
sg71
(lp2706
S':'
asbag64
(g85
g66
NtRp2707
(dp2708
g69
(dp2709
sg78
g2695
sg71
(lp2710
g64
(g65
g66
NtRp2711
(dp2712
g69
(dp2713
g77
I4
ssg78
g2707
sg71
(lp2714
g64
(g73
g66
NtRp2715
(dp2716
g69
(dp2717
g77
I3
ssg78
Nsg71
(lp2718
g64
(g80
g66
NtRp2719
(dp2720
g69
(dp2721
sg78
g2715
sg71
(lp2722
g64
(g85
g66
NtRp2723
(dp2724
g69
(dp2725
sg78
g2719
sg71
(lp2726
g64
(g65
g66
NtRp2727
(dp2728
g69
(dp2729
g77
I3
ssg78
g2723
sg71
(lp2730
S'2'
asbasbasbag64
(g80
g66
NtRp2731
(dp2732
g69
(dp2733
sg78
g2715
sg71
(lp2734
g64
(g85
g66
NtRp2735
(dp2736
g69
(dp2737
sg78
g2731
sg71
(lp2738
g64
(g65
g66
NtRp2739
(dp2740
g69
(dp2741
g77
I3
ssg78
g2735
sg71
(lp2742
S'2'
asbasbasbag64
(g80
g66
NtRp2743
(dp2744
g69
(dp2745
sg78
g2715
sg71
(lp2746
g64
(g85
g66
NtRp2747
(dp2748
g69
(dp2749
sg78
g2743
sg71
(lp2750
g64
(g65
g66
NtRp2751
(dp2752
g69
(dp2753
g77
I3
ssg78
g2747
sg71
(lp2754
S'1'
asbasbasbag64
(g80
g66
NtRp2755
(dp2756
g69
(dp2757
sg78
g2715
sg71
(lp2758
g64
(g85
g66
NtRp2759
(dp2760
g69
(dp2761
sg78
g2755
sg71
(lp2762
g64
(g65
g66
NtRp2763
(dp2764
g69
(dp2765
g77
I3
ssg78
g2759
sg71
(lp2766
S'datetime.datetime(2012, 11, 4, 20, 45, 19)'
p2767
asbasbasbag64
(g80
g66
NtRp2768
(dp2769
g69
(dp2770
sg78
g2715
sg71
(lp2771
g64
(g85
g66
NtRp2772
(dp2773
g69
(dp2774
sg78
g2768
sg71
(lp2775
g64
(g65
g66
NtRp2776
(dp2777
g69
(dp2778
g77
I3
ssg78
g2772
sg71
(lp2779
g2063
asbasbasbasbasbasbasbasbasbasbasbag64
(g80
g66
NtRp2780
(dp2781
g69
(dp2782
sg78
g74
sg71
(lp2783
g64
(g85
g66
NtRp2784
(dp2785
g69
(dp2786
g89
g90
ssg78
g2780
sg71
(lp2787
S'is_https'
p2788
asbag64
(g85
g66
NtRp2789
(dp2790
g69
(dp2791
g96
g97
ssg78
g2780
sg71
(lp2792
S':'
asbag64
(g85
g66
NtRp2793
(dp2794
g69
(dp2795
sg78
g2780
sg71
(lp2796
g64
(g65
g66
NtRp2797
(dp2798
g69
(dp2799
g77
I5
ssg78
g2793
sg71
(lp2800
g1364
asbasbasbag64
(g80
g66
NtRp2801
(dp2802
g69
(dp2803
sg78
g74
sg71
(lp2804
g64
(g85
g66
NtRp2805
(dp2806
g69
(dp2807
g89
g90
ssg78
g2801
sg71
(lp2808
S'is_local'
p2809
asbag64
(g85
g66
NtRp2810
(dp2811
g69
(dp2812
g96
g97
ssg78
g2801
sg71
(lp2813
S':'
asbag64
(g85
g66
NtRp2814
(dp2815
g69
(dp2816
sg78
g2801
sg71
(lp2817
g64
(g65
g66
NtRp2818
(dp2819
g69
(dp2820
g77
I5
ssg78
g2814
sg71
(lp2821
g107
asbasbasbag64
(g80
g66
NtRp2822
(dp2823
g69
(dp2824
sg78
g74
sg71
(lp2825
g64
(g85
g66
NtRp2826
(dp2827
g69
(dp2828
g89
g90
ssg78
g2822
sg71
(lp2829
S'is_restful'
p2830
asbag64
(g85
g66
NtRp2831
(dp2832
g69
(dp2833
g96
g97
ssg78
g2822
sg71
(lp2834
S':'
asbag64
(g85
g66
NtRp2835
(dp2836
g69
(dp2837
sg78
g2822
sg71
(lp2838
g64
(g65
g66
NtRp2839
(dp2840
g69
(dp2841
g77
I5
ssg78
g2835
sg71
(lp2842
g1364
asbasbasbag64
(g80
g66
NtRp2843
(dp2844
g69
(dp2845
sg78
g74
sg71
(lp2846
g64
(g85
g66
NtRp2847
(dp2848
g69
(dp2849
g89
g90
ssg78
g2843
sg71
(lp2850
S'now'
p2851
asbag64
(g85
g66
NtRp2852
(dp2853
g69
(dp2854
g96
g97
ssg78
g2843
sg71
(lp2855
S':'
asbag64
(g85
g66
NtRp2856
(dp2857
g69
(dp2858
sg78
g2843
sg71
(lp2859
g64
(g65
g66
NtRp2860
(dp2861
g69
(dp2862
g77
I5
ssg78
g2856
sg71
(lp2863
S'datetime.datetime(2013, 1, 24, 17, 10, 51, 650248)'
p2864
asbasbasbag64
(g80
g66
NtRp2865
(dp2866
g69
(dp2867
sg78
g74
sg71
(lp2868
g64
(g85
g66
NtRp2869
(dp2870
g69
(dp2871
g89
g90
ssg78
g2865
sg71
(lp2872
S'post_vars'
p2873
asbag64
(g85
g66
NtRp2874
(dp2875
g69
(dp2876
g96
g97
ssg78
g2865
sg71
(lp2877
S':'
asbag64
(g85
g66
NtRp2878
(dp2879
g69
(dp2880
sg78
g2865
sg71
(lp2881
g64
(g65
g66
NtRp2882
(dp2883
g69
(dp2884
g77
I5
ssg78
g2878
sg71
(lp2885
g64
(g73
g66
NtRp2886
(dp2887
g69
(dp2888
g77
I4
ssg78
Nsg71
(lp2889
sbasbasbasbag64
(g80
g66
NtRp2890
(dp2891
g69
(dp2892
sg78
g74
sg71
(lp2893
g64
(g85
g66
NtRp2894
(dp2895
g69
(dp2896
g89
g90
ssg78
g2890
sg71
(lp2897
S'raw_args'
p2898
asbag64
(g85
g66
NtRp2899
(dp2900
g69
(dp2901
g96
g97
ssg78
g2890
sg71
(lp2902
S':'
asbag64
(g85
g66
NtRp2903
(dp2904
g69
(dp2905
sg78
g2890
sg71
(lp2906
g64
(g65
g66
NtRp2907
(dp2908
g69
(dp2909
g77
I5
ssg78
g2903
sg71
(lp2910
S''
asbasbasbag64
(g80
g66
NtRp2911
(dp2912
g69
(dp2913
sg78
g74
sg71
(lp2914
g64
(g85
g66
NtRp2915
(dp2916
g69
(dp2917
g89
g90
ssg78
g2911
sg71
(lp2918
S'raw_extension'
p2919
asbag64
(g85
g66
NtRp2920
(dp2921
g69
(dp2922
g96
g97
ssg78
g2911
sg71
(lp2923
S':'
asbag64
(g85
g66
NtRp2924
(dp2925
g69
(dp2926
sg78
g2911
sg71
(lp2927
g64
(g65
g66
NtRp2928
(dp2929
g69
(dp2930
g77
I5
ssg78
g2924
sg71
(lp2931
S'None'
p2932
asbasbasbag64
(g80
g66
NtRp2933
(dp2934
g69
(dp2935
sg78
g74
sg71
(lp2936
g64
(g85
g66
NtRp2937
(dp2938
g69
(dp2939
g89
g90
ssg78
g2933
sg71
(lp2940
S'url'
p2941
asbag64
(g85
g66
NtRp2942
(dp2943
g69
(dp2944
g96
g97
ssg78
g2933
sg71
(lp2945
S':'
asbag64
(g85
g66
NtRp2946
(dp2947
g69
(dp2948
sg78
g2933
sg71
(lp2949
g64
(g65
g66
NtRp2950
(dp2951
g69
(dp2952
g77
I5
ssg78
g2946
sg71
(lp2953
g1738
asbasbasbag64
(g80
g66
NtRp2954
(dp2955
g69
(dp2956
sg78
g74
sg71
(lp2957
g64
(g85
g66
NtRp2958
(dp2959
g69
(dp2960
g89
g90
ssg78
g2954
sg71
(lp2961
S'utcnow'
p2962
asbag64
(g85
g66
NtRp2963
(dp2964
g69
(dp2965
g96
g97
ssg78
g2954
sg71
(lp2966
S':'
asbag64
(g85
g66
NtRp2967
(dp2968
g69
(dp2969
sg78
g2954
sg71
(lp2970
g64
(g65
g66
NtRp2971
(dp2972
g69
(dp2973
g77
I5
ssg78
g2967
sg71
(lp2974
S'datetime.datetime(2013, 1, 25, 0, 10, 51, 650258)'
p2975
asbasbasbag64
(g80
g66
NtRp2976
(dp2977
g69
(dp2978
sg78
g74
sg71
(lp2979
g64
(g85
g66
NtRp2980
(dp2981
g69
(dp2982
g89
g90
ssg78
g2976
sg71
(lp2983
S'uuid'
p2984
asbag64
(g85
g66
NtRp2985
(dp2986
g69
(dp2987
g96
g97
ssg78
g2976
sg71
(lp2988
S':'
asbag64
(g85
g66
NtRp2989
(dp2990
g69
(dp2991
sg78
g2976
sg71
(lp2992
g64
(g65
g66
NtRp2993
(dp2994
g69
(dp2995
g77
I5
ssg78
g2989
sg71
(lp2996
S'CartesianPlane/127.0.0.1.2013-01-24.17-10-51.091b815a-8264-41ac-adc0-689c13c5e335'
p2997
asbasbasbag64
(g80
g66
NtRp2998
(dp2999
g69
(dp3000
sg78
g74
sg71
(lp3001
g64
(g85
g66
NtRp3002
(dp3003
g69
(dp3004
g89
g90
ssg78
g2998
sg71
(lp3005
S'vars'
p3006
asbag64
(g85
g66
NtRp3007
(dp3008
g69
(dp3009
g96
g97
ssg78
g2998
sg71
(lp3010
S':'
asbag64
(g85
g66
NtRp3011
(dp3012
g69
(dp3013
sg78
g2998
sg71
(lp3014
g64
(g65
g66
NtRp3015
(dp3016
g69
(dp3017
g77
I5
ssg78
g3011
sg71
(lp3018
g64
(g73
g66
NtRp3019
(dp3020
g69
(dp3021
g77
I4
ssg78
Nsg71
(lp3022
g64
(g80
g66
NtRp3023
(dp3024
g69
(dp3025
sg78
g3019
sg71
(lp3026
g64
(g85
g66
NtRp3027
(dp3028
g69
(dp3029
g89
g90
ssg78
g3023
sg71
(lp3030
g2363
asbag64
(g85
g66
NtRp3031
(dp3032
g69
(dp3033
g96
g97
ssg78
g3023
sg71
(lp3034
S':'
asbag64
(g85
g66
NtRp3035
(dp3036
g69
(dp3037
sg78
g3023
sg71
(lp3038
g64
(g65
g66
NtRp3039
(dp3040
g69
(dp3041
g77
I4
ssg78
g3035
sg71
(lp3042
g2376
asbasbasbag64
(g80
g66
NtRp3043
(dp3044
g69
(dp3045
sg78
g3019
sg71
(lp3046
g64
(g85
g66
NtRp3047
(dp3048
g69
(dp3049
g89
g90
ssg78
g3043
sg71
(lp3050
g2385
asbag64
(g85
g66
NtRp3051
(dp3052
g69
(dp3053
g96
g97
ssg78
g3043
sg71
(lp3054
S':'
asbag64
(g85
g66
NtRp3055
(dp3056
g69
(dp3057
sg78
g3043
sg71
(lp3058
g64
(g65
g66
NtRp3059
(dp3060
g69
(dp3061
g77
I4
ssg78
g3055
sg71
(lp3062
g2398
asbasbasbasbasbasbasbag64
(g80
g66
NtRp3063
(dp3064
g69
(dp3065
sg78
g74
sg71
(lp3066
g64
(g85
g66
NtRp3067
(dp3068
g69
(dp3069
g89
g90
ssg78
g3063
sg71
(lp3070
S'wsgi'
p3071
asbag64
(g85
g66
NtRp3072
(dp3073
g69
(dp3074
g96
g97
ssg78
g3063
sg71
(lp3075
S':'
asbag64
(g85
g66
NtRp3076
(dp3077
g69
(dp3078
sg78
g3063
sg71
(lp3079
g64
(g65
g66
NtRp3080
(dp3081
g69
(dp3082
g77
I5
ssg78
g3076
sg71
(lp3083
g64
(g73
g66
NtRp3084
(dp3085
g69
(dp3086
g77
I4
ssg78
Nsg71
(lp3087
g64
(g80
g66
NtRp3088
(dp3089
g69
(dp3090
sg78
g3084
sg71
(lp3091
g64
(g85
g66
NtRp3092
(dp3093
g69
(dp3094
g89
g90
ssg78
g3088
sg71
(lp3095
S'environ'
p3096
asbag64
(g85
g66
NtRp3097
(dp3098
g69
(dp3099
g96
g97
ssg78
g3088
sg71
(lp3100
S':'
asbag64
(g85
g66
NtRp3101
(dp3102
g69
(dp3103
sg78
g3088
sg71
(lp3104
g64
(g65
g66
NtRp3105
(dp3106
g69
(dp3107
g77
I4
ssg78
g3101
sg71
(lp3108
g64
(g73
g66
NtRp3109
(dp3110
g69
(dp3111
g77
I3
ssg78
Nsg71
(lp3112
g64
(g80
g66
NtRp3113
(dp3114
g69
(dp3115
sg78
g3109
sg71
(lp3116
g64
(g85
g66
NtRp3117
(dp3118
g69
(dp3119
g89
g90
ssg78
g3113
sg71
(lp3120
S'HTTP_ACCEPT'
p3121
asbag64
(g85
g66
NtRp3122
(dp3123
g69
(dp3124
g96
g97
ssg78
g3113
sg71
(lp3125
S':'
asbag64
(g85
g66
NtRp3126
(dp3127
g69
(dp3128
sg78
g3113
sg71
(lp3129
g64
(g65
g66
NtRp3130
(dp3131
g69
(dp3132
g77
I3
ssg78
g3126
sg71
(lp3133
g1408
asbasbasbag64
(g80
g66
NtRp3134
(dp3135
g69
(dp3136
sg78
g3109
sg71
(lp3137
g64
(g85
g66
NtRp3138
(dp3139
g69
(dp3140
g89
g90
ssg78
g3134
sg71
(lp3141
S'HTTP_ACCEPT_ENCODING'
p3142
asbag64
(g85
g66
NtRp3143
(dp3144
g69
(dp3145
g96
g97
ssg78
g3134
sg71
(lp3146
S':'
asbag64
(g85
g66
NtRp3147
(dp3148
g69
(dp3149
sg78
g3134
sg71
(lp3150
g64
(g65
g66
NtRp3151
(dp3152
g69
(dp3153
g77
I3
ssg78
g3147
sg71
(lp3154
g1430
asbasbasbag64
(g80
g66
NtRp3155
(dp3156
g69
(dp3157
sg78
g3109
sg71
(lp3158
g64
(g85
g66
NtRp3159
(dp3160
g69
(dp3161
g89
g90
ssg78
g3155
sg71
(lp3162
S'HTTP_ACCEPT_LANGUAGE'
p3163
asbag64
(g85
g66
NtRp3164
(dp3165
g69
(dp3166
g96
g97
ssg78
g3155
sg71
(lp3167
S':'
asbag64
(g85
g66
NtRp3168
(dp3169
g69
(dp3170
sg78
g3155
sg71
(lp3171
g64
(g65
g66
NtRp3172
(dp3173
g69
(dp3174
g77
I3
ssg78
g3168
sg71
(lp3175
g1452
asbasbasbag64
(g80
g66
NtRp3176
(dp3177
g69
(dp3178
sg78
g3109
sg71
(lp3179
g64
(g85
g66
NtRp3180
(dp3181
g69
(dp3182
g89
g90
ssg78
g3176
sg71
(lp3183
S'HTTP_CONNECTION'
p3184
asbag64
(g85
g66
NtRp3185
(dp3186
g69
(dp3187
g96
g97
ssg78
g3176
sg71
(lp3188
S':'
asbag64
(g85
g66
NtRp3189
(dp3190
g69
(dp3191
sg78
g3176
sg71
(lp3192
g64
(g65
g66
NtRp3193
(dp3194
g69
(dp3195
g77
I3
ssg78
g3189
sg71
(lp3196
g1474
asbasbasbag64
(g80
g66
NtRp3197
(dp3198
g69
(dp3199
sg78
g3109
sg71
(lp3200
g64
(g85
g66
NtRp3201
(dp3202
g69
(dp3203
g89
g90
ssg78
g3197
sg71
(lp3204
S'HTTP_COOKIE'
p3205
asbag64
(g85
g66
NtRp3206
(dp3207
g69
(dp3208
g96
g97
ssg78
g3197
sg71
(lp3209
S':'
asbag64
(g85
g66
NtRp3210
(dp3211
g69
(dp3212
sg78
g3197
sg71
(lp3213
g64
(g65
g66
NtRp3214
(dp3215
g69
(dp3216
g77
I3
ssg78
g3210
sg71
(lp3217
g1496
asbasbasbag64
(g80
g66
NtRp3218
(dp3219
g69
(dp3220
sg78
g3109
sg71
(lp3221
g64
(g85
g66
NtRp3222
(dp3223
g69
(dp3224
g89
g90
ssg78
g3218
sg71
(lp3225
S'HTTP_HOST'
p3226
asbag64
(g85
g66
NtRp3227
(dp3228
g69
(dp3229
g96
g97
ssg78
g3218
sg71
(lp3230
S':'
asbag64
(g85
g66
NtRp3231
(dp3232
g69
(dp3233
sg78
g3218
sg71
(lp3234
g64
(g65
g66
NtRp3235
(dp3236
g69
(dp3237
g77
I3
ssg78
g3231
sg71
(lp3238
g1518
asbasbasbag64
(g80
g66
NtRp3239
(dp3240
g69
(dp3241
sg78
g3109
sg71
(lp3242
g64
(g85
g66
NtRp3243
(dp3244
g69
(dp3245
g89
g90
ssg78
g3239
sg71
(lp3246
S'HTTP_REFERER'
p3247
asbag64
(g85
g66
NtRp3248
(dp3249
g69
(dp3250
g96
g97
ssg78
g3239
sg71
(lp3251
S':'
asbag64
(g85
g66
NtRp3252
(dp3253
g69
(dp3254
sg78
g3239
sg71
(lp3255
g64
(g65
g66
NtRp3256
(dp3257
g69
(dp3258
g77
I3
ssg78
g3252
sg71
(lp3259
g1540
asbasbasbag64
(g80
g66
NtRp3260
(dp3261
g69
(dp3262
sg78
g3109
sg71
(lp3263
g64
(g85
g66
NtRp3264
(dp3265
g69
(dp3266
g89
g90
ssg78
g3260
sg71
(lp3267
S'HTTP_USER_AGENT'
p3268
asbag64
(g85
g66
NtRp3269
(dp3270
g69
(dp3271
g96
g97
ssg78
g3260
sg71
(lp3272
S':'
asbag64
(g85
g66
NtRp3273
(dp3274
g69
(dp3275
sg78
g3260
sg71
(lp3276
g64
(g65
g66
NtRp3277
(dp3278
g69
(dp3279
g77
I3
ssg78
g3273
sg71
(lp3280
g1562
asbasbasbag64
(g80
g66
NtRp3281
(dp3282
g69
(dp3283
sg78
g3109
sg71
(lp3284
g64
(g85
g66
NtRp3285
(dp3286
g69
(dp3287
g89
g90
ssg78
g3281
sg71
(lp3288
S'HTTP_X_REQUESTED_WITH'
p3289
asbag64
(g85
g66
NtRp3290
(dp3291
g69
(dp3292
g96
g97
ssg78
g3281
sg71
(lp3293
S':'
asbag64
(g85
g66
NtRp3294
(dp3295
g69
(dp3296
sg78
g3281
sg71
(lp3297
g64
(g65
g66
NtRp3298
(dp3299
g69
(dp3300
g77
I3
ssg78
g3294
sg71
(lp3301
g1584
asbasbasbag64
(g80
g66
NtRp3302
(dp3303
g69
(dp3304
sg78
g3109
sg71
(lp3305
g64
(g85
g66
NtRp3306
(dp3307
g69
(dp3308
g89
g90
ssg78
g3302
sg71
(lp3309
S'PATH_INFO'
p3310
asbag64
(g85
g66
NtRp3311
(dp3312
g69
(dp3313
g96
g97
ssg78
g3302
sg71
(lp3314
S':'
asbag64
(g85
g66
NtRp3315
(dp3316
g69
(dp3317
sg78
g3302
sg71
(lp3318
g64
(g65
g66
NtRp3319
(dp3320
g69
(dp3321
g77
I3
ssg78
g3315
sg71
(lp3322
g1738
asbasbasbag64
(g80
g66
NtRp3323
(dp3324
g69
(dp3325
sg78
g3109
sg71
(lp3326
g64
(g85
g66
NtRp3327
(dp3328
g69
(dp3329
g89
g90
ssg78
g3323
sg71
(lp3330
S'QUERY_STRING'
p3331
asbag64
(g85
g66
NtRp3332
(dp3333
g69
(dp3334
g96
g97
ssg78
g3323
sg71
(lp3335
S':'
asbag64
(g85
g66
NtRp3336
(dp3337
g69
(dp3338
sg78
g3323
sg71
(lp3339
g64
(g65
g66
NtRp3340
(dp3341
g69
(dp3342
g77
I3
ssg78
g3336
sg71
(lp3343
g1760
asbasbasbag64
(g80
g66
NtRp3344
(dp3345
g69
(dp3346
sg78
g3109
sg71
(lp3347
g64
(g85
g66
NtRp3348
(dp3349
g69
(dp3350
g89
g90
ssg78
g3344
sg71
(lp3351
S'REMOTE_ADDR'
p3352
asbag64
(g85
g66
NtRp3353
(dp3354
g69
(dp3355
g96
g97
ssg78
g3344
sg71
(lp3356
S':'
asbag64
(g85
g66
NtRp3357
(dp3358
g69
(dp3359
sg78
g3344
sg71
(lp3360
g64
(g65
g66
NtRp3361
(dp3362
g69
(dp3363
g77
I3
ssg78
g3357
sg71
(lp3364
g219
asbasbasbag64
(g80
g66
NtRp3365
(dp3366
g69
(dp3367
sg78
g3109
sg71
(lp3368
g64
(g85
g66
NtRp3369
(dp3370
g69
(dp3371
g89
g90
ssg78
g3365
sg71
(lp3372
S'REMOTE_PORT'
p3373
asbag64
(g85
g66
NtRp3374
(dp3375
g69
(dp3376
g96
g97
ssg78
g3365
sg71
(lp3377
S':'
asbag64
(g85
g66
NtRp3378
(dp3379
g69
(dp3380
sg78
g3365
sg71
(lp3381
g64
(g65
g66
NtRp3382
(dp3383
g69
(dp3384
g77
I3
ssg78
g3378
sg71
(lp3385
g1803
asbasbasbag64
(g80
g66
NtRp3386
(dp3387
g69
(dp3388
sg78
g3109
sg71
(lp3389
g64
(g85
g66
NtRp3390
(dp3391
g69
(dp3392
g89
g90
ssg78
g3386
sg71
(lp3393
S'REQUEST_METHOD'
p3394
asbag64
(g85
g66
NtRp3395
(dp3396
g69
(dp3397
g96
g97
ssg78
g3386
sg71
(lp3398
S':'
asbag64
(g85
g66
NtRp3399
(dp3400
g69
(dp3401
sg78
g3386
sg71
(lp3402
g64
(g65
g66
NtRp3403
(dp3404
g69
(dp3405
g77
I3
ssg78
g3399
sg71
(lp3406
g1825
asbasbasbag64
(g80
g66
NtRp3407
(dp3408
g69
(dp3409
sg78
g3109
sg71
(lp3410
g64
(g85
g66
NtRp3411
(dp3412
g69
(dp3413
g89
g90
ssg78
g3407
sg71
(lp3414
S'REQUEST_URI'
p3415
asbag64
(g85
g66
NtRp3416
(dp3417
g69
(dp3418
g96
g97
ssg78
g3407
sg71
(lp3419
S':'
asbag64
(g85
g66
NtRp3420
(dp3421
g69
(dp3422
sg78
g3407
sg71
(lp3423
g64
(g65
g66
NtRp3424
(dp3425
g69
(dp3426
g77
I3
ssg78
g3420
sg71
(lp3427
g1847
asbasbasbag64
(g80
g66
NtRp3428
(dp3429
g69
(dp3430
sg78
g3109
sg71
(lp3431
g64
(g85
g66
NtRp3432
(dp3433
g69
(dp3434
g89
g90
ssg78
g3428
sg71
(lp3435
S'SCRIPT_NAME'
p3436
asbag64
(g85
g66
NtRp3437
(dp3438
g69
(dp3439
g96
g97
ssg78
g3428
sg71
(lp3440
S':'
asbag64
(g85
g66
NtRp3441
(dp3442
g69
(dp3443
sg78
g3428
sg71
(lp3444
g64
(g65
g66
NtRp3445
(dp3446
g69
(dp3447
g77
I3
ssg78
g3441
sg71
(lp3448
S''
asbasbasbag64
(g80
g66
NtRp3449
(dp3450
g69
(dp3451
sg78
g3109
sg71
(lp3452
g64
(g85
g66
NtRp3453
(dp3454
g69
(dp3455
g89
g90
ssg78
g3449
sg71
(lp3456
S'SERVER_NAME'
p3457
asbag64
(g85
g66
NtRp3458
(dp3459
g69
(dp3460
g96
g97
ssg78
g3449
sg71
(lp3461
S':'
asbag64
(g85
g66
NtRp3462
(dp3463
g69
(dp3464
sg78
g3449
sg71
(lp3465
g64
(g65
g66
NtRp3466
(dp3467
g69
(dp3468
g77
I3
ssg78
g3462
sg71
(lp3469
g1703
asbasbasbag64
(g80
g66
NtRp3470
(dp3471
g69
(dp3472
sg78
g3109
sg71
(lp3473
g64
(g85
g66
NtRp3474
(dp3475
g69
(dp3476
g89
g90
ssg78
g3470
sg71
(lp3477
S'SERVER_PORT'
p3478
asbag64
(g85
g66
NtRp3479
(dp3480
g69
(dp3481
g96
g97
ssg78
g3470
sg71
(lp3482
S':'
asbag64
(g85
g66
NtRp3483
(dp3484
g69
(dp3485
sg78
g3470
sg71
(lp3486
g64
(g65
g66
NtRp3487
(dp3488
g69
(dp3489
g77
I3
ssg78
g3483
sg71
(lp3490
g1911
asbasbasbag64
(g80
g66
NtRp3491
(dp3492
g69
(dp3493
sg78
g3109
sg71
(lp3494
g64
(g85
g66
NtRp3495
(dp3496
g69
(dp3497
g89
g90
ssg78
g3491
sg71
(lp3498
S'SERVER_PROTOCOL'
p3499
asbag64
(g85
g66
NtRp3500
(dp3501
g69
(dp3502
g96
g97
ssg78
g3491
sg71
(lp3503
S':'
asbag64
(g85
g66
NtRp3504
(dp3505
g69
(dp3506
sg78
g3491
sg71
(lp3507
g64
(g65
g66
NtRp3508
(dp3509
g69
(dp3510
g77
I3
ssg78
g3504
sg71
(lp3511
g1933
asbasbasbag64
(g80
g66
NtRp3512
(dp3513
g69
(dp3514
sg78
g3109
sg71
(lp3515
g64
(g85
g66
NtRp3516
(dp3517
g69
(dp3518
g89
g90
ssg78
g3512
sg71
(lp3519
S'SERVER_SOFTWARE'
p3520
asbag64
(g85
g66
NtRp3521
(dp3522
g69
(dp3523
g96
g97
ssg78
g3512
sg71
(lp3524
S':'
asbag64
(g85
g66
NtRp3525
(dp3526
g69
(dp3527
sg78
g3512
sg71
(lp3528
g64
(g65
g66
NtRp3529
(dp3530
g69
(dp3531
g77
I3
ssg78
g3525
sg71
(lp3532
g1955
asbasbasbag64
(g80
g66
NtRp3533
(dp3534
g69
(dp3535
sg78
g3109
sg71
(lp3536
g64
(g85
g66
NtRp3537
(dp3538
g69
(dp3539
g89
g90
ssg78
g3533
sg71
(lp3540
S'wsgi.errors'
p3541
asbag64
(g85
g66
NtRp3542
(dp3543
g69
(dp3544
g96
g97
ssg78
g3533
sg71
(lp3545
S':'
asbag64
(g85
g66
NtRp3546
(dp3547
g69
(dp3548
sg78
g3533
sg71
(lp3549
g64
(g65
g66
NtRp3550
(dp3551
g69
(dp3552
g77
I3
ssg78
g3546
sg71
(lp3553
S"<open file '<stderr>', mode 'w' at 0x10628b270>"
p3554
asbasbasbag64
(g80
g66
NtRp3555
(dp3556
g69
(dp3557
sg78
g3109
sg71
(lp3558
g64
(g85
g66
NtRp3559
(dp3560
g69
(dp3561
g89
g90
ssg78
g3555
sg71
(lp3562
S'wsgi.file_wrapper'
p3563
asbag64
(g85
g66
NtRp3564
(dp3565
g69
(dp3566
g96
g97
ssg78
g3555
sg71
(lp3567
S':'
asbag64
(g85
g66
NtRp3568
(dp3569
g69
(dp3570
sg78
g3555
sg71
(lp3571
g64
(g65
g66
NtRp3572
(dp3573
g69
(dp3574
g77
I3
ssg78
g3568
sg71
(lp3575
S'<class wsgiref.util.FileWrapper at 0x106ffd9a8>'
p3576
asbasbasbag64
(g80
g66
NtRp3577
(dp3578
g69
(dp3579
sg78
g3109
sg71
(lp3580
g64
(g85
g66
NtRp3581
(dp3582
g69
(dp3583
g89
g90
ssg78
g3577
sg71
(lp3584
S'wsgi.input'
p3585
asbag64
(g85
g66
NtRp3586
(dp3587
g69
(dp3588
g96
g97
ssg78
g3577
sg71
(lp3589
S':'
asbag64
(g85
g66
NtRp3590
(dp3591
g69
(dp3592
sg78
g3577
sg71
(lp3593
g64
(g65
g66
NtRp3594
(dp3595
g69
(dp3596
g77
I3
ssg78
g3590
sg71
(lp3597
S'<cStringIO.StringO object at 0x107068730>'
p3598
asbasbasbag64
(g80
g66
NtRp3599
(dp3600
g69
(dp3601
sg78
g3109
sg71
(lp3602
g64
(g85
g66
NtRp3603
(dp3604
g69
(dp3605
g89
g90
ssg78
g3599
sg71
(lp3606
S'wsgi.multiprocess'
p3607
asbag64
(g85
g66
NtRp3608
(dp3609
g69
(dp3610
g96
g97
ssg78
g3599
sg71
(lp3611
S':'
asbag64
(g85
g66
NtRp3612
(dp3613
g69
(dp3614
sg78
g3599
sg71
(lp3615
g64
(g65
g66
NtRp3616
(dp3617
g69
(dp3618
g77
I3
ssg78
g3612
sg71
(lp3619
g1364
asbasbasbag64
(g80
g66
NtRp3620
(dp3621
g69
(dp3622
sg78
g3109
sg71
(lp3623
g64
(g85
g66
NtRp3624
(dp3625
g69
(dp3626
g89
g90
ssg78
g3620
sg71
(lp3627
S'wsgi.multithread'
p3628
asbag64
(g85
g66
NtRp3629
(dp3630
g69
(dp3631
g96
g97
ssg78
g3620
sg71
(lp3632
S':'
asbag64
(g85
g66
NtRp3633
(dp3634
g69
(dp3635
sg78
g3620
sg71
(lp3636
g64
(g65
g66
NtRp3637
(dp3638
g69
(dp3639
g77
I3
ssg78
g3633
sg71
(lp3640
g107
asbasbasbag64
(g80
g66
NtRp3641
(dp3642
g69
(dp3643
sg78
g3109
sg71
(lp3644
g64
(g85
g66
NtRp3645
(dp3646
g69
(dp3647
g89
g90
ssg78
g3641
sg71
(lp3648
S'wsgi.run_once'
p3649
asbag64
(g85
g66
NtRp3650
(dp3651
g69
(dp3652
g96
g97
ssg78
g3641
sg71
(lp3653
S':'
asbag64
(g85
g66
NtRp3654
(dp3655
g69
(dp3656
sg78
g3641
sg71
(lp3657
g64
(g65
g66
NtRp3658
(dp3659
g69
(dp3660
g77
I3
ssg78
g3654
sg71
(lp3661
g1364
asbasbasbag64
(g80
g66
NtRp3662
(dp3663
g69
(dp3664
sg78
g3109
sg71
(lp3665
g64
(g85
g66
NtRp3666
(dp3667
g69
(dp3668
g89
g90
ssg78
g3662
sg71
(lp3669
S'wsgi.url_scheme'
p3670
asbag64
(g85
g66
NtRp3671
(dp3672
g69
(dp3673
g96
g97
ssg78
g3662
sg71
(lp3674
S':'
asbag64
(g85
g66
NtRp3675
(dp3676
g69
(dp3677
sg78
g3662
sg71
(lp3678
g64
(g65
g66
NtRp3679
(dp3680
g69
(dp3681
g77
I3
ssg78
g3675
sg71
(lp3682
g2214
asbasbasbag64
(g80
g66
NtRp3683
(dp3684
g69
(dp3685
sg78
g3109
sg71
(lp3686
g64
(g85
g66
NtRp3687
(dp3688
g69
(dp3689
g89
g90
ssg78
g3683
sg71
(lp3690
S'wsgi.version'
p3691
asbag64
(g85
g66
NtRp3692
(dp3693
g69
(dp3694
g96
g97
ssg78
g3683
sg71
(lp3695
S':'
asbag64
(g85
g66
NtRp3696
(dp3697
g69
(dp3698
sg78
g3683
sg71
(lp3699
g64
(g65
g66
NtRp3700
(dp3701
g69
(dp3702
g77
I3
ssg78
g3696
sg71
(lp3703
S'1'
asbasbasbasbasbasbasbasbasbasbasbasbasbsS'frames'
p3704
(lp3705
(dp3706
S'file'
p3707
S'/Users/victorgirotto/Desktop/web2py-master/gluon/restricted.py'
p3708
sS'dump'
p3709
(dp3710
S'environment'
p3711
S"{'A': <class 'gluon.html.A'>, 'Auth': <class 'gluon.tools.Auth'>, 'B': <class 'gluon.html.B'>, 'BEAUTIFY': <class 'gluon.html.BEAUTIFY'>, 'BODY': <class 'gluon.html.BODY'>, 'BR': <class 'gluon.html.BR'>, 'BUTTON': <class 'gluon.html.BUTTON'>, 'CAT': <class 'gluon.html.CAT'>, 'CENTER': <class 'gluon.html.CENTER'>, 'CLEANUP': <class 'gluon.validators.CLEANUP'>, ...}"
p3712
sS'ccode'
p3713
S'<code object <module> at 0x108b862b0, file "/Use...s/CartesianPlane/controllers/default.py", line 1>'
p3714
ssS'lnum'
p3715
I212
sS'lines'
p3716
(dp3717
I207
S'    try:'
p3718
sI208
S'        if isinstance(code, types.CodeType):'
p3719
sI209
S'            ccode = code'
p3720
sI210
S'        else:'
p3721
sI211
S'            ccode = compile2(code, layer)'
p3722
sI212
S'        exec ccode in environment'
p3723
sI213
S'    except HTTP:'
p3724
sI214
S'        raise'
p3725
sI215
S'    except RestrictedError:'
p3726
sI216
S'        # do not encapsulate (obfuscate) the original RestrictedError'
p3727
ssS'call'
p3728
S"(code='import os\\nimport socket\\nfrom xmlrpclib import Se...ata\\nresponse._vars=response._caller(loadOptions)\\n', environment={'A': <class 'gluon.html.A'>, 'Auth': <class 'gluon.tools.Auth'>, 'B': <class 'gluon.html.B'>, 'BEAUTIFY': <class 'gluon.html.BEAUTIFY'>, 'BODY': <class 'gluon.html.BODY'>, 'BR': <class 'gluon.html.BR'>, 'BUTTON': <class 'gluon.html.BUTTON'>, 'CAT': <class 'gluon.html.CAT'>, 'CENTER': <class 'gluon.html.CENTER'>, 'CLEANUP': <class 'gluon.validators.CLEANUP'>, ...}, layer='/Users/victorgirotto/Desktop/web2py-master/applications/CartesianPlane/controllers/default.py')"
p3729
sS'func'
p3730
S'restricted'
p3731
sa(dp3732
g3707
S'/Users/victorgirotto/Desktop/web2py-master/applications/CartesianPlane/controllers/default.py'
p3733
sg3709
(dp3734
sg3715
I64
sg3716
(dp3735
I54
S'@service.xmlrpc'
p3736
sI55
S'def executeEvent(data):'
p3737
sI56
S"    db.menuOptions2.update_or_insert(db.menuOptions2.name=='test', name='test', value=data)"
p3738
sI57
S"    websocket_send('http://' + __current_ip + ':' + __socket_port, data, 'mykey', __socket_group_name)"
p3739
sI58
S'    return data'
p3740
sI59
S''
sI60
S'@service.xmlrpc'
p3741
sI61
S'def executeSteps(data):'
p3742
sI62
S"    websocket_send('http://' + __current_ip + ':' + __socket_port, data, 'mykey', __socket_group_name)"
p3743
sI63
S'    return data'
p3744
ssg3728
S'()'
p3745
sg3730
S'<module>'
p3746
sa(dp3747
g3707
S'/Users/victorgirotto/Desktop/web2py-master/gluon/globals.py'
p3748
sg3709
(dp3749
S'self'
p3750
S'undefined'
p3751
sS'f'
S'<function loadOptions>'
p3752
ssg3715
I190
sg3716
(dp3753
I192
S'        self._custom_commit = None'
p3754
sI193
S'        self._custom_rollback = None'
p3755
sI194
S''
sI185
S'        self.menu = []             # used by the default view layout'
p3756
sI186
S'        self.files = []            # used by web2py_ajax.html'
p3757
sI187
S'        self.generic_patterns = []  # patterns to allow generic views'
p3758
sI188
S"        self.delimiters = ('{{', '}}')"
p3759
sI189
S'        self._vars = None'
p3760
sI190
S'        self._caller = lambda f: f()'
p3761
sI191
S'        self._view_environment = None'
p3762
ssg3728
S'(f=<function loadOptions>)'
p3763
sg3730
S'<lambda>'
p3764
sa(dp3765
g3707
S'/Users/victorgirotto/Desktop/web2py-master/applications/CartesianPlane/controllers/default.py'
p3766
sg3709
(dp3767
S'server.loadOptions'
p3768
S'<_Method instance>'
p3769
sS'global request'
p3770
S"<Storage {'function': 'loadOptions', 'body': <cS...ons/CartesianPlane/', 'post_vars': <Storage {}>}>"
p3771
sS'global server'
p3772
S'<ServerProxy for 127.0.0.1:8000/GeogebraInterface/default/call/xmlrpc>'
p3773
sS'global response'
p3774
S"<Storage {'body': <cStringIO.StringO object at 0...x10effa668>, 'view': 'default/loadOptions.html'}>"
p3775
sS'response.json'
p3776
S"<bound method Response.json of <Storage {'body':...10effa668>, 'view': 'default/loadOptions.html'}>>"
p3777
sS'request.vars'
p3778
S"<Storage {'trigger': 'point', 'pointName': 'P1'}>"
p3779
ssg3715
I31
sg3716
(dp3780
I32
S'    ##return(response.json(request.vars))'
p3781
sI33
S''
sI34
S'    ##'
p3782
sI35
S'    ##return server.loadOptions(request.vars)'
p3783
sI26
S'def applet():'
p3784
sI27
S'    return dict(applet=XML(open(filename).read()), ip=__current_ip, port=__socket_port, group_name=__socket_group_name)'
p3785
sI28
S''
sI29
S''
sI30
S'def loadOptions():'
p3786
sI31
S'    return server.loadOptions(response.json(request.vars))'
p3787
ssg3728
S'()'
p3788
sg3730
S'loadOptions'
p3789
sa(dp3790
g3707
S'/System/Library/Frameworks/Python.framework/Versions/2.7/lib/python2.7/xmlrpclib.py'
p3791
sg3709
(dp3792
sg3715
I1224
sg3716
(dp3793
sg3728
S'(self=<_Method instance>, *args=(\'{"trigger": "point", "pointName": "P1"}\',))'
p3794
sg3730
S'__call__'
p3795
sa(dp3796
g3707
S'/System/Library/Frameworks/Python.framework/Versions/2.7/lib/python2.7/xmlrpclib.py'
p3797
sg3709
(dp3798
sg3715
I1575
sg3716
(dp3799
sg3728
S'(self=<ServerProxy for 127.0.0.1:8000/GeogebraInterface/default/call/xmlrpc>, methodname=\'loadOptions\', params=(\'{"trigger": "point", "pointName": "P1"}\',))'
p3800
sg3730
S'__request'
p3801
sa(dp3802
g3707
S'/System/Library/Frameworks/Python.framework/Versions/2.7/lib/python2.7/xmlrpclib.py'
p3803
sg3709
(dp3804
sg3715
I1264
sg3716
(dp3805
sg3728
S'(self=<xmlrpclib.Transport instance>, host=\'127.0.0.1:8000\', handler=\'/GeogebraInterface/default/call/xmlrpc\', request_body="<?xml version=\'1.0\'?>\\n<methodCall>\\n<methodName>l...string></value>\\n</param>\\n</params>\\n</methodCall>\\n", verbose=0)'
p3806
sg3730
g63
sa(dp3807
g3707
S'/System/Library/Frameworks/Python.framework/Versions/2.7/lib/python2.7/xmlrpclib.py'
p3808
sg3709
(dp3809
sg3715
I1297
sg3716
(dp3810
sg3728
S'(self=<xmlrpclib.Transport instance>, host=\'127.0.0.1:8000\', handler=\'/GeogebraInterface/default/call/xmlrpc\', request_body="<?xml version=\'1.0\'?>\\n<methodCall>\\n<methodName>l...string></value>\\n</param>\\n</params>\\n</methodCall>\\n", verbose=0)'
p3811
sg3730
S'single_request'
p3812
sa(dp3813
g3707
S'/System/Library/Frameworks/Python.framework/Versions/2.7/lib/python2.7/xmlrpclib.py'
p3814
sg3709
(dp3815
sg3715
I1473
sg3716
(dp3816
sg3728
S'(self=<xmlrpclib.Transport instance>, response=<httplib.HTTPResponse instance>)'
p3817
sg3730
S'parse_response'
p3818
sa(dp3819
g3707
S'/System/Library/Frameworks/Python.framework/Versions/2.7/lib/python2.7/xmlrpclib.py'
p3820
sg3709
(dp3821
sg3715
I793
sg3716
(dp3822
sg3728
S'(self=<xmlrpclib.Unmarshaller instance>)'
p3823
sg3730
S'close'
p3824
sasS'pyver'
p3825
S'Python 2.7.2: /usr/bin/python'
p3826
sS'session'
p3827
g64
(g65
g66
NtRp3828
(dp3829
g69
(dp3830
sg71
(lp3831
g64
(g73
g66
NtRp3832
(dp3833
g69
(dp3834
g77
I5
ssg78
Nsg71
(lp3835
sbasbsS'etype'
p3836
S"<class 'xmlrpclib.Fault'>"
p3837
sS'date'
p3838
S'Thu Jan 24 17:10:56 2013'
p3839
sS'response'
p3840
g64
(g65
g66
NtRp3841
(dp3842
g69
(dp3843
sg71
(lp3844
g64
(g73
g66
NtRp3845
(dp3846
g69
(dp3847
g77
I5
ssg78
Nsg71
(lp3848
g64
(g80
g66
NtRp3849
(dp3850
g69
(dp3851
sg78
g3845
sg71
(lp3852
g64
(g85
g66
NtRp3853
(dp3854
g69
(dp3855
g89
g90
ssg78
g3849
sg71
(lp3856
g162
asbag64
(g85
g66
NtRp3857
(dp3858
g69
(dp3859
g96
g97
ssg78
g3849
sg71
(lp3860
S':'
asbag64
(g85
g66
NtRp3861
(dp3862
g69
(dp3863
sg78
g3849
sg71
(lp3864
g64
(g65
g66
NtRp3865
(dp3866
g69
(dp3867
g77
I5
ssg78
g3861
sg71
(lp3868
S'<cStringIO.StringO object at 0x108cbbbc8>'
p3869
asbasbasbag64
(g80
g66
NtRp3870
(dp3871
g69
(dp3872
sg78
g3845
sg71
(lp3873
g64
(g85
g66
NtRp3874
(dp3875
g69
(dp3876
g89
g90
ssg78
g3870
sg71
(lp3877
g250
asbag64
(g85
g66
NtRp3878
(dp3879
g69
(dp3880
g96
g97
ssg78
g3870
sg71
(lp3881
S':'
asbag64
(g85
g66
NtRp3882
(dp3883
g69
(dp3884
sg78
g3870
sg71
(lp3885
g64
(g65
g66
NtRp3886
(dp3887
g69
(dp3888
g77
I5
ssg78
g3882
sg71
(lp3889
g64
(g73
g66
NtRp3890
(dp3891
g69
(dp3892
g77
I4
ssg78
Nsg71
(lp3893
g64
(g80
g66
NtRp3894
(dp3895
g69
(dp3896
sg78
g3890
sg71
(lp3897
g64
(g85
g66
NtRp3898
(dp3899
g69
(dp3900
g89
g90
ssg78
g3894
sg71
(lp3901
S'session_id_cartesianplane'
p3902
asbag64
(g85
g66
NtRp3903
(dp3904
g69
(dp3905
g96
g97
ssg78
g3894
sg71
(lp3906
S':'
asbag64
(g85
g66
NtRp3907
(dp3908
g69
(dp3909
sg78
g3894
sg71
(lp3910
g64
(g65
g66
NtRp3911
(dp3912
g69
(dp3913
g77
I4
ssg78
g3907
sg71
(lp3914
S'127.0.0.1-9e482544-d6d7-4c04-ba0d-99a96c0a1e79'
p3915
ag64
(g73
g66
NtRp3916
(dp3917
g69
(dp3918
g77
I3
ssg78
Nsg71
(lp3919
g64
(g80
g66
NtRp3920
(dp3921
g69
(dp3922
sg78
g3916
sg71
(lp3923
g64
(g85
g66
NtRp3924
(dp3925
g69
(dp3926
g89
g90
ssg78
g3920
sg71
(lp3927
g301
asbag64
(g85
g66
NtRp3928
(dp3929
g69
(dp3930
g96
g97
ssg78
g3920
sg71
(lp3931
S':'
asbag64
(g85
g66
NtRp3932
(dp3933
g69
(dp3934
sg78
g3920
sg71
(lp3935
g64
(g65
g66
NtRp3936
(dp3937
g69
(dp3938
g77
I3
ssg78
g3932
sg71
(lp3939
S''
asbasbasbag64
(g80
g66
NtRp3940
(dp3941
g69
(dp3942
sg78
g3916
sg71
(lp3943
g64
(g85
g66
NtRp3944
(dp3945
g69
(dp3946
g89
g90
ssg78
g3940
sg71
(lp3947
g322
asbag64
(g85
g66
NtRp3948
(dp3949
g69
(dp3950
g96
g97
ssg78
g3940
sg71
(lp3951
S':'
asbag64
(g85
g66
NtRp3952
(dp3953
g69
(dp3954
sg78
g3940
sg71
(lp3955
g64
(g65
g66
NtRp3956
(dp3957
g69
(dp3958
g77
I3
ssg78
g3952
sg71
(lp3959
S''
asbasbasbag64
(g80
g66
NtRp3960
(dp3961
g69
(dp3962
sg78
g3916
sg71
(lp3963
g64
(g85
g66
NtRp3964
(dp3965
g69
(dp3966
g89
g90
ssg78
g3960
sg71
(lp3967
g343
asbag64
(g85
g66
NtRp3968
(dp3969
g69
(dp3970
g96
g97
ssg78
g3960
sg71
(lp3971
S':'
asbag64
(g85
g66
NtRp3972
(dp3973
g69
(dp3974
sg78
g3960
sg71
(lp3975
g64
(g65
g66
NtRp3976
(dp3977
g69
(dp3978
g77
I3
ssg78
g3972
sg71
(lp3979
S''
asbasbasbag64
(g80
g66
NtRp3980
(dp3981
g69
(dp3982
sg78
g3916
sg71
(lp3983
g64
(g85
g66
NtRp3984
(dp3985
g69
(dp3986
g89
g90
ssg78
g3980
sg71
(lp3987
g364
asbag64
(g85
g66
NtRp3988
(dp3989
g69
(dp3990
g96
g97
ssg78
g3980
sg71
(lp3991
S':'
asbag64
(g85
g66
NtRp3992
(dp3993
g69
(dp3994
sg78
g3980
sg71
(lp3995
g64
(g65
g66
NtRp3996
(dp3997
g69
(dp3998
g77
I3
ssg78
g3992
sg71
(lp3999
S''
asbasbasbag64
(g80
g66
NtRp4000
(dp4001
g69
(dp4002
sg78
g3916
sg71
(lp4003
g64
(g85
g66
NtRp4004
(dp4005
g69
(dp4006
g89
g90
ssg78
g4000
sg71
(lp4007
g385
asbag64
(g85
g66
NtRp4008
(dp4009
g69
(dp4010
g96
g97
ssg78
g4000
sg71
(lp4011
S':'
asbag64
(g85
g66
NtRp4012
(dp4013
g69
(dp4014
sg78
g4000
sg71
(lp4015
g64
(g65
g66
NtRp4016
(dp4017
g69
(dp4018
g77
I3
ssg78
g4012
sg71
(lp4019
S''
asbasbasbag64
(g80
g66
NtRp4020
(dp4021
g69
(dp4022
sg78
g3916
sg71
(lp4023
g64
(g85
g66
NtRp4024
(dp4025
g69
(dp4026
g89
g90
ssg78
g4020
sg71
(lp4027
g406
asbag64
(g85
g66
NtRp4028
(dp4029
g69
(dp4030
g96
g97
ssg78
g4020
sg71
(lp4031
S':'
asbag64
(g85
g66
NtRp4032
(dp4033
g69
(dp4034
sg78
g4020
sg71
(lp4035
g64
(g65
g66
NtRp4036
(dp4037
g69
(dp4038
g77
I3
ssg78
g4032
sg71
(lp4039
S'/'
asbasbasbag64
(g80
g66
NtRp4040
(dp4041
g69
(dp4042
sg78
g3916
sg71
(lp4043
g64
(g85
g66
NtRp4044
(dp4045
g69
(dp4046
g89
g90
ssg78
g4040
sg71
(lp4047
g427
asbag64
(g85
g66
NtRp4048
(dp4049
g69
(dp4050
g96
g97
ssg78
g4040
sg71
(lp4051
S':'
asbag64
(g85
g66
NtRp4052
(dp4053
g69
(dp4054
sg78
g4040
sg71
(lp4055
g64
(g65
g66
NtRp4056
(dp4057
g69
(dp4058
g77
I3
ssg78
g4052
sg71
(lp4059
S''
asbasbasbag64
(g80
g66
NtRp4060
(dp4061
g69
(dp4062
sg78
g3916
sg71
(lp4063
g64
(g85
g66
NtRp4064
(dp4065
g69
(dp4066
g89
g90
ssg78
g4060
sg71
(lp4067
g448
asbag64
(g85
g66
NtRp4068
(dp4069
g69
(dp4070
g96
g97
ssg78
g4060
sg71
(lp4071
S':'
asbag64
(g85
g66
NtRp4072
(dp4073
g69
(dp4074
sg78
g4060
sg71
(lp4075
g64
(g65
g66
NtRp4076
(dp4077
g69
(dp4078
g77
I3
ssg78
g4072
sg71
(lp4079
S''
asbasbasbasbasbasbasbasbasbasbasbag64
(g80
g66
NtRp4080
(dp4081
g69
(dp4082
sg78
g3845
sg71
(lp4083
g64
(g85
g66
NtRp4084
(dp4085
g69
(dp4086
g89
g90
ssg78
g4080
sg71
(lp4087
S'delimiters'
p4088
asbag64
(g85
g66
NtRp4089
(dp4090
g69
(dp4091
g96
g97
ssg78
g4080
sg71
(lp4092
S':'
asbag64
(g85
g66
NtRp4093
(dp4094
g69
(dp4095
sg78
g4080
sg71
(lp4096
g64
(g65
g66
NtRp4097
(dp4098
g69
(dp4099
g77
I5
ssg78
g4093
sg71
(lp4100
g64
(g73
g66
NtRp4101
(dp4102
g69
(dp4103
g77
I4
ssg78
Nsg71
(lp4104
g64
(g80
g66
NtRp4105
(dp4106
g69
(dp4107
sg78
g4101
sg71
(lp4108
g64
(g85
g66
NtRp4109
(dp4110
g69
(dp4111
sg78
g4105
sg71
(lp4112
g64
(g65
g66
NtRp4113
(dp4114
g69
(dp4115
g77
I4
ssg78
g4109
sg71
(lp4116
S'{{'
p4117
asbasbasbag64
(g80
g66
NtRp4118
(dp4119
g69
(dp4120
sg78
g4101
sg71
(lp4121
g64
(g85
g66
NtRp4122
(dp4123
g69
(dp4124
sg78
g4118
sg71
(lp4125
g64
(g65
g66
NtRp4126
(dp4127
g69
(dp4128
g77
I4
ssg78
g4122
sg71
(lp4129
S'}}'
p4130
asbasbasbasbasbasbasbag64
(g80
g66
NtRp4131
(dp4132
g69
(dp4133
sg78
g3845
sg71
(lp4134
g64
(g85
g66
NtRp4135
(dp4136
g69
(dp4137
g89
g90
ssg78
g4131
sg71
(lp4138
S'files'
p4139
asbag64
(g85
g66
NtRp4140
(dp4141
g69
(dp4142
g96
g97
ssg78
g4131
sg71
(lp4143
S':'
asbag64
(g85
g66
NtRp4144
(dp4145
g69
(dp4146
sg78
g4131
sg71
(lp4147
g64
(g65
g66
NtRp4148
(dp4149
g69
(dp4150
g77
I5
ssg78
g4144
sg71
(lp4151
g64
(g73
g66
NtRp4152
(dp4153
g69
(dp4154
g77
I4
ssg78
Nsg71
(lp4155
sbasbasbasbag64
(g80
g66
NtRp4156
(dp4157
g69
(dp4158
sg78
g3845
sg71
(lp4159
g64
(g85
g66
NtRp4160
(dp4161
g69
(dp4162
g89
g90
ssg78
g4156
sg71
(lp4163
S'flash'
p4164
asbag64
(g85
g66
NtRp4165
(dp4166
g69
(dp4167
g96
g97
ssg78
g4156
sg71
(lp4168
S':'
asbag64
(g85
g66
NtRp4169
(dp4170
g69
(dp4171
sg78
g4156
sg71
(lp4172
g64
(g65
g66
NtRp4173
(dp4174
g69
(dp4175
g77
I5
ssg78
g4169
sg71
(lp4176
S''
asbasbasbag64
(g80
g66
NtRp4177
(dp4178
g69
(dp4179
sg78
g3845
sg71
(lp4180
g64
(g85
g66
NtRp4181
(dp4182
g69
(dp4183
g89
g90
ssg78
g4177
sg71
(lp4184
S'generic_patterns'
p4185
asbag64
(g85
g66
NtRp4186
(dp4187
g69
(dp4188
g96
g97
ssg78
g4177
sg71
(lp4189
S':'
asbag64
(g85
g66
NtRp4190
(dp4191
g69
(dp4192
sg78
g4177
sg71
(lp4193
g64
(g65
g66
NtRp4194
(dp4195
g69
(dp4196
g77
I5
ssg78
g4190
sg71
(lp4197
g64
(g73
g66
NtRp4198
(dp4199
g69
(dp4200
g77
I4
ssg78
Nsg71
(lp4201
g64
(g80
g66
NtRp4202
(dp4203
g69
(dp4204
sg78
g4198
sg71
(lp4205
g64
(g85
g66
NtRp4206
(dp4207
g69
(dp4208
sg78
g4202
sg71
(lp4209
g64
(g65
g66
NtRp4210
(dp4211
g69
(dp4212
g77
I4
ssg78
g4206
sg71
(lp4213
S'*'
asbasbasbasbasbasbasbag64
(g80
g66
NtRp4214
(dp4215
g69
(dp4216
sg78
g3845
sg71
(lp4217
g64
(g85
g66
NtRp4218
(dp4219
g69
(dp4220
g89
g90
ssg78
g4214
sg71
(lp4221
S'google_analytics_id'
p4222
asbag64
(g85
g66
NtRp4223
(dp4224
g69
(dp4225
g96
g97
ssg78
g4214
sg71
(lp4226
S':'
asbag64
(g85
g66
NtRp4227
(dp4228
g69
(dp4229
sg78
g4214
sg71
(lp4230
g64
(g65
g66
NtRp4231
(dp4232
g69
(dp4233
g77
I5
ssg78
g4227
sg71
(lp4234
S'None'
p4235
asbasbasbag64
(g80
g66
NtRp4236
(dp4237
g69
(dp4238
sg78
g3845
sg71
(lp4239
g64
(g85
g66
NtRp4240
(dp4241
g69
(dp4242
g89
g90
ssg78
g4236
sg71
(lp4243
S'headers'
p4244
asbag64
(g85
g66
NtRp4245
(dp4246
g69
(dp4247
g96
g97
ssg78
g4236
sg71
(lp4248
S':'
asbag64
(g85
g66
NtRp4249
(dp4250
g69
(dp4251
sg78
g4236
sg71
(lp4252
g64
(g65
g66
NtRp4253
(dp4254
g69
(dp4255
g77
I5
ssg78
g4249
sg71
(lp4256
g64
(g73
g66
NtRp4257
(dp4258
g69
(dp4259
g77
I4
ssg78
Nsg71
(lp4260
g64
(g80
g66
NtRp4261
(dp4262
g69
(dp4263
sg78
g4257
sg71
(lp4264
g64
(g85
g66
NtRp4265
(dp4266
g69
(dp4267
g89
g90
ssg78
g4261
sg71
(lp4268
S'X-Powered-By'
p4269
asbag64
(g85
g66
NtRp4270
(dp4271
g69
(dp4272
g96
g97
ssg78
g4261
sg71
(lp4273
S':'
asbag64
(g85
g66
NtRp4274
(dp4275
g69
(dp4276
sg78
g4261
sg71
(lp4277
g64
(g65
g66
NtRp4278
(dp4279
g69
(dp4280
g77
I4
ssg78
g4274
sg71
(lp4281
S'web2py'
p4282
asbasbasbasbasbasbasbag64
(g80
g66
NtRp4283
(dp4284
g69
(dp4285
sg78
g3845
sg71
(lp4286
g64
(g85
g66
NtRp4287
(dp4288
g69
(dp4289
g89
g90
ssg78
g4283
sg71
(lp4290
S'menu'
p4291
asbag64
(g85
g66
NtRp4292
(dp4293
g69
(dp4294
g96
g97
ssg78
g4283
sg71
(lp4295
S':'
asbag64
(g85
g66
NtRp4296
(dp4297
g69
(dp4298
sg78
g4283
sg71
(lp4299
g64
(g65
g66
NtRp4300
(dp4301
g69
(dp4302
g77
I5
ssg78
g4296
sg71
(lp4303
g64
(g73
g66
NtRp4304
(dp4305
g69
(dp4306
g77
I4
ssg78
Nsg71
(lp4307
g64
(g80
g66
NtRp4308
(dp4309
g69
(dp4310
sg78
g4304
sg71
(lp4311
g64
(g85
g66
NtRp4312
(dp4313
g69
(dp4314
sg78
g4308
sg71
(lp4315
g64
(g65
g66
NtRp4316
(dp4317
g69
(dp4318
g77
I4
ssg78
g4312
sg71
(lp4319
g64
(g73
g66
NtRp4320
(dp4321
g69
(dp4322
g77
I3
ssg78
Nsg71
(lp4323
g64
(g80
g66
NtRp4324
(dp4325
g69
(dp4326
sg78
g4320
sg71
(lp4327
g64
(g85
g66
NtRp4328
(dp4329
g69
(dp4330
sg78
g4324
sg71
(lp4331
g64
(g65
g66
NtRp4332
(dp4333
g69
(dp4334
g77
I3
ssg78
g4328
sg71
(lp4335
cgluon.languages
lazyT_unpickle
p4336
(S's\x04\x00\x00\x00Home'
tRp4337
asbasbasbag64
(g80
g66
NtRp4338
(dp4339
g69
(dp4340
sg78
g4320
sg71
(lp4341
g64
(g85
g66
NtRp4342
(dp4343
g69
(dp4344
sg78
g4338
sg71
(lp4345
g64
(g65
g66
NtRp4346
(dp4347
g69
(dp4348
g77
I3
ssg78
g4342
sg71
(lp4349
g1364
asbasbasbag64
(g80
g66
NtRp4350
(dp4351
g69
(dp4352
sg78
g4320
sg71
(lp4353
g64
(g85
g66
NtRp4354
(dp4355
g69
(dp4356
sg78
g4350
sg71
(lp4357
g64
(g65
g66
NtRp4358
(dp4359
g69
(dp4360
g77
I3
ssg78
g4354
sg71
(lp4361
S'/CartesianPlane/default/index'
p4362
asbasbasbag64
(g80
g66
NtRp4363
(dp4364
g69
(dp4365
sg78
g4320
sg71
(lp4366
g64
(g85
g66
NtRp4367
(dp4368
g69
(dp4369
sg78
g4363
sg71
(lp4370
g64
(g65
g66
NtRp4371
(dp4372
g69
(dp4373
g77
I3
ssg78
g4367
sg71
(lp4374
g64
(g73
g66
NtRp4375
(dp4376
g69
(dp4377
g77
I2
ssg78
Nsg71
(lp4378
sbasbasbasbasbasbasbasbag64
(g80
g66
NtRp4379
(dp4380
g69
(dp4381
sg78
g4304
sg71
(lp4382
g64
(g85
g66
NtRp4383
(dp4384
g69
(dp4385
sg78
g4379
sg71
(lp4386
g64
(g65
g66
NtRp4387
(dp4388
g69
(dp4389
g77
I4
ssg78
g4383
sg71
(lp4390
g64
(g73
g66
NtRp4391
(dp4392
g69
(dp4393
g77
I3
ssg78
Nsg71
(lp4394
g64
(g80
g66
NtRp4395
(dp4396
g69
(dp4397
sg78
g4391
sg71
(lp4398
g64
(g85
g66
NtRp4399
(dp4400
g69
(dp4401
sg78
g4395
sg71
(lp4402
g64
(g65
g66
NtRp4403
(dp4404
g69
(dp4405
g77
I3
ssg78
g4399
sg71
(lp4406
g64
(cgluon.html
SPAN
p4407
g66
NtRp4408
(dp4409
g69
(dp4410
S'_class'
p4411
S'highlighted'
p4412
ssg78
Nsg71
(lp4413
g4282
asbasbasbasbag64
(g80
g66
NtRp4414
(dp4415
g69
(dp4416
sg78
g4391
sg71
(lp4417
g64
(g85
g66
NtRp4418
(dp4419
g69
(dp4420
sg78
g4414
sg71
(lp4421
g64
(g65
g66
NtRp4422
(dp4423
g69
(dp4424
g77
I3
ssg78
g4418
sg71
(lp4425
g1364
asbasbasbag64
(g80
g66
NtRp4426
(dp4427
g69
(dp4428
sg78
g4391
sg71
(lp4429
g64
(g85
g66
NtRp4430
(dp4431
g69
(dp4432
sg78
g4426
sg71
(lp4433
g64
(g65
g66
NtRp4434
(dp4435
g69
(dp4436
g77
I3
ssg78
g4430
sg71
(lp4437
S'http://web2py.com'
p4438
asbasbasbag64
(g80
g66
NtRp4439
(dp4440
g69
(dp4441
sg78
g4391
sg71
(lp4442
g64
(g85
g66
NtRp4443
(dp4444
g69
(dp4445
sg78
g4439
sg71
(lp4446
g64
(g65
g66
NtRp4447
(dp4448
g69
(dp4449
g77
I3
ssg78
g4443
sg71
(lp4450
g64
(g73
g66
NtRp4451
(dp4452
g69
(dp4453
g77
I2
ssg78
Nsg71
(lp4454
g64
(g80
g66
NtRp4455
(dp4456
g69
(dp4457
sg78
g4451
sg71
(lp4458
g64
(g85
g66
NtRp4459
(dp4460
g69
(dp4461
sg78
g4455
sg71
(lp4462
g64
(g65
g66
NtRp4463
(dp4464
g69
(dp4465
g77
I2
ssg78
g4459
sg71
(lp4466
g64
(g73
g66
NtRp4467
(dp4468
g69
(dp4469
g77
I1
ssg78
Nsg71
(lp4470
g64
(g80
g66
NtRp4471
(dp4472
g69
(dp4473
sg78
g4467
sg71
(lp4474
g64
(g85
g66
NtRp4475
(dp4476
g69
(dp4477
sg78
g4471
sg71
(lp4478
g64
(g65
g66
NtRp4479
(dp4480
g69
(dp4481
g77
I1
ssg78
g4475
sg71
(lp4482
g4336
(S's\x08\x00\x00\x00My Sites'
tRp4483
asbasbasbag64
(g80
g66
NtRp4484
(dp4485
g69
(dp4486
sg78
g4467
sg71
(lp4487
g64
(g85
g66
NtRp4488
(dp4489
g69
(dp4490
sg78
g4484
sg71
(lp4491
g64
(g65
g66
NtRp4492
(dp4493
g69
(dp4494
g77
I1
ssg78
g4488
sg71
(lp4495
I00
asbasbasbag64
(g80
g66
NtRp4496
(dp4497
g69
(dp4498
sg78
g4467
sg71
(lp4499
g64
(g85
g66
NtRp4500
(dp4501
g69
(dp4502
sg78
g4496
sg71
(lp4503
g64
(g65
g66
NtRp4504
(dp4505
g69
(dp4506
g77
I1
ssg78
g4500
sg71
(lp4507
S'/admin/default/site'
p4508
asbasbasbasbasbasbasbag64
(g80
g66
NtRp4509
(dp4510
g69
(dp4511
sg78
g4451
sg71
(lp4512
g64
(g85
g66
NtRp4513
(dp4514
g69
(dp4515
sg78
g4509
sg71
(lp4516
g64
(g65
g66
NtRp4517
(dp4518
g69
(dp4519
g77
I2
ssg78
g4513
sg71
(lp4520
g64
(g73
g66
NtRp4521
(dp4522
g69
(dp4523
g77
I1
ssg78
Nsg71
(lp4524
g64
(g80
g66
NtRp4525
(dp4526
g69
(dp4527
sg78
g4521
sg71
(lp4528
g64
(g85
g66
NtRp4529
(dp4530
g69
(dp4531
sg78
g4525
sg71
(lp4532
g64
(g65
g66
NtRp4533
(dp4534
g69
(dp4535
g77
I1
ssg78
g4529
sg71
(lp4536
g4336
(S's\x08\x00\x00\x00This App'
tRp4537
asbasbasbag64
(g80
g66
NtRp4538
(dp4539
g69
(dp4540
sg78
g4521
sg71
(lp4541
g64
(g85
g66
NtRp4542
(dp4543
g69
(dp4544
sg78
g4538
sg71
(lp4545
g64
(g65
g66
NtRp4546
(dp4547
g69
(dp4548
g77
I1
ssg78
g4542
sg71
(lp4549
I00
asbasbasbag64
(g80
g66
NtRp4550
(dp4551
g69
(dp4552
sg78
g4521
sg71
(lp4553
g64
(g85
g66
NtRp4554
(dp4555
g69
(dp4556
sg78
g4550
sg71
(lp4557
g64
(g65
g66
NtRp4558
(dp4559
g69
(dp4560
g77
I1
ssg78
g4554
sg71
(lp4561
S'/admin/default/design/CartesianPlane'
p4562
asbasbasbag64
(g80
g66
NtRp4563
(dp4564
g69
(dp4565
sg78
g4521
sg71
(lp4566
g64
(g85
g66
NtRp4567
(dp4568
g69
(dp4569
sg78
g4563
sg71
(lp4570
g64
(g65
g66
NtRp4571
(dp4572
g69
(dp4573
g77
I1
ssg78
g4567
sg71
(lp4574
(lp4575
(g4336
(S's\x0b\x00\x00\x00Controlador'
tRp4576
I00
S'/admin/default/edit/CartesianPlane/controllers/default.py'
tp4577
a(g4336
(S's\x0e\x00\x00\x00Visualiza\xc3\xa7\xc3\xa3o'
tRp4578
I00
S'/admin/default/edit/CartesianPlane/views/default/loadOptions.html'
tp4579
a(g4336
(S's\x06\x00\x00\x00Layout'
tRp4580
I00
S'/admin/default/edit/CartesianPlane/views/layout.html'
tp4581
a(g4336
(S's\n\x00\x00\x00Stylesheet'
tRp4582
I00
S'/admin/default/edit/CartesianPlane/static/css/web2py.css'
tp4583
a(g4336
(S's\t\x00\x00\x00Modelo BD'
tRp4584
I00
S'/admin/default/edit/CartesianPlane/models/db.py'
tp4585
a(g4336
(S's\x0e\x00\x00\x00Modelo de Menu'
tRp4586
I00
S'/admin/default/edit/CartesianPlane/models/menu.py'
tp4587
a(g4336
(S's\x0e\x00\x00\x00banco de dados'
tRp4588
I00
S'/CartesianPlane/appadmin/index'
tp4589
a(g4336
(S's\x06\x00\x00\x00Errors'
tRp4590
I00
S'/admin/default/errors/CartesianPlane'
tp4591
a(g4336
(S's\x05\x00\x00\x00About'
tRp4592
I00
S'/admin/default/about/CartesianPlane'
tp4593
aasbasbasbasbasbasbasbag64
(g80
g66
NtRp4594
(dp4595
g69
(dp4596
sg78
g4451
sg71
(lp4597
g64
(g85
g66
NtRp4598
(dp4599
g69
(dp4600
sg78
g4594
sg71
(lp4601
g64
(g65
g66
NtRp4602
(dp4603
g69
(dp4604
g77
I2
ssg78
g4598
sg71
(lp4605
g64
(g73
g66
NtRp4606
(dp4607
g69
(dp4608
g77
I1
ssg78
Nsg71
(lp4609
g64
(g80
g66
NtRp4610
(dp4611
g69
(dp4612
sg78
g4606
sg71
(lp4613
g64
(g85
g66
NtRp4614
(dp4615
g69
(dp4616
sg78
g4610
sg71
(lp4617
g64
(g65
g66
NtRp4618
(dp4619
g69
(dp4620
g77
I1
ssg78
g4614
sg71
(lp4621
S'web2py.com'
p4622
asbasbasbag64
(g80
g66
NtRp4623
(dp4624
g69
(dp4625
sg78
g4606
sg71
(lp4626
g64
(g85
g66
NtRp4627
(dp4628
g69
(dp4629
sg78
g4623
sg71
(lp4630
g64
(g65
g66
NtRp4631
(dp4632
g69
(dp4633
g77
I1
ssg78
g4627
sg71
(lp4634
I00
asbasbasbag64
(g80
g66
NtRp4635
(dp4636
g69
(dp4637
sg78
g4606
sg71
(lp4638
g64
(g85
g66
NtRp4639
(dp4640
g69
(dp4641
sg78
g4635
sg71
(lp4642
g64
(g65
g66
NtRp4643
(dp4644
g69
(dp4645
g77
I1
ssg78
g4639
sg71
(lp4646
S'http://www.web2py.com'
p4647
asbasbasbag64
(g80
g66
NtRp4648
(dp4649
g69
(dp4650
sg78
g4606
sg71
(lp4651
g64
(g85
g66
NtRp4652
(dp4653
g69
(dp4654
sg78
g4648
sg71
(lp4655
g64
(g65
g66
NtRp4656
(dp4657
g69
(dp4658
g77
I1
ssg78
g4652
sg71
(lp4659
(lp4660
(g4336
(S's\x08\x00\x00\x00Download'
tRp4661
I00
S'http://www.web2py.com/examples/default/download'
p4662
tp4663
a(g4336
(S's\x07\x00\x00\x00Support'
tRp4664
I00
S'http://www.web2py.com/examples/default/support'
p4665
tp4666
a(g4336
(S's\x04\x00\x00\x00Demo'
tRp4667
I00
S'http://web2py.com/demo_admin'
p4668
tp4669
a(g4336
(S's\x0e\x00\x00\x00Quick Examples'
tRp4670
I00
S'http://web2py.com/examples/default/examples'
p4671
tp4672
a(g4336
(S's\x03\x00\x00\x00FAQ'
tRp4673
I00
S'http://web2py.com/AlterEgo'
p4674
tp4675
a(g4336
(S's\x06\x00\x00\x00Videos'
tRp4676
I00
S'http://www.web2py.com/examples/default/videos/'
p4677
tp4678
a(g4336
(S's\x11\x00\x00\x00Free Applications'
tRp4679
I00
S'http://web2py.com/appliances'
p4680
tp4681
a(g4336
(S's\x07\x00\x00\x00Plugins'
tRp4682
I00
S'http://web2py.com/plugins'
p4683
tp4684
a(g4336
(S's\x07\x00\x00\x00Layouts'
tRp4685
I00
S'http://web2py.com/layouts'
p4686
tp4687
a(g4336
(S's\x07\x00\x00\x00Recipes'
tRp4688
I00
S'http://web2pyslices.com/'
p4689
tp4690
a(g4336
(S's\x08\x00\x00\x00Semantic'
tRp4691
I00
S'http://web2py.com/semantic'
p4692
tp4693
aasbasbasbasbasbasbasbag64
(g80
g66
NtRp4694
(dp4695
g69
(dp4696
sg78
g4451
sg71
(lp4697
g64
(g85
g66
NtRp4698
(dp4699
g69
(dp4700
sg78
g4694
sg71
(lp4701
g64
(g65
g66
NtRp4702
(dp4703
g69
(dp4704
g77
I2
ssg78
g4698
sg71
(lp4705
g64
(g73
g66
NtRp4706
(dp4707
g69
(dp4708
g77
I1
ssg78
Nsg71
(lp4709
g64
(g80
g66
NtRp4710
(dp4711
g69
(dp4712
sg78
g4706
sg71
(lp4713
g64
(g85
g66
NtRp4714
(dp4715
g69
(dp4716
sg78
g4710
sg71
(lp4717
g64
(g65
g66
NtRp4718
(dp4719
g69
(dp4720
g77
I1
ssg78
g4714
sg71
(lp4721
g4336
(S's\r\x00\x00\x00Documentation'
tRp4722
asbasbasbag64
(g80
g66
NtRp4723
(dp4724
g69
(dp4725
sg78
g4706
sg71
(lp4726
g64
(g85
g66
NtRp4727
(dp4728
g69
(dp4729
sg78
g4723
sg71
(lp4730
g64
(g65
g66
NtRp4731
(dp4732
g69
(dp4733
g77
I1
ssg78
g4727
sg71
(lp4734
I00
asbasbasbag64
(g80
g66
NtRp4735
(dp4736
g69
(dp4737
sg78
g4706
sg71
(lp4738
g64
(g85
g66
NtRp4739
(dp4740
g69
(dp4741
sg78
g4735
sg71
(lp4742
g64
(g65
g66
NtRp4743
(dp4744
g69
(dp4745
g77
I1
ssg78
g4739
sg71
(lp4746
S'http://www.web2py.com/book'
p4747
asbasbasbag64
(g80
g66
NtRp4748
(dp4749
g69
(dp4750
sg78
g4706
sg71
(lp4751
g64
(g85
g66
NtRp4752
(dp4753
g69
(dp4754
sg78
g4748
sg71
(lp4755
g64
(g65
g66
NtRp4756
(dp4757
g69
(dp4758
g77
I1
ssg78
g4752
sg71
(lp4759
(lp4760
(g4336
(S's\x07\x00\x00\x00Preface'
tRp4761
I00
S'http://www.web2py.com/book/default/chapter/00'
p4762
tp4763
a(g4336
(S's\x0c\x00\x00\x00Introduction'
tRp4764
I00
S'http://www.web2py.com/book/default/chapter/01'
p4765
tp4766
a(g4336
(S's\x06\x00\x00\x00Python'
tRp4767
I00
S'http://www.web2py.com/book/default/chapter/02'
p4768
tp4769
a(g4336
(S's\x08\x00\x00\x00Overview'
tRp4770
I00
S'http://www.web2py.com/book/default/chapter/03'
p4771
tp4772
a(g4336
(S's\x08\x00\x00\x00The Core'
tRp4773
I00
S'http://www.web2py.com/book/default/chapter/04'
p4774
tp4775
a(g4336
(S's\t\x00\x00\x00The Views'
tRp4776
I00
S'http://www.web2py.com/book/default/chapter/05'
p4777
tp4778
a(g4336
(S's\x0e\x00\x00\x00banco de dados'
tRp4779
I00
S'http://www.web2py.com/book/default/chapter/06'
p4780
tp4781
a(g4336
(S's\x14\x00\x00\x00Forms and Validators'
tRp4782
I00
S'http://www.web2py.com/book/default/chapter/07'
p4783
tp4784
a(g4336
(S's\r\x00\x00\x00Email and SMS'
tRp4785
I00
S'http://www.web2py.com/book/default/chapter/08'
p4786
tp4787
a(g4336
(S's\x0e\x00\x00\x00Access Control'
tRp4788
I00
S'http://www.web2py.com/book/default/chapter/09'
p4789
tp4790
a(g4336
(S's\x08\x00\x00\x00Services'
tRp4791
I00
S'http://www.web2py.com/book/default/chapter/10'
p4792
tp4793
a(g4336
(S's\x0c\x00\x00\x00Ajax Recipes'
tRp4794
I00
S'http://www.web2py.com/book/default/chapter/11'
p4795
tp4796
a(g4336
(S's\x16\x00\x00\x00Components and Plugins'
tRp4797
I00
S'http://www.web2py.com/book/default/chapter/12'
p4798
tp4799
a(g4336
(S's\x12\x00\x00\x00Deployment Recipes'
tRp4800
I00
S'http://www.web2py.com/book/default/chapter/13'
p4801
tp4802
a(g4336
(S's\r\x00\x00\x00Other Recipes'
tRp4803
I00
S'http://www.web2py.com/book/default/chapter/14'
p4804
tp4805
a(g4336
(S's\r\x00\x00\x00Buy this book'
tRp4806
I00
S'http://stores.lulu.com/web2py'
p4807
tp4808
aasbasbasbasbasbasbasbag64
(g80
g66
NtRp4809
(dp4810
g69
(dp4811
sg78
g4451
sg71
(lp4812
g64
(g85
g66
NtRp4813
(dp4814
g69
(dp4815
sg78
g4809
sg71
(lp4816
g64
(g65
g66
NtRp4817
(dp4818
g69
(dp4819
g77
I2
ssg78
g4813
sg71
(lp4820
g64
(g73
g66
NtRp4821
(dp4822
g69
(dp4823
g77
I1
ssg78
Nsg71
(lp4824
g64
(g80
g66
NtRp4825
(dp4826
g69
(dp4827
sg78
g4821
sg71
(lp4828
g64
(g85
g66
NtRp4829
(dp4830
g69
(dp4831
sg78
g4825
sg71
(lp4832
g64
(g65
g66
NtRp4833
(dp4834
g69
(dp4835
g77
I1
ssg78
g4829
sg71
(lp4836
g4336
(S's\t\x00\x00\x00Community'
tRp4837
asbasbasbag64
(g80
g66
NtRp4838
(dp4839
g69
(dp4840
sg78
g4821
sg71
(lp4841
g64
(g85
g66
NtRp4842
(dp4843
g69
(dp4844
sg78
g4838
sg71
(lp4845
g64
(g65
g66
NtRp4846
(dp4847
g69
(dp4848
g77
I1
ssg78
g4842
sg71
(lp4849
I00
asbasbasbag64
(g80
g66
NtRp4850
(dp4851
g69
(dp4852
sg78
g4821
sg71
(lp4853
g64
(g85
g66
NtRp4854
(dp4855
g69
(dp4856
sg78
g4850
sg71
(lp4857
g64
(g65
g66
NtRp4858
(dp4859
g69
(dp4860
g77
I1
ssg78
g4854
sg71
(lp4861
Nasbasbasbag64
(g80
g66
NtRp4862
(dp4863
g69
(dp4864
sg78
g4821
sg71
(lp4865
g64
(g85
g66
NtRp4866
(dp4867
g69
(dp4868
sg78
g4862
sg71
(lp4869
g64
(g65
g66
NtRp4870
(dp4871
g69
(dp4872
g77
I1
ssg78
g4866
sg71
(lp4873
(lp4874
(g4336
(S's\x06\x00\x00\x00Groups'
tRp4875
I00
S'http://www.web2py.com/examples/default/usergroups'
p4876
tp4877
a(g4336
(S's\x07\x00\x00\x00Twitter'
tRp4878
I00
S'http://twitter.com/web2py'
p4879
tp4880
a(g4336
(S's\t\x00\x00\x00Live Chat'
tRp4881
I00
S'http://webchat.freenode.net/?channels=web2py'
p4882
tp4883
aasbasbasbasbasbasbasbag64
(g80
g66
NtRp4884
(dp4885
g69
(dp4886
sg78
g4451
sg71
(lp4887
g64
(g85
g66
NtRp4888
(dp4889
g69
(dp4890
sg78
g4884
sg71
(lp4891
g64
(g65
g66
NtRp4892
(dp4893
g69
(dp4894
g77
I2
ssg78
g4888
sg71
(lp4895
g64
(g73
g66
NtRp4896
(dp4897
g69
(dp4898
g77
I1
ssg78
Nsg71
(lp4899
g64
(g80
g66
NtRp4900
(dp4901
g69
(dp4902
sg78
g4896
sg71
(lp4903
g64
(g85
g66
NtRp4904
(dp4905
g69
(dp4906
sg78
g4900
sg71
(lp4907
g64
(g65
g66
NtRp4908
(dp4909
g69
(dp4910
g77
I1
ssg78
g4904
sg71
(lp4911
g4336
(S's\x07\x00\x00\x00Plugins'
tRp4912
asbasbasbag64
(g80
g66
NtRp4913
(dp4914
g69
(dp4915
sg78
g4896
sg71
(lp4916
g64
(g85
g66
NtRp4917
(dp4918
g69
(dp4919
sg78
g4913
sg71
(lp4920
g64
(g65
g66
NtRp4921
(dp4922
g69
(dp4923
g77
I1
ssg78
g4917
sg71
(lp4924
I00
asbasbasbag64
(g80
g66
NtRp4925
(dp4926
g69
(dp4927
sg78
g4896
sg71
(lp4928
g64
(g85
g66
NtRp4929
(dp4930
g69
(dp4931
sg78
g4925
sg71
(lp4932
g64
(g65
g66
NtRp4933
(dp4934
g69
(dp4935
g77
I1
ssg78
g4929
sg71
(lp4936
Nasbasbasbag64
(g80
g66
NtRp4937
(dp4938
g69
(dp4939
sg78
g4896
sg71
(lp4940
g64
(g85
g66
NtRp4941
(dp4942
g69
(dp4943
sg78
g4937
sg71
(lp4944
g64
(g65
g66
NtRp4945
(dp4946
g69
(dp4947
g77
I1
ssg78
g4941
sg71
(lp4948
(lp4949
(S'plugin_wiki'
p4950
I00
S'http://web2py.com/examples/default/download'
p4951
tp4952
a(g4336
(S's\r\x00\x00\x00Other Plugins'
tRp4953
I00
g4683
tp4954
a(g4336
(S's\x0e\x00\x00\x00Layout Plugins'
tRp4955
I00
g4686
tp4956
aasbasbasbasbasbasbasbasbasbasbasbasbasbasbasbasbasbasbasbag64
(g80
g66
NtRp4957
(dp4958
g69
(dp4959
sg78
g3845
sg71
(lp4960
g64
(g85
g66
NtRp4961
(dp4962
g69
(dp4963
g89
g90
ssg78
g4957
sg71
(lp4964
S'meta'
p4965
asbag64
(g85
g66
NtRp4966
(dp4967
g69
(dp4968
g96
g97
ssg78
g4957
sg71
(lp4969
S':'
asbag64
(g85
g66
NtRp4970
(dp4971
g69
(dp4972
sg78
g4957
sg71
(lp4973
g64
(g65
g66
NtRp4974
(dp4975
g69
(dp4976
g77
I5
ssg78
g4970
sg71
(lp4977
g64
(g73
g66
NtRp4978
(dp4979
g69
(dp4980
g77
I4
ssg78
Nsg71
(lp4981
g64
(g80
g66
NtRp4982
(dp4983
g69
(dp4984
sg78
g4978
sg71
(lp4985
g64
(g85
g66
NtRp4986
(dp4987
g69
(dp4988
g89
g90
ssg78
g4982
sg71
(lp4989
S'author'
p4990
asbag64
(g85
g66
NtRp4991
(dp4992
g69
(dp4993
g96
g97
ssg78
g4982
sg71
(lp4994
S':'
asbag64
(g85
g66
NtRp4995
(dp4996
g69
(dp4997
sg78
g4982
sg71
(lp4998
g64
(g65
g66
NtRp4999
(dp5000
g69
(dp5001
g77
I4
ssg78
g4995
sg71
(lp5002
S'Your Name <you@example.com>'
p5003
asbasbasbag64
(g80
g66
NtRp5004
(dp5005
g69
(dp5006
sg78
g4978
sg71
(lp5007
g64
(g85
g66
NtRp5008
(dp5009
g69
(dp5010
g89
g90
ssg78
g5004
sg71
(lp5011
S'description'
p5012
asbag64
(g85
g66
NtRp5013
(dp5014
g69
(dp5015
g96
g97
ssg78
g5004
sg71
(lp5016
S':'
asbag64
(g85
g66
NtRp5017
(dp5018
g69
(dp5019
sg78
g5004
sg71
(lp5020
g64
(g65
g66
NtRp5021
(dp5022
g69
(dp5023
g77
I4
ssg78
g5017
sg71
(lp5024
S'a cool new app'
p5025
asbasbasbag64
(g80
g66
NtRp5026
(dp5027
g69
(dp5028
sg78
g4978
sg71
(lp5029
g64
(g85
g66
NtRp5030
(dp5031
g69
(dp5032
g89
g90
ssg78
g5026
sg71
(lp5033
S'generator'
p5034
asbag64
(g85
g66
NtRp5035
(dp5036
g69
(dp5037
g96
g97
ssg78
g5026
sg71
(lp5038
S':'
asbag64
(g85
g66
NtRp5039
(dp5040
g69
(dp5041
sg78
g5026
sg71
(lp5042
g64
(g65
g66
NtRp5043
(dp5044
g69
(dp5045
g77
I4
ssg78
g5039
sg71
(lp5046
S'Web2py Web Framework'
p5047
asbasbasbag64
(g80
g66
NtRp5048
(dp5049
g69
(dp5050
sg78
g4978
sg71
(lp5051
g64
(g85
g66
NtRp5052
(dp5053
g69
(dp5054
g89
g90
ssg78
g5048
sg71
(lp5055
S'keywords'
p5056
asbag64
(g85
g66
NtRp5057
(dp5058
g69
(dp5059
g96
g97
ssg78
g5048
sg71
(lp5060
S':'
asbag64
(g85
g66
NtRp5061
(dp5062
g69
(dp5063
sg78
g5048
sg71
(lp5064
g64
(g65
g66
NtRp5065
(dp5066
g69
(dp5067
g77
I4
ssg78
g5061
sg71
(lp5068
S'web2py, python, framework'
p5069
asbasbasbasbasbasbasbag64
(g80
g66
NtRp5070
(dp5071
g69
(dp5072
sg78
g3845
sg71
(lp5073
g64
(g85
g66
NtRp5074
(dp5075
g69
(dp5076
g89
g90
ssg78
g5070
sg71
(lp5077
S'models_to_run'
p5078
asbag64
(g85
g66
NtRp5079
(dp5080
g69
(dp5081
g96
g97
ssg78
g5070
sg71
(lp5082
S':'
asbag64
(g85
g66
NtRp5083
(dp5084
g69
(dp5085
sg78
g5070
sg71
(lp5086
g64
(g65
g66
NtRp5087
(dp5088
g69
(dp5089
g77
I5
ssg78
g5083
sg71
(lp5090
g64
(g73
g66
NtRp5091
(dp5092
g69
(dp5093
g77
I4
ssg78
Nsg71
(lp5094
g64
(g80
g66
NtRp5095
(dp5096
g69
(dp5097
sg78
g5091
sg71
(lp5098
g64
(g85
g66
NtRp5099
(dp5100
g69
(dp5101
sg78
g5095
sg71
(lp5102
g64
(g65
g66
NtRp5103
(dp5104
g69
(dp5105
g77
I4
ssg78
g5099
sg71
(lp5106
S'^\\w+\\.py$'
p5107
asbasbasbag64
(g80
g66
NtRp5108
(dp5109
g69
(dp5110
sg78
g5091
sg71
(lp5111
g64
(g85
g66
NtRp5112
(dp5113
g69
(dp5114
sg78
g5108
sg71
(lp5115
g64
(g65
g66
NtRp5116
(dp5117
g69
(dp5118
g77
I4
ssg78
g5112
sg71
(lp5119
S'^default/\\w+\\.py$'
p5120
asbasbasbag64
(g80
g66
NtRp5121
(dp5122
g69
(dp5123
sg78
g5091
sg71
(lp5124
g64
(g85
g66
NtRp5125
(dp5126
g69
(dp5127
sg78
g5121
sg71
(lp5128
g64
(g65
g66
NtRp5129
(dp5130
g69
(dp5131
g77
I4
ssg78
g5125
sg71
(lp5132
S'^default/loadOptions/\\w+\\.py$'
p5133
asbasbasbasbasbasbasbag64
(g80
g66
NtRp5134
(dp5135
g69
(dp5136
sg78
g3845
sg71
(lp5137
g64
(g85
g66
NtRp5138
(dp5139
g69
(dp5140
g89
g90
ssg78
g5134
sg71
(lp5141
S'postprocessing'
p5142
asbag64
(g85
g66
NtRp5143
(dp5144
g69
(dp5145
g96
g97
ssg78
g5134
sg71
(lp5146
S':'
asbag64
(g85
g66
NtRp5147
(dp5148
g69
(dp5149
sg78
g5134
sg71
(lp5150
g64
(g65
g66
NtRp5151
(dp5152
g69
(dp5153
g77
I5
ssg78
g5147
sg71
(lp5154
g64
(g73
g66
NtRp5155
(dp5156
g69
(dp5157
g77
I4
ssg78
Nsg71
(lp5158
sbasbasbasbag64
(g80
g66
NtRp5159
(dp5160
g69
(dp5161
sg78
g3845
sg71
(lp5162
g64
(g85
g66
NtRp5163
(dp5164
g69
(dp5165
g89
g90
ssg78
g5159
sg71
(lp5166
S'session_cookie_expires'
p5167
asbag64
(g85
g66
NtRp5168
(dp5169
g69
(dp5170
g96
g97
ssg78
g5159
sg71
(lp5171
S':'
asbag64
(g85
g66
NtRp5172
(dp5173
g69
(dp5174
sg78
g5159
sg71
(lp5175
g64
(g65
g66
NtRp5176
(dp5177
g69
(dp5178
g77
I5
ssg78
g5172
sg71
(lp5179
S'None'
p5180
asbasbasbag64
(g80
g66
NtRp5181
(dp5182
g69
(dp5183
sg78
g3845
sg71
(lp5184
g64
(g85
g66
NtRp5185
(dp5186
g69
(dp5187
g89
g90
ssg78
g5181
sg71
(lp5188
S'session_data_name'
p5189
asbag64
(g85
g66
NtRp5190
(dp5191
g69
(dp5192
g96
g97
ssg78
g5181
sg71
(lp5193
S':'
asbag64
(g85
g66
NtRp5194
(dp5195
g69
(dp5196
sg78
g5181
sg71
(lp5197
g64
(g65
g66
NtRp5198
(dp5199
g69
(dp5200
g77
I5
ssg78
g5194
sg71
(lp5201
S'session_data_cartesianplane'
p5202
asbasbasbag64
(g80
g66
NtRp5203
(dp5204
g69
(dp5205
sg78
g3845
sg71
(lp5206
g64
(g85
g66
NtRp5207
(dp5208
g69
(dp5209
g89
g90
ssg78
g5203
sg71
(lp5210
S'session_filename'
p5211
asbag64
(g85
g66
NtRp5212
(dp5213
g69
(dp5214
g96
g97
ssg78
g5203
sg71
(lp5215
S':'
asbag64
(g85
g66
NtRp5216
(dp5217
g69
(dp5218
sg78
g5203
sg71
(lp5219
g64
(g65
g66
NtRp5220
(dp5221
g69
(dp5222
g77
I5
ssg78
g5216
sg71
(lp5223
S'/Users/victorgirotto/Desktop/web2py-master/applications/CartesianPlane/sessions/127.0.0.1-9e482544-d6d7-4c04-ba0d-99a96c0a1e79'
p5224
asbasbasbag64
(g80
g66
NtRp5225
(dp5226
g69
(dp5227
sg78
g3845
sg71
(lp5228
g64
(g85
g66
NtRp5229
(dp5230
g69
(dp5231
g89
g90
ssg78
g5225
sg71
(lp5232
S'session_id'
p5233
asbag64
(g85
g66
NtRp5234
(dp5235
g69
(dp5236
g96
g97
ssg78
g5225
sg71
(lp5237
S':'
asbag64
(g85
g66
NtRp5238
(dp5239
g69
(dp5240
sg78
g5225
sg71
(lp5241
g64
(g65
g66
NtRp5242
(dp5243
g69
(dp5244
g77
I5
ssg78
g5238
sg71
(lp5245
g3915
asbasbasbag64
(g80
g66
NtRp5246
(dp5247
g69
(dp5248
sg78
g3845
sg71
(lp5249
g64
(g85
g66
NtRp5250
(dp5251
g69
(dp5252
g89
g90
ssg78
g5246
sg71
(lp5253
S'session_id_name'
p5254
asbag64
(g85
g66
NtRp5255
(dp5256
g69
(dp5257
g96
g97
ssg78
g5246
sg71
(lp5258
S':'
asbag64
(g85
g66
NtRp5259
(dp5260
g69
(dp5261
sg78
g5246
sg71
(lp5262
g64
(g65
g66
NtRp5263
(dp5264
g69
(dp5265
g77
I5
ssg78
g5259
sg71
(lp5266
g3902
asbasbasbag64
(g80
g66
NtRp5267
(dp5268
g69
(dp5269
sg78
g3845
sg71
(lp5270
g64
(g85
g66
NtRp5271
(dp5272
g69
(dp5273
g89
g90
ssg78
g5267
sg71
(lp5274
S'session_new'
p5275
asbag64
(g85
g66
NtRp5276
(dp5277
g69
(dp5278
g96
g97
ssg78
g5267
sg71
(lp5279
S':'
asbag64
(g85
g66
NtRp5280
(dp5281
g69
(dp5282
sg78
g5267
sg71
(lp5283
g64
(g65
g66
NtRp5284
(dp5285
g69
(dp5286
g77
I5
ssg78
g5280
sg71
(lp5287
g107
asbasbasbag64
(g80
g66
NtRp5288
(dp5289
g69
(dp5290
sg78
g3845
sg71
(lp5291
g64
(g85
g66
NtRp5292
(dp5293
g69
(dp5294
g89
g90
ssg78
g5288
sg71
(lp5295
S'session_storage_type'
p5296
asbag64
(g85
g66
NtRp5297
(dp5298
g69
(dp5299
g96
g97
ssg78
g5288
sg71
(lp5300
S':'
asbag64
(g85
g66
NtRp5301
(dp5302
g69
(dp5303
sg78
g5288
sg71
(lp5304
g64
(g65
g66
NtRp5305
(dp5306
g69
(dp5307
g77
I5
ssg78
g5301
sg71
(lp5308
g3707
asbasbasbag64
(g80
g66
NtRp5309
(dp5310
g69
(dp5311
sg78
g3845
sg71
(lp5312
g64
(g85
g66
NtRp5313
(dp5314
g69
(dp5315
g89
g90
ssg78
g5309
sg71
(lp5316
S'status'
p5317
asbag64
(g85
g66
NtRp5318
(dp5319
g69
(dp5320
g96
g97
ssg78
g5309
sg71
(lp5321
S':'
asbag64
(g85
g66
NtRp5322
(dp5323
g69
(dp5324
sg78
g5309
sg71
(lp5325
g64
(g65
g66
NtRp5326
(dp5327
g69
(dp5328
g77
I5
ssg78
g5322
sg71
(lp5329
S'200'
p5330
asbasbasbag64
(g80
g66
NtRp5331
(dp5332
g69
(dp5333
sg78
g3845
sg71
(lp5334
g64
(g85
g66
NtRp5335
(dp5336
g69
(dp5337
g89
g90
ssg78
g5331
sg71
(lp5338
S'subtitle'
p5339
asbag64
(g85
g66
NtRp5340
(dp5341
g69
(dp5342
g96
g97
ssg78
g5331
sg71
(lp5343
S':'
asbag64
(g85
g66
NtRp5344
(dp5345
g69
(dp5346
sg78
g5331
sg71
(lp5347
g64
(g65
g66
NtRp5348
(dp5349
g69
(dp5350
g77
I5
ssg78
g5344
sg71
(lp5351
g4336
(S's\x0f\x00\x00\x00Personalize-me!'
tRp5352
asbasbasbag64
(g80
g66
NtRp5353
(dp5354
g69
(dp5355
sg78
g3845
sg71
(lp5356
g64
(g85
g66
NtRp5357
(dp5358
g69
(dp5359
g89
g90
ssg78
g5353
sg71
(lp5360
S'title'
p5361
asbag64
(g85
g66
NtRp5362
(dp5363
g69
(dp5364
g96
g97
ssg78
g5353
sg71
(lp5365
S':'
asbag64
(g85
g66
NtRp5366
(dp5367
g69
(dp5368
sg78
g5353
sg71
(lp5369
g64
(g65
g66
NtRp5370
(dp5371
g69
(dp5372
g77
I5
ssg78
g5366
sg71
(lp5373
S'Cartesianplane'
p5374
asbasbasbag64
(g80
g66
NtRp5375
(dp5376
g69
(dp5377
sg78
g3845
sg71
(lp5378
g64
(g85
g66
NtRp5379
(dp5380
g69
(dp5381
g89
g90
ssg78
g5375
sg71
(lp5382
S'view'
p5383
asbag64
(g85
g66
NtRp5384
(dp5385
g69
(dp5386
g96
g97
ssg78
g5375
sg71
(lp5387
S':'
asbag64
(g85
g66
NtRp5388
(dp5389
g69
(dp5390
sg78
g5375
sg71
(lp5391
g64
(g65
g66
NtRp5392
(dp5393
g69
(dp5394
g77
I5
ssg78
g5388
sg71
(lp5395
S'default/loadOptions.html'
p5396
asbasbasbasbasbsS'locals'
p5397
(dp5398
S'self'
p5399
S'<xmlrpclib.Unmarshaller instance>'
p5400
sssS'traceback'
p5401
S'Traceback (most recent call last):\n  File "/Users/victorgirotto/Desktop/web2py-master/gluon/restricted.py", line 212, in restricted\n    exec ccode in environment\n  File "/Users/victorgirotto/Desktop/web2py-master/applications/CartesianPlane/controllers/default.py", line 64, in <module>\n  File "/Users/victorgirotto/Desktop/web2py-master/gluon/globals.py", line 190, in <lambda>\n    self._caller = lambda f: f()\n  File "/Users/victorgirotto/Desktop/web2py-master/applications/CartesianPlane/controllers/default.py", line 31, in loadOptions\n    return server.loadOptions(response.json(request.vars))\n  File "/System/Library/Frameworks/Python.framework/Versions/2.7/lib/python2.7/xmlrpclib.py", line 1224, in __call__\n  File "/System/Library/Frameworks/Python.framework/Versions/2.7/lib/python2.7/xmlrpclib.py", line 1575, in __request\n  File "/System/Library/Frameworks/Python.framework/Versions/2.7/lib/python2.7/xmlrpclib.py", line 1264, in request\n  File "/System/Library/Frameworks/Python.framework/Versions/2.7/lib/python2.7/xmlrpclib.py", line 1297, in single_request\n  File "/System/Library/Frameworks/Python.framework/Versions/2.7/lib/python2.7/xmlrpclib.py", line 1473, in parse_response\n  File "/System/Library/Frameworks/Python.framework/Versions/2.7/lib/python2.7/xmlrpclib.py", line 793, in close\nFault: <Fault 1: "<class \'sqlite3.OperationalError\'>:database is locked">\n'
p5402
s.